   1               		.file	"keymap_common.c"
   2               	__SP_H__ = 0x3e
   3               	__SP_L__ = 0x3d
   4               	__SREG__ = 0x3f
   5               	__tmp_reg__ = 0
   6               	__zero_reg__ = 1
   7               		.text
   8               	.Ltext0:
   9               		.cfi_sections	.debug_frame
  10               		.section	.text.action_get_macro,"ax",@progbits
  11               		.weak	action_get_macro
  13               	action_get_macro:
  14               	.LVL0:
  15               	.LFB19:
  16               		.file 1 "quantum/keymap_common.c"
   1:quantum/keymap_common.c **** /*
   2:quantum/keymap_common.c **** Copyright 2012-2017 Jun Wako <wakojun@gmail.com>
   3:quantum/keymap_common.c **** 
   4:quantum/keymap_common.c **** This program is free software: you can redistribute it and/or modify
   5:quantum/keymap_common.c **** it under the terms of the GNU General Public License as published by
   6:quantum/keymap_common.c **** the Free Software Foundation, either version 2 of the License, or
   7:quantum/keymap_common.c **** (at your option) any later version.
   8:quantum/keymap_common.c **** 
   9:quantum/keymap_common.c **** This program is distributed in the hope that it will be useful,
  10:quantum/keymap_common.c **** but WITHOUT ANY WARRANTY; without even the implied warranty of
  11:quantum/keymap_common.c **** MERCHANTABILITY or FITNESS FOR A PARTICULAR PURPOSE.  See the
  12:quantum/keymap_common.c **** GNU General Public License for more details.
  13:quantum/keymap_common.c **** 
  14:quantum/keymap_common.c **** You should have received a copy of the GNU General Public License
  15:quantum/keymap_common.c **** along with this program.  If not, see <http://www.gnu.org/licenses/>.
  16:quantum/keymap_common.c **** */
  17:quantum/keymap_common.c **** 
  18:quantum/keymap_common.c **** #include "keymap.h"
  19:quantum/keymap_common.c **** #include "report.h"
  20:quantum/keymap_common.c **** #include "keycode.h"
  21:quantum/keymap_common.c **** #include "action_layer.h"
  22:quantum/keymap_common.c **** #if defined(__AVR__)
  23:quantum/keymap_common.c **** #include <util/delay.h>
  24:quantum/keymap_common.c **** #include <stdio.h>
  25:quantum/keymap_common.c **** #endif
  26:quantum/keymap_common.c **** #include "action.h"
  27:quantum/keymap_common.c **** #include "action_macro.h"
  28:quantum/keymap_common.c **** #include "debug.h"
  29:quantum/keymap_common.c **** #include "backlight.h"
  30:quantum/keymap_common.c **** #include "quantum.h"
  31:quantum/keymap_common.c **** 
  32:quantum/keymap_common.c **** #ifdef MIDI_ENABLE
  33:quantum/keymap_common.c **** 	#include "process_midi.h"
  34:quantum/keymap_common.c **** #endif
  35:quantum/keymap_common.c **** 
  36:quantum/keymap_common.c **** extern keymap_config_t keymap_config;
  37:quantum/keymap_common.c **** 
  38:quantum/keymap_common.c **** #include <inttypes.h>
  39:quantum/keymap_common.c **** 
  40:quantum/keymap_common.c **** /* converts key to action */
  41:quantum/keymap_common.c **** action_t action_for_key(uint8_t layer, keypos_t key)
  42:quantum/keymap_common.c **** {
  43:quantum/keymap_common.c ****     // 16bit keycodes - important
  44:quantum/keymap_common.c ****     uint16_t keycode = keymap_key_to_keycode(layer, key);
  45:quantum/keymap_common.c **** 
  46:quantum/keymap_common.c ****     // keycode remapping
  47:quantum/keymap_common.c ****     keycode = keycode_config(keycode);
  48:quantum/keymap_common.c **** 
  49:quantum/keymap_common.c ****     action_t action;
  50:quantum/keymap_common.c ****     uint8_t action_layer, when, mod;
  51:quantum/keymap_common.c **** 
  52:quantum/keymap_common.c ****     switch (keycode) {
  53:quantum/keymap_common.c ****         case KC_FN0 ... KC_FN31:
  54:quantum/keymap_common.c ****             action.code = keymap_function_id_to_action(FN_INDEX(keycode));
  55:quantum/keymap_common.c ****             break;
  56:quantum/keymap_common.c ****         case KC_A ... KC_EXSEL:
  57:quantum/keymap_common.c ****         case KC_LCTRL ... KC_RGUI:
  58:quantum/keymap_common.c ****             action.code = ACTION_KEY(keycode);
  59:quantum/keymap_common.c ****             break;
  60:quantum/keymap_common.c ****         case KC_SYSTEM_POWER ... KC_SYSTEM_WAKE:
  61:quantum/keymap_common.c ****             action.code = ACTION_USAGE_SYSTEM(KEYCODE2SYSTEM(keycode));
  62:quantum/keymap_common.c ****             break;
  63:quantum/keymap_common.c ****         case KC_AUDIO_MUTE ... KC_MEDIA_REWIND:
  64:quantum/keymap_common.c ****             action.code = ACTION_USAGE_CONSUMER(KEYCODE2CONSUMER(keycode));
  65:quantum/keymap_common.c ****             break;
  66:quantum/keymap_common.c ****         case KC_MS_UP ... KC_MS_ACCEL2:
  67:quantum/keymap_common.c ****             action.code = ACTION_MOUSEKEY(keycode);
  68:quantum/keymap_common.c ****             break;
  69:quantum/keymap_common.c ****         case KC_TRNS:
  70:quantum/keymap_common.c ****             action.code = ACTION_TRANSPARENT;
  71:quantum/keymap_common.c ****             break;
  72:quantum/keymap_common.c ****         case QK_MODS ... QK_MODS_MAX: ;
  73:quantum/keymap_common.c ****             // Has a modifier
  74:quantum/keymap_common.c ****             // Split it up
  75:quantum/keymap_common.c ****             action.code = ACTION_MODS_KEY(keycode >> 8, keycode & 0xFF); // adds modifier to key
  76:quantum/keymap_common.c ****             break;
  77:quantum/keymap_common.c ****         case QK_FUNCTION ... QK_FUNCTION_MAX: ;
  78:quantum/keymap_common.c ****             // Is a shortcut for function action_layer, pull last 12bits
  79:quantum/keymap_common.c ****             // This means we have 4,096 FN macros at our disposal
  80:quantum/keymap_common.c ****             action.code = keymap_function_id_to_action( (int)keycode & 0xFFF );
  81:quantum/keymap_common.c ****             break;
  82:quantum/keymap_common.c ****         case QK_MACRO ... QK_MACRO_MAX:
  83:quantum/keymap_common.c ****             if (keycode & 0x800) // tap macros have upper bit set
  84:quantum/keymap_common.c ****                 action.code = ACTION_MACRO_TAP(keycode & 0xFF);
  85:quantum/keymap_common.c ****             else
  86:quantum/keymap_common.c ****                 action.code = ACTION_MACRO(keycode & 0xFF);
  87:quantum/keymap_common.c ****             break;
  88:quantum/keymap_common.c ****         case QK_LAYER_TAP ... QK_LAYER_TAP_MAX:
  89:quantum/keymap_common.c ****             action.code = ACTION_LAYER_TAP_KEY((keycode >> 0x8) & 0xF, keycode & 0xFF);
  90:quantum/keymap_common.c ****             break;
  91:quantum/keymap_common.c ****         case QK_TO ... QK_TO_MAX: ;
  92:quantum/keymap_common.c ****             // Layer set "GOTO"
  93:quantum/keymap_common.c ****             when = (keycode >> 0x4) & 0x3;
  94:quantum/keymap_common.c ****             action_layer = keycode & 0xF;
  95:quantum/keymap_common.c ****             action.code = ACTION_LAYER_SET(action_layer, when);
  96:quantum/keymap_common.c ****             break;
  97:quantum/keymap_common.c ****         case QK_MOMENTARY ... QK_MOMENTARY_MAX: ;
  98:quantum/keymap_common.c ****             // Momentary action_layer
  99:quantum/keymap_common.c ****             action_layer = keycode & 0xFF;
 100:quantum/keymap_common.c ****             action.code = ACTION_LAYER_MOMENTARY(action_layer);
 101:quantum/keymap_common.c ****             break;
 102:quantum/keymap_common.c ****         case QK_DEF_LAYER ... QK_DEF_LAYER_MAX: ;
 103:quantum/keymap_common.c ****             // Set default action_layer
 104:quantum/keymap_common.c ****             action_layer = keycode & 0xFF;
 105:quantum/keymap_common.c ****             action.code = ACTION_DEFAULT_LAYER_SET(action_layer);
 106:quantum/keymap_common.c ****             break;
 107:quantum/keymap_common.c ****         case QK_TOGGLE_LAYER ... QK_TOGGLE_LAYER_MAX: ;
 108:quantum/keymap_common.c ****             // Set toggle
 109:quantum/keymap_common.c ****             action_layer = keycode & 0xFF;
 110:quantum/keymap_common.c ****             action.code = ACTION_LAYER_TOGGLE(action_layer);
 111:quantum/keymap_common.c ****             break;
 112:quantum/keymap_common.c ****         case QK_ONE_SHOT_LAYER ... QK_ONE_SHOT_LAYER_MAX: ;
 113:quantum/keymap_common.c ****             // OSL(action_layer) - One-shot action_layer
 114:quantum/keymap_common.c ****             action_layer = keycode & 0xFF;
 115:quantum/keymap_common.c ****             action.code = ACTION_LAYER_ONESHOT(action_layer);
 116:quantum/keymap_common.c ****             break;
 117:quantum/keymap_common.c ****         case QK_ONE_SHOT_MOD ... QK_ONE_SHOT_MOD_MAX: ;
 118:quantum/keymap_common.c ****             // OSM(mod) - One-shot mod
 119:quantum/keymap_common.c ****             mod = keycode & 0xFF;
 120:quantum/keymap_common.c ****             action.code = ACTION_MODS_ONESHOT(mod);
 121:quantum/keymap_common.c ****             break;
 122:quantum/keymap_common.c ****         case QK_LAYER_TAP_TOGGLE ... QK_LAYER_TAP_TOGGLE_MAX:
 123:quantum/keymap_common.c ****             action.code = ACTION_LAYER_TAP_TOGGLE(keycode & 0xFF);
 124:quantum/keymap_common.c ****             break;
 125:quantum/keymap_common.c ****         case QK_LAYER_MOD ... QK_LAYER_MOD_MAX:
 126:quantum/keymap_common.c ****             mod = keycode & 0xF;
 127:quantum/keymap_common.c ****             action_layer = (keycode >> 4) & 0xF;
 128:quantum/keymap_common.c ****             action.code = ACTION_LAYER_MODS(action_layer, mod);
 129:quantum/keymap_common.c ****             break;
 130:quantum/keymap_common.c ****         case QK_MOD_TAP ... QK_MOD_TAP_MAX:
 131:quantum/keymap_common.c ****             mod = mod_config((keycode >> 0x8) & 0x1F);
 132:quantum/keymap_common.c ****             action.code = ACTION_MODS_TAP_KEY(mod, keycode & 0xFF);
 133:quantum/keymap_common.c ****             break;
 134:quantum/keymap_common.c ****     #ifdef BACKLIGHT_ENABLE
 135:quantum/keymap_common.c ****         case BL_ON:
 136:quantum/keymap_common.c ****             action.code = ACTION_BACKLIGHT_ON();
 137:quantum/keymap_common.c ****             break;
 138:quantum/keymap_common.c ****         case BL_OFF:
 139:quantum/keymap_common.c ****             action.code = ACTION_BACKLIGHT_OFF();
 140:quantum/keymap_common.c ****             break;
 141:quantum/keymap_common.c ****         case BL_DEC:
 142:quantum/keymap_common.c ****             action.code = ACTION_BACKLIGHT_DECREASE();
 143:quantum/keymap_common.c ****             break;
 144:quantum/keymap_common.c ****         case BL_INC:
 145:quantum/keymap_common.c ****             action.code = ACTION_BACKLIGHT_INCREASE();
 146:quantum/keymap_common.c ****             break;
 147:quantum/keymap_common.c ****         case BL_TOGG:
 148:quantum/keymap_common.c ****             action.code = ACTION_BACKLIGHT_TOGGLE();
 149:quantum/keymap_common.c ****             break;
 150:quantum/keymap_common.c ****         case BL_STEP:
 151:quantum/keymap_common.c ****             action.code = ACTION_BACKLIGHT_STEP();
 152:quantum/keymap_common.c ****             break;
 153:quantum/keymap_common.c ****     #endif
 154:quantum/keymap_common.c ****     #ifdef SWAP_HANDS_ENABLE
 155:quantum/keymap_common.c ****         case QK_SWAP_HANDS ... QK_SWAP_HANDS_MAX:
 156:quantum/keymap_common.c ****             action.code = ACTION(ACT_SWAP_HANDS, keycode & 0xff);
 157:quantum/keymap_common.c ****             break;
 158:quantum/keymap_common.c ****     #endif
 159:quantum/keymap_common.c **** 
 160:quantum/keymap_common.c ****         default:
 161:quantum/keymap_common.c ****             action.code = ACTION_NO;
 162:quantum/keymap_common.c ****             break;
 163:quantum/keymap_common.c ****     }
 164:quantum/keymap_common.c ****     return action;
 165:quantum/keymap_common.c **** }
 166:quantum/keymap_common.c **** 
 167:quantum/keymap_common.c **** __attribute__ ((weak))
 168:quantum/keymap_common.c **** const uint16_t PROGMEM fn_actions[] = {
 169:quantum/keymap_common.c **** 
 170:quantum/keymap_common.c **** };
 171:quantum/keymap_common.c **** 
 172:quantum/keymap_common.c **** /* Macro */
 173:quantum/keymap_common.c **** __attribute__ ((weak))
 174:quantum/keymap_common.c **** const macro_t *action_get_macro(keyrecord_t *record, uint8_t id, uint8_t opt)
 175:quantum/keymap_common.c **** {
  17               		.loc 1 175 1 view -0
  18               		.cfi_startproc
  19               	/* prologue: function */
  20               	/* frame size = 0 */
  21               	/* stack size = 0 */
  22               	.L__stack_usage = 0
 176:quantum/keymap_common.c ****     return MACRO_NONE;
  23               		.loc 1 176 5 view .LVU1
 177:quantum/keymap_common.c **** }
  24               		.loc 1 177 1 is_stmt 0 view .LVU2
  25 0000 90E0      		ldi r25,0
  26 0002 80E0      		ldi r24,0
  27               	.LVL1:
  28               	/* epilogue start */
  29               		.loc 1 177 1 view .LVU3
  30 0004 0895      		ret
  31               		.cfi_endproc
  32               	.LFE19:
  34               		.section	.text.action_function,"ax",@progbits
  35               		.weak	action_function
  37               	action_function:
  38               	.LVL2:
  39               	.LFB20:
 178:quantum/keymap_common.c **** 
 179:quantum/keymap_common.c **** /* Function */
 180:quantum/keymap_common.c **** __attribute__ ((weak))
 181:quantum/keymap_common.c **** void action_function(keyrecord_t *record, uint8_t id, uint8_t opt)
 182:quantum/keymap_common.c **** {
  40               		.loc 1 182 1 is_stmt 1 view -0
  41               		.cfi_startproc
  42               	/* prologue: function */
  43               	/* frame size = 0 */
  44               	/* stack size = 0 */
  45               	.L__stack_usage = 0
 183:quantum/keymap_common.c **** }
  46               		.loc 1 183 1 view .LVU5
  47               	/* epilogue start */
  48 0000 0895      		ret
  49               		.cfi_endproc
  50               	.LFE20:
  52               		.section	.text.keymap_key_to_keycode,"ax",@progbits
  53               		.weak	keymap_key_to_keycode
  55               	keymap_key_to_keycode:
  56               	.LVL3:
  57               	.LFB21:
 184:quantum/keymap_common.c **** 
 185:quantum/keymap_common.c **** // translates key to keycode
 186:quantum/keymap_common.c **** __attribute__ ((weak))
 187:quantum/keymap_common.c **** uint16_t keymap_key_to_keycode(uint8_t layer, keypos_t key)
 188:quantum/keymap_common.c **** {
  58               		.loc 1 188 1 view -0
  59               		.cfi_startproc
  60               	/* prologue: function */
  61               	/* frame size = 0 */
  62               	/* stack size = 0 */
  63               	.L__stack_usage = 0
  64               		.loc 1 188 1 is_stmt 0 view .LVU7
  65 0000 972F      		mov r25,r23
 189:quantum/keymap_common.c ****     // Read entire word (16bits)
 190:quantum/keymap_common.c ****     return pgm_read_word(&keymaps[(layer)][(key.row)][(key.col)]);
  66               		.loc 1 190 5 is_stmt 1 view .LVU8
  67               	.LBB2:
  68               		.loc 1 190 12 view .LVU9
  69 0002 70E0      		ldi r23,0
  70               		.loc 1 190 12 is_stmt 0 view .LVU10
  71 0004 26E0      		ldi r18,lo8(6)
  72 0006 929F      		mul r25,r18
  73 0008 600D      		add r22,r0
  74 000a 711D      		adc r23,r1
  75 000c 1124      		clr __zero_reg__
  76               	.LVL4:
  77               		.loc 1 190 12 view .LVU11
  78 000e FB01      		movw r30,r22
  79 0010 94E5      		ldi r25,lo8(84)
  80 0012 899F      		mul r24,r25
  81 0014 E00D      		add r30,r0
  82 0016 F11D      		adc r31,r1
  83 0018 1124      		clr __zero_reg__
  84 001a EE0F      		lsl r30
  85 001c FF1F      		rol r31
  86               	.LVL5:
  87               		.loc 1 190 12 view .LVU12
  88 001e E050      		subi r30,lo8(-(keymaps))
  89 0020 F040      		sbci r31,hi8(-(keymaps))
  90               	.LVL6:
  91               		.loc 1 190 12 is_stmt 1 view .LVU13
  92               		.loc 1 190 12 view .LVU14
  93               	/* #APP */
  94               	 ;  190 "quantum/keymap_common.c" 1
  95 0022 8591      		lpm r24, Z+
  96 0024 9491      		lpm r25, Z
  97               		
  98               	 ;  0 "" 2
  99               	.LVL7:
 100               		.loc 1 190 12 view .LVU15
 101               	/* #NOAPP */
 102               	/* epilogue start */
 103               	.LBE2:
 191:quantum/keymap_common.c **** }
 104               		.loc 1 191 1 is_stmt 0 view .LVU16
 105 0026 0895      		ret
 106               		.cfi_endproc
 107               	.LFE21:
 109               		.section	.text.keymap_function_id_to_action,"ax",@progbits
 110               		.weak	keymap_function_id_to_action
 112               	keymap_function_id_to_action:
 113               	.LVL8:
 114               	.LFB22:
 192:quantum/keymap_common.c **** 
 193:quantum/keymap_common.c **** // translates function id to action
 194:quantum/keymap_common.c **** __attribute__ ((weak))
 195:quantum/keymap_common.c **** uint16_t keymap_function_id_to_action( uint16_t function_id )
 196:quantum/keymap_common.c **** {
 115               		.loc 1 196 1 is_stmt 1 view -0
 116               		.cfi_startproc
 117               	/* prologue: function */
 118               	/* frame size = 0 */
 119               	/* stack size = 0 */
 120               	.L__stack_usage = 0
 197:quantum/keymap_common.c ****     // The compiler sees the empty (weak) fn_actions and generates a warning
 198:quantum/keymap_common.c ****     // This function should not be called in that case, so the warning is too strict
 199:quantum/keymap_common.c ****     // If this function is called however, the keymap should have overridden fn_actions, and then t
 200:quantum/keymap_common.c ****     // is comparing against the wrong array
 201:quantum/keymap_common.c ****     #pragma GCC diagnostic push
 202:quantum/keymap_common.c ****     #pragma GCC diagnostic ignored "-Warray-bounds"
 203:quantum/keymap_common.c **** 	return pgm_read_word(&fn_actions[function_id]);
 121               		.loc 1 203 2 view .LVU18
 122               	.LBB3:
 123               		.loc 1 203 9 view .LVU19
 124 0000 FC01      		movw r30,r24
 125 0002 EE0F      		lsl r30
 126 0004 FF1F      		rol r31
 127               	.LVL9:
 128               		.loc 1 203 9 is_stmt 0 view .LVU20
 129 0006 E050      		subi r30,lo8(-(fn_actions))
 130 0008 F040      		sbci r31,hi8(-(fn_actions))
 131               	.LVL10:
 132               		.loc 1 203 9 is_stmt 1 view .LVU21
 133               		.loc 1 203 9 view .LVU22
 134               	/* #APP */
 135               	 ;  203 "quantum/keymap_common.c" 1
 136 000a 8591      		lpm r24, Z+
 137 000c 9491      		lpm r25, Z
 138               		
 139               	 ;  0 "" 2
 140               	.LVL11:
 141               		.loc 1 203 9 view .LVU23
 142               	/* #NOAPP */
 143               	/* epilogue start */
 144               	.LBE3:
 204:quantum/keymap_common.c ****     #pragma GCC diagnostic pop
 205:quantum/keymap_common.c **** }
 145               		.loc 1 205 1 is_stmt 0 view .LVU24
 146 000e 0895      		ret
 147               		.cfi_endproc
 148               	.LFE22:
 150               		.section	.text.action_for_key,"ax",@progbits
 151               	.global	action_for_key
 153               	action_for_key:
 154               	.LVL12:
 155               	.LFB18:
  42:quantum/keymap_common.c ****     // 16bit keycodes - important
 156               		.loc 1 42 1 is_stmt 1 view -0
 157               		.cfi_startproc
  42:quantum/keymap_common.c ****     // 16bit keycodes - important
 158               		.loc 1 42 1 is_stmt 0 view .LVU26
 159 0000 CF93      		push r28
 160               	.LCFI0:
 161               		.cfi_def_cfa_offset 3
 162               		.cfi_offset 28, -2
 163 0002 DF93      		push r29
 164               	.LCFI1:
 165               		.cfi_def_cfa_offset 4
 166               		.cfi_offset 29, -3
 167               	/* prologue: function */
 168               	/* frame size = 0 */
 169               	/* stack size = 2 */
 170               	.L__stack_usage = 2
  44:quantum/keymap_common.c **** 
 171               		.loc 1 44 5 is_stmt 1 view .LVU27
  44:quantum/keymap_common.c **** 
 172               		.loc 1 44 24 is_stmt 0 view .LVU28
 173 0004 0E94 0000 		call keymap_key_to_keycode
 174               	.LVL13:
  47:quantum/keymap_common.c **** 
 175               		.loc 1 47 5 is_stmt 1 view .LVU29
  47:quantum/keymap_common.c **** 
 176               		.loc 1 47 15 is_stmt 0 view .LVU30
 177 0008 0E94 0000 		call keycode_config
 178               	.LVL14:
  47:quantum/keymap_common.c **** 
 179               		.loc 1 47 15 view .LVU31
 180 000c EC01      		movw r28,r24
 181               	.LVL15:
  49:quantum/keymap_common.c ****     uint8_t action_layer, when, mod;
 182               		.loc 1 49 5 is_stmt 1 view .LVU32
  50:quantum/keymap_common.c **** 
 183               		.loc 1 50 5 view .LVU33
  52:quantum/keymap_common.c ****         case KC_FN0 ... KC_FN31:
 184               		.loc 1 52 5 view .LVU34
 185 000e 8115      		cp r24,__zero_reg__
 186 0010 20E5      		ldi r18,80
 187 0012 9207      		cpc r25,r18
 188 0014 00F0      		brlo .+2
 189 0016 00C0      		rjmp .L6
 190 0018 8115      		cp r24,__zero_reg__
 191 001a 30E4      		ldi r19,64
 192 001c 9307      		cpc r25,r19
 193 001e 00F0      		brlo .+2
 194 0020 00C0      		rjmp .L7
 195 0022 883E      		cpi r24,-24
 196 0024 9105      		cpc r25,__zero_reg__
 197 0026 00F4      		brsh .L8
 198 0028 803E      		cpi r24,-32
 199 002a 9105      		cpc r25,__zero_reg__
 200 002c 00F0      		brlo .+2
 201 002e 00C0      		rjmp .L9
 202 0030 883A      		cpi r24,-88
 203 0032 9105      		cpc r25,__zero_reg__
 204 0034 00F4      		brsh .L10
 205 0036 853A      		cpi r24,-91
 206 0038 9105      		cpc r25,__zero_reg__
 207 003a 00F0      		brlo .+2
 208 003c 00C0      		rjmp .L11
 209 003e 8130      		cpi r24,1
 210 0040 9105      		cpc r25,__zero_reg__
 211 0042 01F4      		brne .+2
 212 0044 00C0      		rjmp .L9
 213 0046 0097      		sbiw r24,0
 214 0048 01F4      		brne .+2
 215 004a 00C0      		rjmp .L9
 216 004c 0497      		sbiw r24,4
 217 004e 00F0      		brlo .+2
 218 0050 00C0      		rjmp .L9
 219               	.LVL16:
 220               	.L36:
 161:quantum/keymap_common.c ****             break;
 221               		.loc 1 161 25 is_stmt 0 view .LVU35
 222 0052 D0E0      		ldi r29,0
 223 0054 C0E0      		ldi r28,0
 224 0056 00C0      		rjmp .L9
 225               	.LVL17:
 226               	.L10:
  52:quantum/keymap_common.c ****         case KC_FN0 ... KC_FN31:
 227               		.loc 1 52 5 view .LVU36
 228 0058 8D3B      		cpi r24,-67
 229 005a 9105      		cpc r25,__zero_reg__
 230 005c 00F4      		brsh .+2
 231 005e 00C0      		rjmp .L12
  54:quantum/keymap_common.c ****             break;
 232               		.loc 1 54 27 view .LVU37
 233 0060 805C      		subi r24,-64
 234 0062 9109      		sbc r25,__zero_reg__
 235               	.LVL18:
  52:quantum/keymap_common.c ****         case KC_FN0 ... KC_FN31:
 236               		.loc 1 52 5 view .LVU38
 237 0064 C03C      		cpi r28,-64
 238 0066 D105      		cpc r29,__zero_reg__
 239 0068 00F0      		brlo .L36
 240               	.L75:
  80:quantum/keymap_common.c ****             break;
 241               		.loc 1 80 27 view .LVU39
 242 006a 0E94 0000 		call keymap_function_id_to_action
 243               	.LVL19:
  80:quantum/keymap_common.c ****             break;
 244               		.loc 1 80 27 view .LVU40
 245 006e EC01      		movw r28,r24
 246               	.LVL20:
  81:quantum/keymap_common.c ****         case QK_MACRO ... QK_MACRO_MAX:
 247               		.loc 1 81 13 is_stmt 1 view .LVU41
 248 0070 00C0      		rjmp .L9
 249               	.LVL21:
 250               	.L8:
  52:quantum/keymap_common.c ****         case KC_FN0 ... KC_FN31:
 251               		.loc 1 52 5 is_stmt 0 view .LVU42
 252 0072 8115      		cp r24,__zero_reg__
 253 0074 9042      		sbci r25,32
 254 0076 00F4      		brsh .L14
 255 0078 C115      		cp r28,__zero_reg__
 256 007a 81E0      		ldi r24,1
 257 007c D807      		cpc r29,r24
 258               	.LVL22:
  52:quantum/keymap_common.c ****         case KC_FN0 ... KC_FN31:
 259               		.loc 1 52 5 view .LVU43
 260 007e 00F0      		brlo .+2
 261 0080 00C0      		rjmp .L9
 262 0082 C03F      		cpi r28,-16
 263 0084 D105      		cpc r29,__zero_reg__
 264 0086 00F0      		brlo .L36
  67:quantum/keymap_common.c ****             break;
 265               		.loc 1 67 13 is_stmt 1 view .LVU44
 266               	.LVL23:
  67:quantum/keymap_common.c ****             break;
 267               		.loc 1 67 27 is_stmt 0 view .LVU45
 268 0088 D065      		ori r29,80
 269               	.LVL24:
  68:quantum/keymap_common.c ****         case KC_TRNS:
 270               		.loc 1 68 13 is_stmt 1 view .LVU46
 271 008a 00C0      		rjmp .L9
 272               	.LVL25:
 273               	.L14:
  52:quantum/keymap_common.c ****         case KC_FN0 ... KC_FN31:
 274               		.loc 1 52 5 is_stmt 0 view .LVU47
 275 008c C115      		cp r28,__zero_reg__
 276 008e 90E3      		ldi r25,48
 277 0090 D907      		cpc r29,r25
 278 0092 00F0      		brlo .+2
 279 0094 00C0      		rjmp .L67
  77:quantum/keymap_common.c ****             // Is a shortcut for function action_layer, pull last 12bits
 280               		.loc 1 77 47 is_stmt 1 view .LVU48
  80:quantum/keymap_common.c ****             break;
 281               		.loc 1 80 13 view .LVU49
  80:quantum/keymap_common.c ****             break;
 282               		.loc 1 80 27 is_stmt 0 view .LVU50
 283 0096 CE01      		movw r24,r28
 284               	.LVL26:
  80:quantum/keymap_common.c ****             break;
 285               		.loc 1 80 27 view .LVU51
 286 0098 9F70      		andi r25,15
 287 009a 00C0      		rjmp .L75
 288               	.LVL27:
 289               	.L6:
  52:quantum/keymap_common.c ****         case KC_FN0 ... KC_FN31:
 290               		.loc 1 52 5 view .LVU52
 291 009c 8115      		cp r24,__zero_reg__
 292 009e 25E5      		ldi r18,85
 293 00a0 9207      		cpc r25,r18
 294 00a2 00F4      		brsh .L18
 295 00a4 8115      		cp r24,__zero_reg__
 296 00a6 34E5      		ldi r19,84
 297 00a8 9307      		cpc r25,r19
 298 00aa 00F0      		brlo .+2
 299 00ac 00C0      		rjmp .L19
 300 00ae 8115      		cp r24,__zero_reg__
 301 00b0 42E5      		ldi r20,82
 302 00b2 9407      		cpc r25,r20
 303 00b4 00F4      		brsh .L20
 304 00b6 C115      		cp r28,__zero_reg__
 305 00b8 81E5      		ldi r24,81
 306 00ba D807      		cpc r29,r24
 307               	.LVL28:
  52:quantum/keymap_common.c ****         case KC_FN0 ... KC_FN31:
 308               		.loc 1 52 5 view .LVU53
 309 00bc 00F4      		brsh .+2
 310 00be 00C0      		rjmp .L68
  97:quantum/keymap_common.c ****             // Momentary action_layer
 311               		.loc 1 97 49 is_stmt 1 view .LVU54
  99:quantum/keymap_common.c ****             action.code = ACTION_LAYER_MOMENTARY(action_layer);
 312               		.loc 1 99 13 view .LVU55
 313               	.LVL29:
 100:quantum/keymap_common.c ****             break;
 314               		.loc 1 100 13 view .LVU56
 100:quantum/keymap_common.c ****             break;
 315               		.loc 1 100 27 is_stmt 0 view .LVU57
 316 00c0 DC2F      		mov r29,r28
 317 00c2 CC27      		clr r28
 318               	.LVL30:
 100:quantum/keymap_common.c ****             break;
 319               		.loc 1 100 27 view .LVU58
 320 00c4 C16F      		ori r28,241
 321 00c6 D06A      		ori r29,160
 322               	.LVL31:
 101:quantum/keymap_common.c ****         case QK_DEF_LAYER ... QK_DEF_LAYER_MAX: ;
 323               		.loc 1 101 13 is_stmt 1 view .LVU59
 324 00c8 00C0      		rjmp .L9
 325               	.LVL32:
 326               	.L20:
 101:quantum/keymap_common.c ****         case QK_DEF_LAYER ... QK_DEF_LAYER_MAX: ;
 327               		.loc 1 101 13 is_stmt 0 view .LVU60
 328 00ca 982F      		mov r25,r24
 329 00cc 9695      		lsr r25
 330 00ce 9695      		lsr r25
 331 00d0 9E01      		movw r18,r28
 332 00d2 2370      		andi r18,3
 333 00d4 3327      		clr r19
  52:quantum/keymap_common.c ****         case KC_FN0 ... KC_FN31:
 334               		.loc 1 52 5 view .LVU61
 335 00d6 C115      		cp r28,__zero_reg__
 336 00d8 D345      		sbci r29,83
 337 00da 00F0      		brlo .+2
 338 00dc 00C0      		rjmp .L69
 102:quantum/keymap_common.c ****             // Set default action_layer
 339               		.loc 1 102 49 is_stmt 1 view .LVU62
 104:quantum/keymap_common.c ****             action.code = ACTION_DEFAULT_LAYER_SET(action_layer);
 340               		.loc 1 104 13 view .LVU63
 341               	.LVL33:
 105:quantum/keymap_common.c ****             break;
 342               		.loc 1 105 13 view .LVU64
 105:quantum/keymap_common.c ****             break;
 343               		.loc 1 105 27 is_stmt 0 view .LVU65
 344 00de C1E0      		ldi r28,lo8(1)
 345 00e0 D0E0      		ldi r29,0
 346 00e2 00C0      		rjmp 2f
 347               		1:
 348 00e4 CC0F      		lsl r28
 349 00e6 DD1F      		rol r29
 350               		2:
 351 00e8 2A95      		dec r18
 352 00ea 02F4      		brpl 1b
 353 00ec 20E2      		ldi r18,lo8(32)
 354 00ee 929F      		mul r25,r18
 355 00f0 C001      		movw r24,r0
 356 00f2 1124      		clr __zero_reg__
 357               	.LVL34:
 105:quantum/keymap_common.c ****             break;
 358               		.loc 1 105 27 view .LVU66
 359 00f4 C82B      		or r28,r24
 360 00f6 D92B      		or r29,r25
 361 00f8 00C0      		rjmp .L73
 362               	.LVL35:
 363               	.L18:
  52:quantum/keymap_common.c ****         case KC_FN0 ... KC_FN31:
 364               		.loc 1 52 5 view .LVU67
 365 00fa C115      		cp r28,__zero_reg__
 366 00fc 89E5      		ldi r24,89
 367 00fe D807      		cpc r29,r24
 368               	.LVL36:
  52:quantum/keymap_common.c ****         case KC_FN0 ... KC_FN31:
 369               		.loc 1 52 5 view .LVU68
 370 0100 00F4      		brsh .L25
 371 0102 C115      		cp r28,__zero_reg__
 372 0104 98E5      		ldi r25,88
 373 0106 D907      		cpc r29,r25
 374 0108 00F0      		brlo .+2
 375 010a 00C0      		rjmp .L26
 376 010c C115      		cp r28,__zero_reg__
 377 010e 26E5      		ldi r18,86
 378 0110 D207      		cpc r29,r18
 379 0112 00F0      		brlo .+2
 380 0114 00C0      		rjmp .L36
 117:quantum/keymap_common.c ****             // OSM(mod) - One-shot mod
 381               		.loc 1 117 55 is_stmt 1 view .LVU69
 119:quantum/keymap_common.c ****             action.code = ACTION_MODS_ONESHOT(mod);
 382               		.loc 1 119 13 view .LVU70
 383               	.LVL37:
 120:quantum/keymap_common.c ****             break;
 384               		.loc 1 120 13 view .LVU71
 120:quantum/keymap_common.c ****             break;
 385               		.loc 1 120 27 is_stmt 0 view .LVU72
 386 0116 DC2F      		mov r29,r28
 387 0118 CC27      		clr r28
 388               	.LVL38:
 120:quantum/keymap_common.c ****             break;
 389               		.loc 1 120 27 view .LVU73
 390 011a CC27      		clr r28
 391 011c DF71      		andi r29,31
 392               	.LVL39:
 393               	.L74:
 132:quantum/keymap_common.c ****             break;
 394               		.loc 1 132 27 view .LVU74
 395 011e D062      		ori r29,32
 396               	.LVL40:
 133:quantum/keymap_common.c ****     #ifdef BACKLIGHT_ENABLE
 397               		.loc 1 133 13 is_stmt 1 view .LVU75
 398 0120 00C0      		rjmp .L9
 399               	.LVL41:
 400               	.L25:
  52:quantum/keymap_common.c ****         case KC_FN0 ... KC_FN31:
 401               		.loc 1 52 5 is_stmt 0 view .LVU76
 402 0122 CE01      		movw r24,r28
 403 0124 C115      		cp r28,__zero_reg__
 404 0126 3AE5      		ldi r19,90
 405 0128 D307      		cpc r29,r19
 406 012a 00F4      		brsh .+2
 407 012c 00C0      		rjmp .L28
 408               	.LVL42:
  52:quantum/keymap_common.c ****         case KC_FN0 ... KC_FN31:
 409               		.loc 1 52 5 view .LVU77
 410 012e 9056      		subi r25,96
 411               	.LVL43:
  52:quantum/keymap_common.c ****         case KC_FN0 ... KC_FN31:
 412               		.loc 1 52 5 view .LVU78
 413 0130 8115      		cp r24,__zero_reg__
 414 0132 9042      		sbci r25,32
 415 0134 00F0      		brlo .+2
 416 0136 00C0      		rjmp .L36
 131:quantum/keymap_common.c ****             action.code = ACTION_MODS_TAP_KEY(mod, keycode & 0xFF);
 417               		.loc 1 131 13 is_stmt 1 view .LVU79
 131:quantum/keymap_common.c ****             action.code = ACTION_MODS_TAP_KEY(mod, keycode & 0xFF);
 418               		.loc 1 131 19 is_stmt 0 view .LVU80
 419 0138 8D2F      		mov r24,r29
 420 013a 8F71      		andi r24,lo8(31)
 421 013c 0E94 0000 		call mod_config
 422               	.LVL44:
 132:quantum/keymap_common.c ****             break;
 423               		.loc 1 132 13 is_stmt 1 view .LVU81
 132:quantum/keymap_common.c ****             break;
 424               		.loc 1 132 27 is_stmt 0 view .LVU82
 425 0140 90E0      		ldi r25,0
 426 0142 982F      		mov r25,r24
 427 0144 8827      		clr r24
 428               	.LVL45:
 132:quantum/keymap_common.c ****             break;
 429               		.loc 1 132 27 view .LVU83
 430 0146 8827      		clr r24
 431 0148 9F71      		andi r25,31
 432 014a 9C01      		movw r18,r24
 433 014c 2C2B      		or r18,r28
 434 014e E901      		movw r28,r18
 435               	.LVL46:
 132:quantum/keymap_common.c ****             break;
 436               		.loc 1 132 27 view .LVU84
 437 0150 00C0      		rjmp .L74
 438               	.LVL47:
 439               	.L11:
  61:quantum/keymap_common.c ****             break;
 440               		.loc 1 61 13 is_stmt 1 view .LVU85
  61:quantum/keymap_common.c ****             break;
 441               		.loc 1 61 27 is_stmt 0 view .LVU86
 442 0152 853A      		cpi r24,-91
 443 0154 9105      		cpc r25,__zero_reg__
 444 0156 01F4      		brne .+2
 445 0158 00C0      		rjmp .L37
  61:quantum/keymap_common.c ****             break;
 446               		.loc 1 61 27 discriminator 1 view .LVU87
 447 015a 863A      		cpi r24,-90
 448 015c 9105      		cpc r25,__zero_reg__
 449 015e 01F0      		breq .+2
 450 0160 00C0      		rjmp .L38
 451               	.LVL48:
  61:quantum/keymap_common.c ****             break;
 452               		.loc 1 61 27 view .LVU88
 453 0162 C2E8      		ldi r28,lo8(-126)
 454 0164 D0E4      		ldi r29,lo8(64)
 455               	.LVL49:
 456               	.L9:
 164:quantum/keymap_common.c **** }
 457               		.loc 1 164 5 is_stmt 1 view .LVU89
 165:quantum/keymap_common.c **** 
 458               		.loc 1 165 1 is_stmt 0 view .LVU90
 459 0166 CE01      		movw r24,r28
 460               	/* epilogue start */
 461 0168 DF91      		pop r29
 462 016a CF91      		pop r28
 463 016c 0895      		ret
 464               	.LVL50:
 465               	.L12:
  64:quantum/keymap_common.c ****             break;
 466               		.loc 1 64 13 is_stmt 1 view .LVU91
  64:quantum/keymap_common.c ****             break;
 467               		.loc 1 64 27 is_stmt 0 view .LVU92
 468 016e 883A      		cpi r24,-88
 469 0170 9105      		cpc r25,__zero_reg__
 470 0172 01F4      		brne .+2
 471 0174 00C0      		rjmp .L39
  64:quantum/keymap_common.c ****             break;
 472               		.loc 1 64 27 discriminator 1 view .LVU93
 473 0176 893A      		cpi r24,-87
 474 0178 9105      		cpc r25,__zero_reg__
 475 017a 01F4      		brne .+2
 476 017c 00C0      		rjmp .L40
  64:quantum/keymap_common.c ****             break;
 477               		.loc 1 64 27 discriminator 3 view .LVU94
 478 017e 8A3A      		cpi r24,-86
 479 0180 9105      		cpc r25,__zero_reg__
 480 0182 01F4      		brne .+2
 481 0184 00C0      		rjmp .L41
  64:quantum/keymap_common.c ****             break;
 482               		.loc 1 64 27 discriminator 5 view .LVU95
 483 0186 8B3A      		cpi r24,-85
 484 0188 9105      		cpc r25,__zero_reg__
 485 018a 01F4      		brne .+2
 486 018c 00C0      		rjmp .L42
  64:quantum/keymap_common.c ****             break;
 487               		.loc 1 64 27 discriminator 7 view .LVU96
 488 018e 8C3A      		cpi r24,-84
 489 0190 9105      		cpc r25,__zero_reg__
 490 0192 01F4      		brne .+2
 491 0194 00C0      		rjmp .L43
  64:quantum/keymap_common.c ****             break;
 492               		.loc 1 64 27 discriminator 9 view .LVU97
 493 0196 8B3B      		cpi r24,-69
 494 0198 9105      		cpc r25,__zero_reg__
 495 019a 01F4      		brne .+2
 496 019c 00C0      		rjmp .L44
  64:quantum/keymap_common.c ****             break;
 497               		.loc 1 64 27 discriminator 11 view .LVU98
 498 019e 8C3B      		cpi r24,-68
 499 01a0 9105      		cpc r25,__zero_reg__
 500 01a2 01F4      		brne .+2
 501 01a4 00C0      		rjmp .L45
  64:quantum/keymap_common.c ****             break;
 502               		.loc 1 64 27 discriminator 13 view .LVU99
 503 01a6 8D3A      		cpi r24,-83
 504 01a8 9105      		cpc r25,__zero_reg__
 505 01aa 01F4      		brne .+2
 506 01ac 00C0      		rjmp .L46
  64:quantum/keymap_common.c ****             break;
 507               		.loc 1 64 27 discriminator 15 view .LVU100
 508 01ae 803B      		cpi r24,-80
 509 01b0 9105      		cpc r25,__zero_reg__
 510 01b2 01F4      		brne .+2
 511 01b4 00C0      		rjmp .L47
  64:quantum/keymap_common.c ****             break;
 512               		.loc 1 64 27 discriminator 17 view .LVU101
 513 01b6 8E3A      		cpi r24,-82
 514 01b8 9105      		cpc r25,__zero_reg__
 515 01ba 01F4      		brne .+2
 516 01bc 00C0      		rjmp .L48
  64:quantum/keymap_common.c ****             break;
 517               		.loc 1 64 27 discriminator 19 view .LVU102
 518 01be 8F3A      		cpi r24,-81
 519 01c0 9105      		cpc r25,__zero_reg__
 520 01c2 01F4      		brne .+2
 521 01c4 00C0      		rjmp .L49
  64:quantum/keymap_common.c ****             break;
 522               		.loc 1 64 27 discriminator 21 view .LVU103
 523 01c6 813B      		cpi r24,-79
 524 01c8 9105      		cpc r25,__zero_reg__
 525 01ca 01F4      		brne .+2
 526 01cc 00C0      		rjmp .L50
  64:quantum/keymap_common.c ****             break;
 527               		.loc 1 64 27 discriminator 23 view .LVU104
 528 01ce 823B      		cpi r24,-78
 529 01d0 9105      		cpc r25,__zero_reg__
 530 01d2 01F4      		brne .+2
 531 01d4 00C0      		rjmp .L51
  64:quantum/keymap_common.c ****             break;
 532               		.loc 1 64 27 discriminator 25 view .LVU105
 533 01d6 833B      		cpi r24,-77
 534 01d8 9105      		cpc r25,__zero_reg__
 535 01da 01F4      		brne .+2
 536 01dc 00C0      		rjmp .L52
  64:quantum/keymap_common.c ****             break;
 537               		.loc 1 64 27 discriminator 27 view .LVU106
 538 01de 843B      		cpi r24,-76
 539 01e0 9105      		cpc r25,__zero_reg__
 540 01e2 01F4      		brne .+2
 541 01e4 00C0      		rjmp .L53
  64:quantum/keymap_common.c ****             break;
 542               		.loc 1 64 27 discriminator 29 view .LVU107
 543 01e6 853B      		cpi r24,-75
 544 01e8 9105      		cpc r25,__zero_reg__
 545 01ea 01F4      		brne .+2
 546 01ec 00C0      		rjmp .L54
  64:quantum/keymap_common.c ****             break;
 547               		.loc 1 64 27 discriminator 31 view .LVU108
 548 01ee 863B      		cpi r24,-74
 549 01f0 9105      		cpc r25,__zero_reg__
 550 01f2 01F4      		brne .+2
 551 01f4 00C0      		rjmp .L55
  64:quantum/keymap_common.c ****             break;
 552               		.loc 1 64 27 discriminator 33 view .LVU109
 553 01f6 873B      		cpi r24,-73
 554 01f8 9105      		cpc r25,__zero_reg__
 555 01fa 01F4      		brne .+2
 556 01fc 00C0      		rjmp .L56
  64:quantum/keymap_common.c ****             break;
 557               		.loc 1 64 27 discriminator 35 view .LVU110
 558 01fe 883B      		cpi r24,-72
 559 0200 9105      		cpc r25,__zero_reg__
 560 0202 01F4      		brne .+2
 561 0204 00C0      		rjmp .L57
  64:quantum/keymap_common.c ****             break;
 562               		.loc 1 64 27 discriminator 37 view .LVU111
 563 0206 893B      		cpi r24,-71
 564 0208 9105      		cpc r25,__zero_reg__
 565 020a 01F4      		brne .+2
 566 020c 00C0      		rjmp .L58
  64:quantum/keymap_common.c ****             break;
 567               		.loc 1 64 27 discriminator 39 view .LVU112
 568 020e 8A3B      		cpi r24,-70
 569 0210 9105      		cpc r25,__zero_reg__
 570 0212 01F4      		brne .+2
 571 0214 00C0      		rjmp .L59
 572               	.LVL51:
  64:quantum/keymap_common.c ****             break;
 573               		.loc 1 64 27 view .LVU113
 574 0216 C0E0      		ldi r28,0
 575 0218 D4E4      		ldi r29,lo8(68)
 576 021a 00C0      		rjmp .L9
 577               	.LVL52:
 578               	.L67:
  83:quantum/keymap_common.c ****                 action.code = ACTION_MACRO_TAP(keycode & 0xFF);
 579               		.loc 1 83 13 is_stmt 1 view .LVU114
 580 021c CE01      		movw r24,r28
 581               	.LVL53:
  83:quantum/keymap_common.c ****                 action.code = ACTION_MACRO_TAP(keycode & 0xFF);
 582               		.loc 1 83 13 is_stmt 0 view .LVU115
 583 021e 9927      		clr r25
  83:quantum/keymap_common.c ****                 action.code = ACTION_MACRO_TAP(keycode & 0xFF);
 584               		.loc 1 83 16 view .LVU116
 585 0220 D3FF      		sbrs r29,3
 586 0222 00C0      		rjmp .L30
  84:quantum/keymap_common.c ****             else
 587               		.loc 1 84 17 is_stmt 1 view .LVU117
 588               	.LVL54:
  84:quantum/keymap_common.c ****             else
 589               		.loc 1 84 31 is_stmt 0 view .LVU118
 590 0224 EC01      		movw r28,r24
 591 0226 D86C      		ori r29,200
 592               	.LVL55:
  84:quantum/keymap_common.c ****             else
 593               		.loc 1 84 31 view .LVU119
 594 0228 00C0      		rjmp .L9
 595               	.LVL56:
 596               	.L30:
  86:quantum/keymap_common.c ****             break;
 597               		.loc 1 86 17 is_stmt 1 view .LVU120
  86:quantum/keymap_common.c ****             break;
 598               		.loc 1 86 31 is_stmt 0 view .LVU121
 599 022a EC01      		movw r28,r24
 600 022c D06C      		ori r29,192
 601               	.LVL57:
  86:quantum/keymap_common.c ****             break;
 602               		.loc 1 86 31 view .LVU122
 603 022e 00C0      		rjmp .L9
 604               	.LVL58:
 605               	.L7:
  89:quantum/keymap_common.c ****             break;
 606               		.loc 1 89 13 is_stmt 1 view .LVU123
  89:quantum/keymap_common.c ****             break;
 607               		.loc 1 89 27 is_stmt 0 view .LVU124
 608 0230 DF70      		andi r29,15
 609               	.LVL59:
 610               	.L72:
 128:quantum/keymap_common.c ****             break;
 611               		.loc 1 128 27 view .LVU125
 612 0232 D06A      		ori r29,160
 613               	.LVL60:
 129:quantum/keymap_common.c ****         case QK_MOD_TAP ... QK_MOD_TAP_MAX:
 614               		.loc 1 129 13 is_stmt 1 view .LVU126
 615 0234 00C0      		rjmp .L9
 616               	.LVL61:
 617               	.L68:
  91:quantum/keymap_common.c ****             // Layer set "GOTO"
 618               		.loc 1 91 35 view .LVU127
  93:quantum/keymap_common.c ****             action_layer = keycode & 0xF;
 619               		.loc 1 93 13 view .LVU128
  94:quantum/keymap_common.c ****             action.code = ACTION_LAYER_SET(action_layer, when);
 620               		.loc 1 94 13 view .LVU129
  95:quantum/keymap_common.c ****             break;
 621               		.loc 1 95 13 view .LVU130
  93:quantum/keymap_common.c ****             action_layer = keycode & 0xF;
 622               		.loc 1 93 29 is_stmt 0 view .LVU131
 623 0236 CE01      		movw r24,r28
 624 0238 E4E0      		ldi r30,4
 625               		1:
 626 023a 9695      		lsr r25
 627 023c 8795      		ror r24
 628 023e EA95      		dec r30
 629 0240 01F4      		brne 1b
  93:quantum/keymap_common.c ****             action_layer = keycode & 0xF;
 630               		.loc 1 93 18 view .LVU132
 631 0242 8370      		andi r24,lo8(3)
  95:quantum/keymap_common.c ****             break;
 632               		.loc 1 95 27 view .LVU133
 633 0244 2C2F      		mov r18,r28
 634 0246 2695      		lsr r18
 635 0248 2695      		lsr r18
 636 024a 2370      		andi r18,lo8(3)
 637 024c 90E2      		ldi r25,lo8(32)
 638 024e 299F      		mul r18,r25
 639 0250 9001      		movw r18,r0
 640 0252 1124      		clr __zero_reg__
 641 0254 382B      		or r19,r24
 642 0256 8C2F      		mov r24,r28
 643 0258 8370      		andi r24,lo8(3)
 644 025a C1E0      		ldi r28,lo8(1)
 645 025c D0E0      		ldi r29,0
 646               	.LVL62:
  95:quantum/keymap_common.c ****             break;
 647               		.loc 1 95 27 view .LVU134
 648 025e 00C0      		rjmp 2f
 649               		1:
 650 0260 CC0F      		lsl r28
 651 0262 DD1F      		rol r29
 652               		2:
 653 0264 8A95      		dec r24
 654 0266 02F4      		brpl 1b
 655 0268 C22B      		or r28,r18
 656 026a D32B      		or r29,r19
 657               	.LVL63:
 658               	.L73:
 105:quantum/keymap_common.c ****             break;
 659               		.loc 1 105 27 view .LVU135
 660 026c DC68      		ori r29,140
 661               	.LVL64:
 106:quantum/keymap_common.c ****         case QK_TOGGLE_LAYER ... QK_TOGGLE_LAYER_MAX: ;
 662               		.loc 1 106 13 is_stmt 1 view .LVU136
 663 026e 00C0      		rjmp .L9
 664               	.LVL65:
 665               	.L69:
 107:quantum/keymap_common.c ****             // Set toggle
 666               		.loc 1 107 55 view .LVU137
 109:quantum/keymap_common.c ****             action.code = ACTION_LAYER_TOGGLE(action_layer);
 667               		.loc 1 109 13 view .LVU138
 110:quantum/keymap_common.c ****             break;
 668               		.loc 1 110 13 view .LVU139
 110:quantum/keymap_common.c ****             break;
 669               		.loc 1 110 27 is_stmt 0 view .LVU140
 670 0270 C1E0      		ldi r28,lo8(1)
 671 0272 D0E0      		ldi r29,0
 672 0274 00C0      		rjmp 2f
 673               		1:
 674 0276 CC0F      		lsl r28
 675 0278 DD1F      		rol r29
 676               		2:
 677 027a 2A95      		dec r18
 678 027c 02F4      		brpl 1b
 679 027e 30E2      		ldi r19,lo8(32)
 680 0280 939F      		mul r25,r19
 681 0282 C001      		movw r24,r0
 682 0284 1124      		clr __zero_reg__
 683               	.LVL66:
 110:quantum/keymap_common.c ****             break;
 684               		.loc 1 110 27 view .LVU141
 685 0286 C82B      		or r28,r24
 686 0288 D92B      		or r29,r25
 687               	.LVL67:
 110:quantum/keymap_common.c ****             break;
 688               		.loc 1 110 27 view .LVU142
 689 028a DA68      		ori r29,138
 690               	.LVL68:
 111:quantum/keymap_common.c ****         case QK_ONE_SHOT_LAYER ... QK_ONE_SHOT_LAYER_MAX: ;
 691               		.loc 1 111 13 is_stmt 1 view .LVU143
 692 028c 00C0      		rjmp .L9
 693               	.LVL69:
 694               	.L19:
 112:quantum/keymap_common.c ****             // OSL(action_layer) - One-shot action_layer
 695               		.loc 1 112 59 view .LVU144
 114:quantum/keymap_common.c ****             action.code = ACTION_LAYER_ONESHOT(action_layer);
 696               		.loc 1 114 13 view .LVU145
 115:quantum/keymap_common.c ****             break;
 697               		.loc 1 115 13 view .LVU146
 115:quantum/keymap_common.c ****             break;
 698               		.loc 1 115 27 is_stmt 0 view .LVU147
 699 028e D82F      		mov r29,r24
 700 0290 CC27      		clr r28
 701               	.LVL70:
 115:quantum/keymap_common.c ****             break;
 702               		.loc 1 115 27 view .LVU148
 703 0292 C46F      		ori r28,244
 704 0294 D06A      		ori r29,160
 705               	.LVL71:
 116:quantum/keymap_common.c ****         case QK_ONE_SHOT_MOD ... QK_ONE_SHOT_MOD_MAX: ;
 706               		.loc 1 116 13 is_stmt 1 view .LVU149
 707 0296 00C0      		rjmp .L9
 708               	.LVL72:
 709               	.L26:
 123:quantum/keymap_common.c ****             break;
 710               		.loc 1 123 13 view .LVU150
 123:quantum/keymap_common.c ****             break;
 711               		.loc 1 123 27 is_stmt 0 view .LVU151
 712 0298 DC2F      		mov r29,r28
 713 029a CC27      		clr r28
 714               	.LVL73:
 123:quantum/keymap_common.c ****             break;
 715               		.loc 1 123 27 view .LVU152
 716 029c C06F      		ori r28,240
 717 029e D06A      		ori r29,160
 718               	.LVL74:
 124:quantum/keymap_common.c ****         case QK_LAYER_MOD ... QK_LAYER_MOD_MAX:
 719               		.loc 1 124 13 is_stmt 1 view .LVU153
 720 02a0 00C0      		rjmp .L9
 721               	.LVL75:
 722               	.L28:
 126:quantum/keymap_common.c ****             action_layer = (keycode >> 4) & 0xF;
 723               		.loc 1 126 13 view .LVU154
 127:quantum/keymap_common.c ****             action.code = ACTION_LAYER_MODS(action_layer, mod);
 724               		.loc 1 127 13 view .LVU155
 128:quantum/keymap_common.c ****             break;
 725               		.loc 1 128 13 view .LVU156
 127:quantum/keymap_common.c ****             action.code = ACTION_LAYER_MODS(action_layer, mod);
 726               		.loc 1 127 37 is_stmt 0 view .LVU157
 727 02a2 34E0      		ldi r19,4
 728               		1:
 729 02a4 9695      		lsr r25
 730 02a6 8795      		ror r24
 731 02a8 3A95      		dec r19
 732 02aa 01F4      		brne 1b
 733               	.LVL76:
 127:quantum/keymap_common.c ****             action.code = ACTION_LAYER_MODS(action_layer, mod);
 734               		.loc 1 127 26 view .LVU158
 735 02ac 8F70      		andi r24,lo8(15)
 126:quantum/keymap_common.c ****             action_layer = (keycode >> 4) & 0xF;
 736               		.loc 1 126 17 view .LVU159
 737 02ae CF70      		andi r28,lo8(15)
 738               	.LVL77:
 128:quantum/keymap_common.c ****             break;
 739               		.loc 1 128 27 view .LVU160
 740 02b0 C06E      		ori r28,lo8(-32)
 741 02b2 D82F      		mov r29,r24
 742 02b4 00C0      		rjmp .L72
 743               	.LVL78:
 744               	.L37:
  61:quantum/keymap_common.c ****             break;
 745               		.loc 1 61 27 view .LVU161
 746 02b6 C1E8      		ldi r28,lo8(-127)
 747 02b8 D0E4      		ldi r29,lo8(64)
 748 02ba 00C0      		rjmp .L9
 749               	.LVL79:
 750               	.L38:
  61:quantum/keymap_common.c ****             break;
 751               		.loc 1 61 27 view .LVU162
 752 02bc C3E8      		ldi r28,lo8(-125)
 753 02be D0E4      		ldi r29,lo8(64)
 754 02c0 00C0      		rjmp .L9
 755               	.LVL80:
 756               	.L39:
  64:quantum/keymap_common.c ****             break;
 757               		.loc 1 64 27 view .LVU163
 758 02c2 C2EE      		ldi r28,lo8(-30)
 759 02c4 D4E4      		ldi r29,lo8(68)
 760 02c6 00C0      		rjmp .L9
 761               	.LVL81:
 762               	.L40:
  64:quantum/keymap_common.c ****             break;
 763               		.loc 1 64 27 view .LVU164
 764 02c8 C9EE      		ldi r28,lo8(-23)
 765 02ca D4E4      		ldi r29,lo8(68)
 766 02cc 00C0      		rjmp .L9
 767               	.LVL82:
 768               	.L41:
  64:quantum/keymap_common.c ****             break;
 769               		.loc 1 64 27 view .LVU165
 770 02ce CAEE      		ldi r28,lo8(-22)
 771 02d0 D4E4      		ldi r29,lo8(68)
 772 02d2 00C0      		rjmp .L9
 773               	.LVL83:
 774               	.L42:
  64:quantum/keymap_common.c ****             break;
 775               		.loc 1 64 27 view .LVU166
 776 02d4 C5EB      		ldi r28,lo8(-75)
 777 02d6 D4E4      		ldi r29,lo8(68)
 778 02d8 00C0      		rjmp .L9
 779               	.LVL84:
 780               	.L43:
  64:quantum/keymap_common.c ****             break;
 781               		.loc 1 64 27 view .LVU167
 782 02da C6EB      		ldi r28,lo8(-74)
 783 02dc D4E4      		ldi r29,lo8(68)
 784 02de 00C0      		rjmp .L9
 785               	.LVL85:
 786               	.L44:
  64:quantum/keymap_common.c ****             break;
 787               		.loc 1 64 27 view .LVU168
 788 02e0 C3EB      		ldi r28,lo8(-77)
 789 02e2 D4E4      		ldi r29,lo8(68)
 790 02e4 00C0      		rjmp .L9
 791               	.LVL86:
 792               	.L45:
  64:quantum/keymap_common.c ****             break;
 793               		.loc 1 64 27 view .LVU169
 794 02e6 C4EB      		ldi r28,lo8(-76)
 795 02e8 D4E4      		ldi r29,lo8(68)
 796 02ea 00C0      		rjmp .L9
 797               	.LVL87:
 798               	.L46:
  64:quantum/keymap_common.c ****             break;
 799               		.loc 1 64 27 view .LVU170
 800 02ec C7EB      		ldi r28,lo8(-73)
 801 02ee D4E4      		ldi r29,lo8(68)
 802 02f0 00C0      		rjmp .L9
 803               	.LVL88:
 804               	.L47:
  64:quantum/keymap_common.c ****             break;
 805               		.loc 1 64 27 view .LVU171
 806 02f2 CCEC      		ldi r28,lo8(-52)
 807 02f4 D4E4      		ldi r29,lo8(68)
 808 02f6 00C0      		rjmp .L9
 809               	.LVL89:
 810               	.L48:
  64:quantum/keymap_common.c ****             break;
 811               		.loc 1 64 27 view .LVU172
 812 02f8 CDEC      		ldi r28,lo8(-51)
 813 02fa D4E4      		ldi r29,lo8(68)
 814 02fc 00C0      		rjmp .L9
 815               	.LVL90:
 816               	.L49:
  64:quantum/keymap_common.c ****             break;
 817               		.loc 1 64 27 view .LVU173
 818 02fe C3E8      		ldi r28,lo8(-125)
 819 0300 D5E4      		ldi r29,lo8(69)
 820 0302 00C0      		rjmp .L9
 821               	.LVL91:
 822               	.L50:
  64:quantum/keymap_common.c ****             break;
 823               		.loc 1 64 27 view .LVU174
 824 0304 CAE8      		ldi r28,lo8(-118)
 825 0306 D5E4      		ldi r29,lo8(69)
 826 0308 00C0      		rjmp .L9
 827               	.LVL92:
 828               	.L51:
  64:quantum/keymap_common.c ****             break;
 829               		.loc 1 64 27 view .LVU175
 830 030a C2E9      		ldi r28,lo8(-110)
 831 030c D5E4      		ldi r29,lo8(69)
 832 030e 00C0      		rjmp .L9
 833               	.LVL93:
 834               	.L52:
  64:quantum/keymap_common.c ****             break;
 835               		.loc 1 64 27 view .LVU176
 836 0310 C4E9      		ldi r28,lo8(-108)
 837 0312 D5E4      		ldi r29,lo8(69)
 838 0314 00C0      		rjmp .L9
 839               	.LVL94:
 840               	.L53:
  64:quantum/keymap_common.c ****             break;
 841               		.loc 1 64 27 view .LVU177
 842 0316 C1E2      		ldi r28,lo8(33)
 843 0318 D6E4      		ldi r29,lo8(70)
 844 031a 00C0      		rjmp .L9
 845               	.LVL95:
 846               	.L54:
  64:quantum/keymap_common.c ****             break;
 847               		.loc 1 64 27 view .LVU178
 848 031c C3E2      		ldi r28,lo8(35)
 849 031e D6E4      		ldi r29,lo8(70)
 850 0320 00C0      		rjmp .L9
 851               	.LVL96:
 852               	.L55:
  64:quantum/keymap_common.c ****             break;
 853               		.loc 1 64 27 view .LVU179
 854 0322 C4E2      		ldi r28,lo8(36)
 855 0324 D6E4      		ldi r29,lo8(70)
 856 0326 00C0      		rjmp .L9
 857               	.LVL97:
 858               	.L56:
  64:quantum/keymap_common.c ****             break;
 859               		.loc 1 64 27 view .LVU180
 860 0328 C5E2      		ldi r28,lo8(37)
 861 032a D6E4      		ldi r29,lo8(70)
 862 032c 00C0      		rjmp .L9
 863               	.LVL98:
 864               	.L57:
  64:quantum/keymap_common.c ****             break;
 865               		.loc 1 64 27 view .LVU181
 866 032e C6E2      		ldi r28,lo8(38)
 867 0330 D6E4      		ldi r29,lo8(70)
 868 0332 00C0      		rjmp .L9
 869               	.LVL99:
 870               	.L58:
  64:quantum/keymap_common.c ****             break;
 871               		.loc 1 64 27 view .LVU182
 872 0334 C7E2      		ldi r28,lo8(39)
 873 0336 D6E4      		ldi r29,lo8(70)
 874 0338 00C0      		rjmp .L9
 875               	.LVL100:
 876               	.L59:
  64:quantum/keymap_common.c ****             break;
 877               		.loc 1 64 27 view .LVU183
 878 033a CAE2      		ldi r28,lo8(42)
 879 033c D6E4      		ldi r29,lo8(70)
 880 033e 00C0      		rjmp .L9
 881               		.cfi_endproc
 882               	.LFE18:
 884               		.weak	fn_actions
 885               		.section	.progmem.data.fn_actions,"a"
 888               	fn_actions:
 889               		.text
 890               	.Letext0:
 891               		.file 2 "/usr/local/Cellar/avr-gcc@8/8.3.0_1/avr/include/stdint.h"
 892               		.file 3 "./tmk_core/common/keyboard.h"
 893               		.file 4 "./tmk_core/common/keycode.h"
 894               		.file 5 "./tmk_core/common/action_code.h"
 895               		.file 6 "/usr/local/Cellar/avr-gcc@8/8.3.0_1/lib/avr-gcc/8/gcc/avr/8.3.0/include/stddef.h"
 896               		.file 7 "./tmk_core/common/action_macro.h"
 897               		.file 8 "./tmk_core/common/action.h"
 898               		.file 9 "./tmk_core/common/report.h"
 899               		.file 10 "./tmk_core/common/host.h"
 900               		.file 11 "./tmk_core/common/debug.h"
 901               		.file 12 "quantum/keycode_config.h"
 902               		.file 13 "quantum/quantum_keycodes.h"
 903               		.file 14 "quantum/keymap.h"
 904               		.file 15 "./tmk_core/common/action_layer.h"
 905               		.file 16 "/usr/local/Cellar/avr-gcc@8/8.3.0_1/avr/include/stdio.h"
 906               		.file 17 "./quantum/rgblight_types.h"
 907               		.file 18 "quantum/rgblight.h"
 908               		.file 19 "./tmk_core/common/timer.h"
 909               		.file 20 "./tmk_core/common/action_util.h"
 910               		.file 21 "/usr/local/Cellar/avr-gcc@8/8.3.0_1/avr/include/stdlib.h"
 911               		.file 22 "./quantum/process_keycode/process_tap_dance.h"
 912               		.file 23 "quantum/quantum.h"
DEFINED SYMBOLS
                            *ABS*:0000000000000000 keymap_common.c
/var/folders/3d/n9bt7hnj55x7z_fzmyrbdqym0000gp/T//ccBSkocg.s:2      *ABS*:000000000000003e __SP_H__
/var/folders/3d/n9bt7hnj55x7z_fzmyrbdqym0000gp/T//ccBSkocg.s:3      *ABS*:000000000000003d __SP_L__
/var/folders/3d/n9bt7hnj55x7z_fzmyrbdqym0000gp/T//ccBSkocg.s:4      *ABS*:000000000000003f __SREG__
/var/folders/3d/n9bt7hnj55x7z_fzmyrbdqym0000gp/T//ccBSkocg.s:5      *ABS*:0000000000000000 __tmp_reg__
/var/folders/3d/n9bt7hnj55x7z_fzmyrbdqym0000gp/T//ccBSkocg.s:6      *ABS*:0000000000000001 __zero_reg__
/var/folders/3d/n9bt7hnj55x7z_fzmyrbdqym0000gp/T//ccBSkocg.s:13     .text.action_get_macro:0000000000000000 action_get_macro
/var/folders/3d/n9bt7hnj55x7z_fzmyrbdqym0000gp/T//ccBSkocg.s:37     .text.action_function:0000000000000000 action_function
/var/folders/3d/n9bt7hnj55x7z_fzmyrbdqym0000gp/T//ccBSkocg.s:55     .text.keymap_key_to_keycode:0000000000000000 keymap_key_to_keycode
/var/folders/3d/n9bt7hnj55x7z_fzmyrbdqym0000gp/T//ccBSkocg.s:112    .text.keymap_function_id_to_action:0000000000000000 keymap_function_id_to_action
/var/folders/3d/n9bt7hnj55x7z_fzmyrbdqym0000gp/T//ccBSkocg.s:888    .progmem.data.fn_actions:0000000000000000 fn_actions
/var/folders/3d/n9bt7hnj55x7z_fzmyrbdqym0000gp/T//ccBSkocg.s:153    .text.action_for_key:0000000000000000 action_for_key

UNDEFINED SYMBOLS
keymaps
keycode_config
mod_config
