   1               		.file	"action_layer.c"
   2               	__SP_H__ = 0x3e
   3               	__SP_L__ = 0x3d
   4               	__SREG__ = 0x3f
   5               	__tmp_reg__ = 0
   6               	__zero_reg__ = 1
   7               		.text
   8               	.Ltext0:
   9               		.cfi_sections	.debug_frame
  10               		.section	.text.default_layer_state_set_kb,"ax",@progbits
  11               		.weak	default_layer_state_set_kb
  13               	default_layer_state_set_kb:
  14               	.LVL0:
  15               	.LFB4:
  16               		.file 1 "./tmk_core/common/action_layer.c"
   1:./tmk_core/common/action_layer.c **** #include <stdint.h>
   2:./tmk_core/common/action_layer.c **** #include "keyboard.h"
   3:./tmk_core/common/action_layer.c **** #include "action.h"
   4:./tmk_core/common/action_layer.c **** #include "util.h"
   5:./tmk_core/common/action_layer.c **** #include "action_layer.h"
   6:./tmk_core/common/action_layer.c **** 
   7:./tmk_core/common/action_layer.c **** #ifdef DEBUG_ACTION
   8:./tmk_core/common/action_layer.c **** #include "debug.h"
   9:./tmk_core/common/action_layer.c **** #else
  10:./tmk_core/common/action_layer.c **** #include "nodebug.h"
  11:./tmk_core/common/action_layer.c **** #endif
  12:./tmk_core/common/action_layer.c **** 
  13:./tmk_core/common/action_layer.c **** 
  14:./tmk_core/common/action_layer.c **** /** \brief Default Layer State
  15:./tmk_core/common/action_layer.c ****  */
  16:./tmk_core/common/action_layer.c **** uint32_t default_layer_state = 0;
  17:./tmk_core/common/action_layer.c **** 
  18:./tmk_core/common/action_layer.c **** /** \brief Default Layer State Set At Keyboard Level
  19:./tmk_core/common/action_layer.c ****  *
  20:./tmk_core/common/action_layer.c ****  * FIXME: Needs docs
  21:./tmk_core/common/action_layer.c ****  */
  22:./tmk_core/common/action_layer.c **** __attribute__((weak))
  23:./tmk_core/common/action_layer.c **** uint32_t default_layer_state_set_kb(uint32_t state) {
  17               		.loc 1 23 53 view -0
  18               		.cfi_startproc
  19               	/* prologue: function */
  20               	/* frame size = 0 */
  21               	/* stack size = 0 */
  22               	.L__stack_usage = 0
  24:./tmk_core/common/action_layer.c ****     return state;
  23               		.loc 1 24 5 view .LVU1
  24               	/* epilogue start */
  25:./tmk_core/common/action_layer.c **** }
  25               		.loc 1 25 1 is_stmt 0 view .LVU2
  26 0000 0895      		ret
  27               		.cfi_endproc
  28               	.LFE4:
  30               		.set	default_layer_state_set_kb.localalias.0,default_layer_state_set_kb
  31               		.section	.text.default_layer_state_set,"ax",@progbits
  33               	default_layer_state_set:
  34               	.LVL1:
  35               	.LFB5:
  26:./tmk_core/common/action_layer.c **** 
  27:./tmk_core/common/action_layer.c **** /** \brief Default Layer State Set
  28:./tmk_core/common/action_layer.c ****  *
  29:./tmk_core/common/action_layer.c ****  * FIXME: Needs docs
  30:./tmk_core/common/action_layer.c ****  */
  31:./tmk_core/common/action_layer.c **** static void default_layer_state_set(uint32_t state)
  32:./tmk_core/common/action_layer.c **** {
  36               		.loc 1 32 1 is_stmt 1 view -0
  37               		.cfi_startproc
  38               	/* prologue: function */
  39               	/* frame size = 0 */
  40               	/* stack size = 0 */
  41               	.L__stack_usage = 0
  33:./tmk_core/common/action_layer.c ****     state = default_layer_state_set_kb(state);
  42               		.loc 1 33 5 view .LVU4
  43               		.loc 1 33 13 is_stmt 0 view .LVU5
  44 0000 0E94 0000 		call default_layer_state_set_kb
  45               	.LVL2:
  34:./tmk_core/common/action_layer.c ****     debug("default_layer_state: ");
  46               		.loc 1 34 35 is_stmt 1 view .LVU6
  35:./tmk_core/common/action_layer.c ****     default_layer_debug(); debug(" to ");
  47               		.loc 1 35 5 view .LVU7
  48               		.loc 1 35 41 view .LVU8
  36:./tmk_core/common/action_layer.c ****     default_layer_state = state;
  49               		.loc 1 36 5 view .LVU9
  50               		.loc 1 36 25 is_stmt 0 view .LVU10
  51 0004 6093 0000 		sts default_layer_state,r22
  52 0008 7093 0000 		sts default_layer_state+1,r23
  53 000c 8093 0000 		sts default_layer_state+2,r24
  54 0010 9093 0000 		sts default_layer_state+3,r25
  37:./tmk_core/common/action_layer.c ****     default_layer_debug(); debug("\n");
  55               		.loc 1 37 5 is_stmt 1 view .LVU11
  56               		.loc 1 37 39 view .LVU12
  38:./tmk_core/common/action_layer.c ****     clear_keyboard_but_mods(); // To avoid stuck keys
  57               		.loc 1 38 5 view .LVU13
  58 0014 0C94 0000 		jmp clear_keyboard_but_mods
  59               	.LVL3:
  60               		.loc 1 38 5 is_stmt 0 view .LVU14
  61               		.cfi_endproc
  62               	.LFE5:
  64               		.section	.text.default_layer_debug,"ax",@progbits
  65               	.global	default_layer_debug
  67               	default_layer_debug:
  68               	.LFB6:
  39:./tmk_core/common/action_layer.c **** }
  40:./tmk_core/common/action_layer.c **** 
  41:./tmk_core/common/action_layer.c **** /** \brief Default Layer Print
  42:./tmk_core/common/action_layer.c ****  *
  43:./tmk_core/common/action_layer.c ****  * FIXME: Needs docs
  44:./tmk_core/common/action_layer.c ****  */
  45:./tmk_core/common/action_layer.c **** void default_layer_debug(void)
  46:./tmk_core/common/action_layer.c **** {
  69               		.loc 1 46 1 is_stmt 1 view -0
  70               		.cfi_startproc
  71               	/* prologue: function */
  72               	/* frame size = 0 */
  73               	/* stack size = 0 */
  74               	.L__stack_usage = 0
  47:./tmk_core/common/action_layer.c ****     dprintf("%08lX(%u)", default_layer_state, biton32(default_layer_state));
  75               		.loc 1 47 76 view .LVU16
  76               	/* epilogue start */
  48:./tmk_core/common/action_layer.c **** }
  77               		.loc 1 48 1 is_stmt 0 view .LVU17
  78 0000 0895      		ret
  79               		.cfi_endproc
  80               	.LFE6:
  82               		.section	.text.default_layer_set,"ax",@progbits
  83               	.global	default_layer_set
  85               	default_layer_set:
  86               	.LVL4:
  87               	.LFB7:
  49:./tmk_core/common/action_layer.c **** 
  50:./tmk_core/common/action_layer.c **** /** \brief Default Layer Set
  51:./tmk_core/common/action_layer.c ****  *
  52:./tmk_core/common/action_layer.c ****  * FIXME: Needs docs
  53:./tmk_core/common/action_layer.c ****  */
  54:./tmk_core/common/action_layer.c **** void default_layer_set(uint32_t state)
  55:./tmk_core/common/action_layer.c **** {
  88               		.loc 1 55 1 is_stmt 1 view -0
  89               		.cfi_startproc
  90               	/* prologue: function */
  91               	/* frame size = 0 */
  92               	/* stack size = 0 */
  93               	.L__stack_usage = 0
  56:./tmk_core/common/action_layer.c ****     default_layer_state_set(state);
  94               		.loc 1 56 5 view .LVU19
  95 0000 0C94 0000 		jmp default_layer_state_set
  96               	.LVL5:
  97               		.loc 1 56 5 is_stmt 0 view .LVU20
  98               		.cfi_endproc
  99               	.LFE7:
 101               		.section	.text.default_layer_or,"ax",@progbits
 102               	.global	default_layer_or
 104               	default_layer_or:
 105               	.LVL6:
 106               	.LFB8:
  57:./tmk_core/common/action_layer.c **** }
  58:./tmk_core/common/action_layer.c **** 
  59:./tmk_core/common/action_layer.c **** #ifndef NO_ACTION_LAYER
  60:./tmk_core/common/action_layer.c **** /** \brief Default Layer Or
  61:./tmk_core/common/action_layer.c ****  *
  62:./tmk_core/common/action_layer.c ****  * FIXME: Needs docs
  63:./tmk_core/common/action_layer.c ****  */
  64:./tmk_core/common/action_layer.c **** void default_layer_or(uint32_t state)
  65:./tmk_core/common/action_layer.c **** {
 107               		.loc 1 65 1 is_stmt 1 view -0
 108               		.cfi_startproc
 109               		.loc 1 65 1 is_stmt 0 view .LVU22
 110 0000 0F93      		push r16
 111               	.LCFI0:
 112               		.cfi_def_cfa_offset 3
 113               		.cfi_offset 16, -2
 114 0002 1F93      		push r17
 115               	.LCFI1:
 116               		.cfi_def_cfa_offset 4
 117               		.cfi_offset 17, -3
 118               	/* prologue: function */
 119               	/* frame size = 0 */
 120               	/* stack size = 2 */
 121               	.L__stack_usage = 2
  66:./tmk_core/common/action_layer.c ****     default_layer_state_set(default_layer_state | state);
 122               		.loc 1 66 5 is_stmt 1 view .LVU23
 123 0004 0091 0000 		lds r16,default_layer_state
 124 0008 1091 0000 		lds r17,default_layer_state+1
 125 000c 2091 0000 		lds r18,default_layer_state+2
 126 0010 3091 0000 		lds r19,default_layer_state+3
 127 0014 602B      		or r22,r16
 128               	.LVL7:
 129               		.loc 1 66 5 is_stmt 0 view .LVU24
 130 0016 712B      		or r23,r17
 131 0018 822B      		or r24,r18
 132 001a 932B      		or r25,r19
 133               	/* epilogue start */
  67:./tmk_core/common/action_layer.c **** }
 134               		.loc 1 67 1 view .LVU25
 135 001c 1F91      		pop r17
 136 001e 0F91      		pop r16
  66:./tmk_core/common/action_layer.c ****     default_layer_state_set(default_layer_state | state);
 137               		.loc 1 66 5 view .LVU26
 138 0020 0C94 0000 		jmp default_layer_state_set
 139               	.LVL8:
 140               		.cfi_endproc
 141               	.LFE8:
 143               		.section	.text.default_layer_and,"ax",@progbits
 144               	.global	default_layer_and
 146               	default_layer_and:
 147               	.LVL9:
 148               	.LFB9:
  68:./tmk_core/common/action_layer.c **** /** \brief Default Layer And
  69:./tmk_core/common/action_layer.c ****  *
  70:./tmk_core/common/action_layer.c ****  * FIXME: Needs docs
  71:./tmk_core/common/action_layer.c ****  */
  72:./tmk_core/common/action_layer.c **** void default_layer_and(uint32_t state)
  73:./tmk_core/common/action_layer.c **** {
 149               		.loc 1 73 1 is_stmt 1 view -0
 150               		.cfi_startproc
 151               		.loc 1 73 1 is_stmt 0 view .LVU28
 152 0000 0F93      		push r16
 153               	.LCFI2:
 154               		.cfi_def_cfa_offset 3
 155               		.cfi_offset 16, -2
 156 0002 1F93      		push r17
 157               	.LCFI3:
 158               		.cfi_def_cfa_offset 4
 159               		.cfi_offset 17, -3
 160               	/* prologue: function */
 161               	/* frame size = 0 */
 162               	/* stack size = 2 */
 163               	.L__stack_usage = 2
  74:./tmk_core/common/action_layer.c ****     default_layer_state_set(default_layer_state & state);
 164               		.loc 1 74 5 is_stmt 1 view .LVU29
 165 0004 0091 0000 		lds r16,default_layer_state
 166 0008 1091 0000 		lds r17,default_layer_state+1
 167 000c 2091 0000 		lds r18,default_layer_state+2
 168 0010 3091 0000 		lds r19,default_layer_state+3
 169 0014 6023      		and r22,r16
 170               	.LVL10:
 171               		.loc 1 74 5 is_stmt 0 view .LVU30
 172 0016 7123      		and r23,r17
 173 0018 8223      		and r24,r18
 174 001a 9323      		and r25,r19
 175               	/* epilogue start */
  75:./tmk_core/common/action_layer.c **** }
 176               		.loc 1 75 1 view .LVU31
 177 001c 1F91      		pop r17
 178 001e 0F91      		pop r16
  74:./tmk_core/common/action_layer.c ****     default_layer_state_set(default_layer_state & state);
 179               		.loc 1 74 5 view .LVU32
 180 0020 0C94 0000 		jmp default_layer_state_set
 181               	.LVL11:
 182               		.cfi_endproc
 183               	.LFE9:
 185               		.section	.text.default_layer_xor,"ax",@progbits
 186               	.global	default_layer_xor
 188               	default_layer_xor:
 189               	.LVL12:
 190               	.LFB10:
  76:./tmk_core/common/action_layer.c **** /** \brief Default Layer Xor
  77:./tmk_core/common/action_layer.c ****  *
  78:./tmk_core/common/action_layer.c ****  * FIXME: Needs docs
  79:./tmk_core/common/action_layer.c ****  */
  80:./tmk_core/common/action_layer.c **** void default_layer_xor(uint32_t state)
  81:./tmk_core/common/action_layer.c **** {
 191               		.loc 1 81 1 is_stmt 1 view -0
 192               		.cfi_startproc
 193               		.loc 1 81 1 is_stmt 0 view .LVU34
 194 0000 0F93      		push r16
 195               	.LCFI4:
 196               		.cfi_def_cfa_offset 3
 197               		.cfi_offset 16, -2
 198 0002 1F93      		push r17
 199               	.LCFI5:
 200               		.cfi_def_cfa_offset 4
 201               		.cfi_offset 17, -3
 202               	/* prologue: function */
 203               	/* frame size = 0 */
 204               	/* stack size = 2 */
 205               	.L__stack_usage = 2
  82:./tmk_core/common/action_layer.c ****     default_layer_state_set(default_layer_state ^ state);
 206               		.loc 1 82 5 is_stmt 1 view .LVU35
 207 0004 0091 0000 		lds r16,default_layer_state
 208 0008 1091 0000 		lds r17,default_layer_state+1
 209 000c 2091 0000 		lds r18,default_layer_state+2
 210 0010 3091 0000 		lds r19,default_layer_state+3
 211 0014 6027      		eor r22,r16
 212               	.LVL13:
 213               		.loc 1 82 5 is_stmt 0 view .LVU36
 214 0016 7127      		eor r23,r17
 215 0018 8227      		eor r24,r18
 216 001a 9327      		eor r25,r19
 217               	/* epilogue start */
  83:./tmk_core/common/action_layer.c **** }
 218               		.loc 1 83 1 view .LVU37
 219 001c 1F91      		pop r17
 220 001e 0F91      		pop r16
  82:./tmk_core/common/action_layer.c ****     default_layer_state_set(default_layer_state ^ state);
 221               		.loc 1 82 5 view .LVU38
 222 0020 0C94 0000 		jmp default_layer_state_set
 223               	.LVL14:
 224               		.cfi_endproc
 225               	.LFE10:
 227               		.section	.text.layer_state_set_user,"ax",@progbits
 228               		.weak	layer_state_set_user
 230               	layer_state_set_user:
 231               	.LFB31:
 232               		.cfi_startproc
 233               	/* prologue: function */
 234               	/* frame size = 0 */
 235               	/* stack size = 0 */
 236               	.L__stack_usage = 0
 237 0000 0C94 0000 		jmp default_layer_state_set_kb.localalias.0
 238               		.cfi_endproc
 239               	.LFE31:
 241               		.section	.text.layer_state_set_kb,"ax",@progbits
 242               		.weak	layer_state_set_kb
 244               	layer_state_set_kb:
 245               	.LVL15:
 246               	.LFB12:
  84:./tmk_core/common/action_layer.c **** #endif
  85:./tmk_core/common/action_layer.c **** 
  86:./tmk_core/common/action_layer.c **** 
  87:./tmk_core/common/action_layer.c **** #ifndef NO_ACTION_LAYER
  88:./tmk_core/common/action_layer.c **** /** \brief Keymap Layer State
  89:./tmk_core/common/action_layer.c ****  */
  90:./tmk_core/common/action_layer.c **** uint32_t layer_state = 0;
  91:./tmk_core/common/action_layer.c **** 
  92:./tmk_core/common/action_layer.c **** /** \brief Layer state set user
  93:./tmk_core/common/action_layer.c ****  *
  94:./tmk_core/common/action_layer.c ****  * FIXME: Needs docs
  95:./tmk_core/common/action_layer.c ****  */
  96:./tmk_core/common/action_layer.c **** __attribute__((weak))
  97:./tmk_core/common/action_layer.c **** uint32_t layer_state_set_user(uint32_t state) {
  98:./tmk_core/common/action_layer.c ****     return state;
  99:./tmk_core/common/action_layer.c **** }
 100:./tmk_core/common/action_layer.c **** 
 101:./tmk_core/common/action_layer.c **** /** \brief Layer state set keyboard
 102:./tmk_core/common/action_layer.c ****  *
 103:./tmk_core/common/action_layer.c ****  * FIXME: Needs docs
 104:./tmk_core/common/action_layer.c ****  */
 105:./tmk_core/common/action_layer.c **** __attribute__((weak))
 106:./tmk_core/common/action_layer.c **** uint32_t layer_state_set_kb(uint32_t state) {
 247               		.loc 1 106 45 is_stmt 1 view -0
 248               		.cfi_startproc
 249               	/* prologue: function */
 250               	/* frame size = 0 */
 251               	/* stack size = 0 */
 252               	.L__stack_usage = 0
 107:./tmk_core/common/action_layer.c ****     return layer_state_set_user(state);
 253               		.loc 1 107 5 view .LVU40
 254               		.loc 1 107 12 is_stmt 0 view .LVU41
 255 0000 0C94 0000 		jmp layer_state_set_user
 256               	.LVL16:
 257               		.loc 1 107 12 view .LVU42
 258               		.cfi_endproc
 259               	.LFE12:
 261               		.section	.text.layer_state_set,"ax",@progbits
 262               	.global	layer_state_set
 264               	layer_state_set:
 265               	.LVL17:
 266               	.LFB13:
 108:./tmk_core/common/action_layer.c **** }
 109:./tmk_core/common/action_layer.c **** 
 110:./tmk_core/common/action_layer.c **** /** \brief Layer state set
 111:./tmk_core/common/action_layer.c ****  *
 112:./tmk_core/common/action_layer.c ****  * FIXME: Needs docs
 113:./tmk_core/common/action_layer.c ****  */
 114:./tmk_core/common/action_layer.c **** void layer_state_set(uint32_t state)
 115:./tmk_core/common/action_layer.c **** {
 267               		.loc 1 115 1 is_stmt 1 view -0
 268               		.cfi_startproc
 269               	/* prologue: function */
 270               	/* frame size = 0 */
 271               	/* stack size = 0 */
 272               	.L__stack_usage = 0
 116:./tmk_core/common/action_layer.c ****     state = layer_state_set_kb(state);
 273               		.loc 1 116 5 view .LVU44
 274               		.loc 1 116 13 is_stmt 0 view .LVU45
 275 0000 0E94 0000 		call layer_state_set_kb
 276               	.LVL18:
 117:./tmk_core/common/action_layer.c ****     dprint("layer_state: ");
 277               		.loc 1 117 28 is_stmt 1 view .LVU46
 118:./tmk_core/common/action_layer.c ****     layer_debug(); dprint(" to ");
 278               		.loc 1 118 5 view .LVU47
 279               		.loc 1 118 34 view .LVU48
 119:./tmk_core/common/action_layer.c ****     layer_state = state;
 280               		.loc 1 119 5 view .LVU49
 281               		.loc 1 119 17 is_stmt 0 view .LVU50
 282 0004 6093 0000 		sts layer_state,r22
 283 0008 7093 0000 		sts layer_state+1,r23
 284 000c 8093 0000 		sts layer_state+2,r24
 285 0010 9093 0000 		sts layer_state+3,r25
 120:./tmk_core/common/action_layer.c ****     layer_debug(); dprintln();
 286               		.loc 1 120 5 is_stmt 1 view .LVU51
 287               		.loc 1 120 30 view .LVU52
 121:./tmk_core/common/action_layer.c ****     clear_keyboard_but_mods(); // To avoid stuck keys
 288               		.loc 1 121 5 view .LVU53
 289 0014 0C94 0000 		jmp clear_keyboard_but_mods
 290               	.LVL19:
 291               		.loc 1 121 5 is_stmt 0 view .LVU54
 292               		.cfi_endproc
 293               	.LFE13:
 295               		.section	.text.layer_clear,"ax",@progbits
 296               	.global	layer_clear
 298               	layer_clear:
 299               	.LFB14:
 122:./tmk_core/common/action_layer.c **** }
 123:./tmk_core/common/action_layer.c **** 
 124:./tmk_core/common/action_layer.c **** /** \brief Layer clear
 125:./tmk_core/common/action_layer.c ****  *
 126:./tmk_core/common/action_layer.c ****  * FIXME: Needs docs
 127:./tmk_core/common/action_layer.c ****  */
 128:./tmk_core/common/action_layer.c **** void layer_clear(void)
 129:./tmk_core/common/action_layer.c **** {
 300               		.loc 1 129 1 is_stmt 1 view -0
 301               		.cfi_startproc
 302               	/* prologue: function */
 303               	/* frame size = 0 */
 304               	/* stack size = 0 */
 305               	.L__stack_usage = 0
 130:./tmk_core/common/action_layer.c ****     layer_state_set(0);
 306               		.loc 1 130 5 view .LVU56
 307 0000 60E0      		ldi r22,0
 308 0002 70E0      		ldi r23,0
 309 0004 CB01      		movw r24,r22
 310 0006 0C94 0000 		jmp layer_state_set
 311               	.LVL20:
 312               		.cfi_endproc
 313               	.LFE14:
 315               		.section	.text.layer_state_cmp,"ax",@progbits
 316               	.global	layer_state_cmp
 318               	layer_state_cmp:
 319               	.LVL21:
 320               	.LFB16:
 131:./tmk_core/common/action_layer.c **** }
 132:./tmk_core/common/action_layer.c **** 
 133:./tmk_core/common/action_layer.c **** /** \brief Layer state is
 134:./tmk_core/common/action_layer.c ****  *
 135:./tmk_core/common/action_layer.c ****  * FIXME: Needs docs
 136:./tmk_core/common/action_layer.c ****  */
 137:./tmk_core/common/action_layer.c **** bool layer_state_is(uint8_t layer)
 138:./tmk_core/common/action_layer.c **** {
 139:./tmk_core/common/action_layer.c ****     return layer_state_cmp(layer_state, layer);
 140:./tmk_core/common/action_layer.c **** }
 141:./tmk_core/common/action_layer.c **** 
 142:./tmk_core/common/action_layer.c **** /** \brief Layer state compare
 143:./tmk_core/common/action_layer.c ****  *
 144:./tmk_core/common/action_layer.c ****  * FIXME: Needs docs
 145:./tmk_core/common/action_layer.c ****  */
 146:./tmk_core/common/action_layer.c **** bool layer_state_cmp(uint32_t cmp_layer_state, uint8_t layer) {
 321               		.loc 1 146 63 view -0
 322               		.cfi_startproc
 323               	/* prologue: function */
 324               	/* frame size = 0 */
 325               	/* stack size = 0 */
 326               	.L__stack_usage = 0
 147:./tmk_core/common/action_layer.c ****     if (!cmp_layer_state) { return layer == 0; }
 327               		.loc 1 147 5 view .LVU58
 328               		.loc 1 147 8 is_stmt 0 view .LVU59
 329 0000 6115      		cp r22,__zero_reg__
 330 0002 7105      		cpc r23,__zero_reg__
 331 0004 8105      		cpc r24,__zero_reg__
 332 0006 9105      		cpc r25,__zero_reg__
 333 0008 01F4      		brne .L13
 334               		.loc 1 147 29 is_stmt 1 discriminator 1 view .LVU60
 335               		.loc 1 147 42 is_stmt 0 discriminator 1 view .LVU61
 336 000a 81E0      		ldi r24,lo8(1)
 337 000c 4423      		tst r20
 338 000e 01F0      		breq .L12
 339 0010 80E0      		ldi r24,0
 340 0012 0895      		ret
 341               	.L13:
 148:./tmk_core/common/action_layer.c ****     return (cmp_layer_state & (1UL<<layer)) != 0;
 342               		.loc 1 148 5 is_stmt 1 view .LVU62
 343               		.loc 1 148 45 is_stmt 0 view .LVU63
 344 0014 DC01      		movw r26,r24
 345 0016 CB01      		movw r24,r22
 346 0018 00C0      		rjmp 2f
 347               		1:
 348 001a B695      		lsr r27
 349 001c A795      		ror r26
 350 001e 9795      		ror r25
 351 0020 8795      		ror r24
 352               		2:
 353 0022 4A95      		dec r20
 354 0024 02F4      		brpl 1b
 355 0026 8170      		andi r24,lo8(1)
 356               	.L12:
 357               	/* epilogue start */
 149:./tmk_core/common/action_layer.c **** }
 358               		.loc 1 149 1 view .LVU64
 359 0028 0895      		ret
 360               		.cfi_endproc
 361               	.LFE16:
 363               		.section	.text.layer_state_is,"ax",@progbits
 364               	.global	layer_state_is
 366               	layer_state_is:
 367               	.LVL22:
 368               	.LFB15:
 138:./tmk_core/common/action_layer.c ****     return layer_state_cmp(layer_state, layer);
 369               		.loc 1 138 1 is_stmt 1 view -0
 370               		.cfi_startproc
 371               	/* prologue: function */
 372               	/* frame size = 0 */
 373               	/* stack size = 0 */
 374               	.L__stack_usage = 0
 138:./tmk_core/common/action_layer.c ****     return layer_state_cmp(layer_state, layer);
 375               		.loc 1 138 1 is_stmt 0 view .LVU66
 376 0000 482F      		mov r20,r24
 139:./tmk_core/common/action_layer.c **** }
 377               		.loc 1 139 5 is_stmt 1 view .LVU67
 139:./tmk_core/common/action_layer.c **** }
 378               		.loc 1 139 12 is_stmt 0 view .LVU68
 379 0002 6091 0000 		lds r22,layer_state
 380 0006 7091 0000 		lds r23,layer_state+1
 381 000a 8091 0000 		lds r24,layer_state+2
 382 000e 9091 0000 		lds r25,layer_state+3
 383 0012 0C94 0000 		jmp layer_state_cmp
 384               	.LVL23:
 139:./tmk_core/common/action_layer.c **** }
 385               		.loc 1 139 12 view .LVU69
 386               		.cfi_endproc
 387               	.LFE15:
 389               		.section	.text.layer_move,"ax",@progbits
 390               	.global	layer_move
 392               	layer_move:
 393               	.LVL24:
 394               	.LFB17:
 150:./tmk_core/common/action_layer.c **** 
 151:./tmk_core/common/action_layer.c **** /** \brief Layer move
 152:./tmk_core/common/action_layer.c ****  *
 153:./tmk_core/common/action_layer.c ****  * FIXME: Needs docs
 154:./tmk_core/common/action_layer.c ****  */
 155:./tmk_core/common/action_layer.c **** void layer_move(uint8_t layer)
 156:./tmk_core/common/action_layer.c **** {
 395               		.loc 1 156 1 is_stmt 1 view -0
 396               		.cfi_startproc
 397               		.loc 1 156 1 is_stmt 0 view .LVU71
 398 0000 0F93      		push r16
 399               	.LCFI6:
 400               		.cfi_def_cfa_offset 3
 401               		.cfi_offset 16, -2
 402 0002 1F93      		push r17
 403               	.LCFI7:
 404               		.cfi_def_cfa_offset 4
 405               		.cfi_offset 17, -3
 406               	/* prologue: function */
 407               	/* frame size = 0 */
 408               	/* stack size = 2 */
 409               	.L__stack_usage = 2
 157:./tmk_core/common/action_layer.c ****     layer_state_set(1UL<<layer);
 410               		.loc 1 157 5 is_stmt 1 view .LVU72
 411 0004 41E0      		ldi r20,lo8(1)
 412 0006 50E0      		ldi r21,0
 413 0008 60E0      		ldi r22,0
 414 000a 70E0      		ldi r23,0
 415 000c 8A01      		movw r16,r20
 416 000e 9B01      		movw r18,r22
 417 0010 00C0      		rjmp 2f
 418               		1:
 419 0012 000F      		lsl r16
 420 0014 111F      		rol r17
 421 0016 221F      		rol r18
 422 0018 331F      		rol r19
 423               		2:
 424 001a 8A95      		dec r24
 425 001c 02F4      		brpl 1b
 426 001e C901      		movw r24,r18
 427               	.LVL25:
 428               		.loc 1 157 5 is_stmt 0 view .LVU73
 429 0020 B801      		movw r22,r16
 430               	/* epilogue start */
 158:./tmk_core/common/action_layer.c **** }
 431               		.loc 1 158 1 view .LVU74
 432 0022 1F91      		pop r17
 433 0024 0F91      		pop r16
 157:./tmk_core/common/action_layer.c ****     layer_state_set(1UL<<layer);
 434               		.loc 1 157 5 view .LVU75
 435 0026 0C94 0000 		jmp layer_state_set
 436               	.LVL26:
 437               		.cfi_endproc
 438               	.LFE17:
 440               		.section	.text.layer_on,"ax",@progbits
 441               	.global	layer_on
 443               	layer_on:
 444               	.LVL27:
 445               	.LFB18:
 159:./tmk_core/common/action_layer.c **** 
 160:./tmk_core/common/action_layer.c **** /** \brief Layer on
 161:./tmk_core/common/action_layer.c ****  *
 162:./tmk_core/common/action_layer.c ****  * FIXME: Needs docs
 163:./tmk_core/common/action_layer.c ****  */
 164:./tmk_core/common/action_layer.c **** void layer_on(uint8_t layer)
 165:./tmk_core/common/action_layer.c **** {
 446               		.loc 1 165 1 is_stmt 1 view -0
 447               		.cfi_startproc
 448               		.loc 1 165 1 is_stmt 0 view .LVU77
 449 0000 0F93      		push r16
 450               	.LCFI8:
 451               		.cfi_def_cfa_offset 3
 452               		.cfi_offset 16, -2
 453 0002 1F93      		push r17
 454               	.LCFI9:
 455               		.cfi_def_cfa_offset 4
 456               		.cfi_offset 17, -3
 457               	/* prologue: function */
 458               	/* frame size = 0 */
 459               	/* stack size = 2 */
 460               	.L__stack_usage = 2
 166:./tmk_core/common/action_layer.c ****     layer_state_set(layer_state | (1UL<<layer));
 461               		.loc 1 166 5 is_stmt 1 view .LVU78
 462               		.loc 1 166 39 is_stmt 0 view .LVU79
 463 0004 41E0      		ldi r20,lo8(1)
 464 0006 50E0      		ldi r21,0
 465 0008 60E0      		ldi r22,0
 466 000a 70E0      		ldi r23,0
 467 000c 00C0      		rjmp 2f
 468               		1:
 469 000e 440F      		lsl r20
 470 0010 551F      		rol r21
 471 0012 661F      		rol r22
 472 0014 771F      		rol r23
 473               		2:
 474 0016 8A95      		dec r24
 475 0018 02F4      		brpl 1b
 476               		.loc 1 166 5 view .LVU80
 477 001a 8091 0000 		lds r24,layer_state
 478 001e 9091 0000 		lds r25,layer_state+1
 479 0022 A091 0000 		lds r26,layer_state+2
 480 0026 B091 0000 		lds r27,layer_state+3
 481               	.LVL28:
 482               		.loc 1 166 5 view .LVU81
 483 002a 8A01      		movw r16,r20
 484 002c 9B01      		movw r18,r22
 485 002e 082B      		or r16,r24
 486 0030 192B      		or r17,r25
 487 0032 2A2B      		or r18,r26
 488 0034 3B2B      		or r19,r27
 489 0036 C901      		movw r24,r18
 490 0038 B801      		movw r22,r16
 491               	/* epilogue start */
 167:./tmk_core/common/action_layer.c **** }
 492               		.loc 1 167 1 view .LVU82
 493 003a 1F91      		pop r17
 494 003c 0F91      		pop r16
 166:./tmk_core/common/action_layer.c ****     layer_state_set(layer_state | (1UL<<layer));
 495               		.loc 1 166 5 view .LVU83
 496 003e 0C94 0000 		jmp layer_state_set
 497               	.LVL29:
 498               		.cfi_endproc
 499               	.LFE18:
 501               		.section	.text.layer_off,"ax",@progbits
 502               	.global	layer_off
 504               	layer_off:
 505               	.LVL30:
 506               	.LFB19:
 168:./tmk_core/common/action_layer.c **** 
 169:./tmk_core/common/action_layer.c **** /** \brief Layer off
 170:./tmk_core/common/action_layer.c ****  *
 171:./tmk_core/common/action_layer.c ****  * FIXME: Needs docs
 172:./tmk_core/common/action_layer.c ****  */
 173:./tmk_core/common/action_layer.c **** void layer_off(uint8_t layer)
 174:./tmk_core/common/action_layer.c **** {
 507               		.loc 1 174 1 is_stmt 1 view -0
 508               		.cfi_startproc
 509               		.loc 1 174 1 is_stmt 0 view .LVU85
 510 0000 0F93      		push r16
 511               	.LCFI10:
 512               		.cfi_def_cfa_offset 3
 513               		.cfi_offset 16, -2
 514 0002 1F93      		push r17
 515               	.LCFI11:
 516               		.cfi_def_cfa_offset 4
 517               		.cfi_offset 17, -3
 518               	/* prologue: function */
 519               	/* frame size = 0 */
 520               	/* stack size = 2 */
 521               	.L__stack_usage = 2
 175:./tmk_core/common/action_layer.c ****     layer_state_set(layer_state & ~(1UL<<layer));
 522               		.loc 1 175 5 is_stmt 1 view .LVU86
 523               		.loc 1 175 40 is_stmt 0 view .LVU87
 524 0004 41E0      		ldi r20,lo8(1)
 525 0006 50E0      		ldi r21,0
 526 0008 60E0      		ldi r22,0
 527 000a 70E0      		ldi r23,0
 528 000c 00C0      		rjmp 2f
 529               		1:
 530 000e 440F      		lsl r20
 531 0010 551F      		rol r21
 532 0012 661F      		rol r22
 533 0014 771F      		rol r23
 534               		2:
 535 0016 8A95      		dec r24
 536 0018 02F4      		brpl 1b
 537               		.loc 1 175 35 view .LVU88
 538 001a CB01      		movw r24,r22
 539               	.LVL31:
 540               		.loc 1 175 35 view .LVU89
 541 001c BA01      		movw r22,r20
 542 001e 6095      		com r22
 543 0020 7095      		com r23
 544 0022 8095      		com r24
 545 0024 9095      		com r25
 546               		.loc 1 175 5 view .LVU90
 547 0026 0091 0000 		lds r16,layer_state
 548 002a 1091 0000 		lds r17,layer_state+1
 549 002e 2091 0000 		lds r18,layer_state+2
 550 0032 3091 0000 		lds r19,layer_state+3
 551 0036 6023      		and r22,r16
 552 0038 7123      		and r23,r17
 553 003a 8223      		and r24,r18
 554 003c 9323      		and r25,r19
 555               	/* epilogue start */
 176:./tmk_core/common/action_layer.c **** }
 556               		.loc 1 176 1 view .LVU91
 557 003e 1F91      		pop r17
 558 0040 0F91      		pop r16
 175:./tmk_core/common/action_layer.c ****     layer_state_set(layer_state & ~(1UL<<layer));
 559               		.loc 1 175 5 view .LVU92
 560 0042 0C94 0000 		jmp layer_state_set
 561               	.LVL32:
 562               		.cfi_endproc
 563               	.LFE19:
 565               		.section	.text.layer_invert,"ax",@progbits
 566               	.global	layer_invert
 568               	layer_invert:
 569               	.LVL33:
 570               	.LFB20:
 177:./tmk_core/common/action_layer.c **** 
 178:./tmk_core/common/action_layer.c **** /** \brief Layer invert
 179:./tmk_core/common/action_layer.c ****  *
 180:./tmk_core/common/action_layer.c ****  * FIXME: Needs docs
 181:./tmk_core/common/action_layer.c ****  */
 182:./tmk_core/common/action_layer.c **** void layer_invert(uint8_t layer)
 183:./tmk_core/common/action_layer.c **** {
 571               		.loc 1 183 1 is_stmt 1 view -0
 572               		.cfi_startproc
 573               		.loc 1 183 1 is_stmt 0 view .LVU94
 574 0000 0F93      		push r16
 575               	.LCFI12:
 576               		.cfi_def_cfa_offset 3
 577               		.cfi_offset 16, -2
 578 0002 1F93      		push r17
 579               	.LCFI13:
 580               		.cfi_def_cfa_offset 4
 581               		.cfi_offset 17, -3
 582               	/* prologue: function */
 583               	/* frame size = 0 */
 584               	/* stack size = 2 */
 585               	.L__stack_usage = 2
 184:./tmk_core/common/action_layer.c ****     layer_state_set(layer_state ^ (1UL<<layer));
 586               		.loc 1 184 5 is_stmt 1 view .LVU95
 587               		.loc 1 184 39 is_stmt 0 view .LVU96
 588 0004 41E0      		ldi r20,lo8(1)
 589 0006 50E0      		ldi r21,0
 590 0008 60E0      		ldi r22,0
 591 000a 70E0      		ldi r23,0
 592 000c 00C0      		rjmp 2f
 593               		1:
 594 000e 440F      		lsl r20
 595 0010 551F      		rol r21
 596 0012 661F      		rol r22
 597 0014 771F      		rol r23
 598               		2:
 599 0016 8A95      		dec r24
 600 0018 02F4      		brpl 1b
 601               		.loc 1 184 5 view .LVU97
 602 001a 8091 0000 		lds r24,layer_state
 603 001e 9091 0000 		lds r25,layer_state+1
 604 0022 A091 0000 		lds r26,layer_state+2
 605 0026 B091 0000 		lds r27,layer_state+3
 606               	.LVL34:
 607               		.loc 1 184 5 view .LVU98
 608 002a 8A01      		movw r16,r20
 609 002c 9B01      		movw r18,r22
 610 002e 0827      		eor r16,r24
 611 0030 1927      		eor r17,r25
 612 0032 2A27      		eor r18,r26
 613 0034 3B27      		eor r19,r27
 614 0036 C901      		movw r24,r18
 615 0038 B801      		movw r22,r16
 616               	/* epilogue start */
 185:./tmk_core/common/action_layer.c **** }
 617               		.loc 1 185 1 view .LVU99
 618 003a 1F91      		pop r17
 619 003c 0F91      		pop r16
 184:./tmk_core/common/action_layer.c ****     layer_state_set(layer_state ^ (1UL<<layer));
 620               		.loc 1 184 5 view .LVU100
 621 003e 0C94 0000 		jmp layer_state_set
 622               	.LVL35:
 623               		.cfi_endproc
 624               	.LFE20:
 626               		.section	.text.layer_or,"ax",@progbits
 627               	.global	layer_or
 629               	layer_or:
 630               	.LVL36:
 631               	.LFB21:
 186:./tmk_core/common/action_layer.c **** 
 187:./tmk_core/common/action_layer.c **** /** \brief Layer or
 188:./tmk_core/common/action_layer.c ****  *
 189:./tmk_core/common/action_layer.c ****  * FIXME: Needs docs
 190:./tmk_core/common/action_layer.c ****  */
 191:./tmk_core/common/action_layer.c **** void layer_or(uint32_t state)
 192:./tmk_core/common/action_layer.c **** {
 632               		.loc 1 192 1 is_stmt 1 view -0
 633               		.cfi_startproc
 634               		.loc 1 192 1 is_stmt 0 view .LVU102
 635 0000 0F93      		push r16
 636               	.LCFI14:
 637               		.cfi_def_cfa_offset 3
 638               		.cfi_offset 16, -2
 639 0002 1F93      		push r17
 640               	.LCFI15:
 641               		.cfi_def_cfa_offset 4
 642               		.cfi_offset 17, -3
 643               	/* prologue: function */
 644               	/* frame size = 0 */
 645               	/* stack size = 2 */
 646               	.L__stack_usage = 2
 193:./tmk_core/common/action_layer.c ****     layer_state_set(layer_state | state);
 647               		.loc 1 193 5 is_stmt 1 view .LVU103
 648 0004 0091 0000 		lds r16,layer_state
 649 0008 1091 0000 		lds r17,layer_state+1
 650 000c 2091 0000 		lds r18,layer_state+2
 651 0010 3091 0000 		lds r19,layer_state+3
 652 0014 602B      		or r22,r16
 653               	.LVL37:
 654               		.loc 1 193 5 is_stmt 0 view .LVU104
 655 0016 712B      		or r23,r17
 656 0018 822B      		or r24,r18
 657 001a 932B      		or r25,r19
 658               	/* epilogue start */
 194:./tmk_core/common/action_layer.c **** }
 659               		.loc 1 194 1 view .LVU105
 660 001c 1F91      		pop r17
 661 001e 0F91      		pop r16
 193:./tmk_core/common/action_layer.c ****     layer_state_set(layer_state | state);
 662               		.loc 1 193 5 view .LVU106
 663 0020 0C94 0000 		jmp layer_state_set
 664               	.LVL38:
 665               		.cfi_endproc
 666               	.LFE21:
 668               		.section	.text.layer_and,"ax",@progbits
 669               	.global	layer_and
 671               	layer_and:
 672               	.LVL39:
 673               	.LFB22:
 195:./tmk_core/common/action_layer.c **** /** \brief Layer and
 196:./tmk_core/common/action_layer.c ****  *
 197:./tmk_core/common/action_layer.c ****  * FIXME: Needs docs
 198:./tmk_core/common/action_layer.c ****  */
 199:./tmk_core/common/action_layer.c **** void layer_and(uint32_t state)
 200:./tmk_core/common/action_layer.c **** {
 674               		.loc 1 200 1 is_stmt 1 view -0
 675               		.cfi_startproc
 676               		.loc 1 200 1 is_stmt 0 view .LVU108
 677 0000 0F93      		push r16
 678               	.LCFI16:
 679               		.cfi_def_cfa_offset 3
 680               		.cfi_offset 16, -2
 681 0002 1F93      		push r17
 682               	.LCFI17:
 683               		.cfi_def_cfa_offset 4
 684               		.cfi_offset 17, -3
 685               	/* prologue: function */
 686               	/* frame size = 0 */
 687               	/* stack size = 2 */
 688               	.L__stack_usage = 2
 201:./tmk_core/common/action_layer.c ****     layer_state_set(layer_state & state);
 689               		.loc 1 201 5 is_stmt 1 view .LVU109
 690 0004 0091 0000 		lds r16,layer_state
 691 0008 1091 0000 		lds r17,layer_state+1
 692 000c 2091 0000 		lds r18,layer_state+2
 693 0010 3091 0000 		lds r19,layer_state+3
 694 0014 6023      		and r22,r16
 695               	.LVL40:
 696               		.loc 1 201 5 is_stmt 0 view .LVU110
 697 0016 7123      		and r23,r17
 698 0018 8223      		and r24,r18
 699 001a 9323      		and r25,r19
 700               	/* epilogue start */
 202:./tmk_core/common/action_layer.c **** }
 701               		.loc 1 202 1 view .LVU111
 702 001c 1F91      		pop r17
 703 001e 0F91      		pop r16
 201:./tmk_core/common/action_layer.c ****     layer_state_set(layer_state & state);
 704               		.loc 1 201 5 view .LVU112
 705 0020 0C94 0000 		jmp layer_state_set
 706               	.LVL41:
 707               		.cfi_endproc
 708               	.LFE22:
 710               		.section	.text.layer_xor,"ax",@progbits
 711               	.global	layer_xor
 713               	layer_xor:
 714               	.LVL42:
 715               	.LFB23:
 203:./tmk_core/common/action_layer.c **** /** \brief Layer xor
 204:./tmk_core/common/action_layer.c ****  *
 205:./tmk_core/common/action_layer.c ****  * FIXME: Needs docs
 206:./tmk_core/common/action_layer.c ****  */
 207:./tmk_core/common/action_layer.c **** void layer_xor(uint32_t state)
 208:./tmk_core/common/action_layer.c **** {
 716               		.loc 1 208 1 is_stmt 1 view -0
 717               		.cfi_startproc
 718               		.loc 1 208 1 is_stmt 0 view .LVU114
 719 0000 0F93      		push r16
 720               	.LCFI18:
 721               		.cfi_def_cfa_offset 3
 722               		.cfi_offset 16, -2
 723 0002 1F93      		push r17
 724               	.LCFI19:
 725               		.cfi_def_cfa_offset 4
 726               		.cfi_offset 17, -3
 727               	/* prologue: function */
 728               	/* frame size = 0 */
 729               	/* stack size = 2 */
 730               	.L__stack_usage = 2
 209:./tmk_core/common/action_layer.c ****     layer_state_set(layer_state ^ state);
 731               		.loc 1 209 5 is_stmt 1 view .LVU115
 732 0004 0091 0000 		lds r16,layer_state
 733 0008 1091 0000 		lds r17,layer_state+1
 734 000c 2091 0000 		lds r18,layer_state+2
 735 0010 3091 0000 		lds r19,layer_state+3
 736 0014 6027      		eor r22,r16
 737               	.LVL43:
 738               		.loc 1 209 5 is_stmt 0 view .LVU116
 739 0016 7127      		eor r23,r17
 740 0018 8227      		eor r24,r18
 741 001a 9327      		eor r25,r19
 742               	/* epilogue start */
 210:./tmk_core/common/action_layer.c **** }
 743               		.loc 1 210 1 view .LVU117
 744 001c 1F91      		pop r17
 745 001e 0F91      		pop r16
 209:./tmk_core/common/action_layer.c ****     layer_state_set(layer_state ^ state);
 746               		.loc 1 209 5 view .LVU118
 747 0020 0C94 0000 		jmp layer_state_set
 748               	.LVL44:
 749               		.cfi_endproc
 750               	.LFE23:
 752               		.section	.text.layer_debug,"ax",@progbits
 753               	.global	layer_debug
 755               	layer_debug:
 756               	.LFB29:
 757               		.cfi_startproc
 758               	/* prologue: function */
 759               	/* frame size = 0 */
 760               	/* stack size = 0 */
 761               	.L__stack_usage = 0
 762               	/* epilogue start */
 763 0000 0895      		ret
 764               		.cfi_endproc
 765               	.LFE29:
 767               		.section	.text.layer_switch_get_layer,"ax",@progbits
 768               	.global	layer_switch_get_layer
 770               	layer_switch_get_layer:
 771               	.LVL45:
 772               	.LFB26:
 211:./tmk_core/common/action_layer.c **** 
 212:./tmk_core/common/action_layer.c **** /** \brief Layer debug printing
 213:./tmk_core/common/action_layer.c ****  *
 214:./tmk_core/common/action_layer.c ****  * FIXME: Needs docs
 215:./tmk_core/common/action_layer.c ****  */
 216:./tmk_core/common/action_layer.c **** void layer_debug(void)
 217:./tmk_core/common/action_layer.c **** {
 218:./tmk_core/common/action_layer.c ****     dprintf("%08lX(%u)", layer_state, biton32(layer_state));
 219:./tmk_core/common/action_layer.c **** }
 220:./tmk_core/common/action_layer.c **** #endif
 221:./tmk_core/common/action_layer.c **** 
 222:./tmk_core/common/action_layer.c **** #if !defined(NO_ACTION_LAYER) && defined(PREVENT_STUCK_MODIFIERS)
 223:./tmk_core/common/action_layer.c **** uint8_t source_layers_cache[(MATRIX_ROWS * MATRIX_COLS + 7) / 8][MAX_LAYER_BITS] = {{0}};
 224:./tmk_core/common/action_layer.c **** 
 225:./tmk_core/common/action_layer.c **** void update_source_layers_cache(keypos_t key, uint8_t layer)
 226:./tmk_core/common/action_layer.c **** {
 227:./tmk_core/common/action_layer.c ****     const uint8_t key_number = key.col + (key.row * MATRIX_COLS);
 228:./tmk_core/common/action_layer.c ****     const uint8_t storage_row = key_number / 8;
 229:./tmk_core/common/action_layer.c ****     const uint8_t storage_bit = key_number % 8;
 230:./tmk_core/common/action_layer.c **** 
 231:./tmk_core/common/action_layer.c ****     for (uint8_t bit_number = 0; bit_number < MAX_LAYER_BITS; bit_number++) {
 232:./tmk_core/common/action_layer.c ****         source_layers_cache[storage_row][bit_number] ^=
 233:./tmk_core/common/action_layer.c ****             (-((layer & (1U << bit_number)) != 0)
 234:./tmk_core/common/action_layer.c ****              ^ source_layers_cache[storage_row][bit_number])
 235:./tmk_core/common/action_layer.c ****             & (1U << storage_bit);
 236:./tmk_core/common/action_layer.c ****     }
 237:./tmk_core/common/action_layer.c **** }
 238:./tmk_core/common/action_layer.c **** 
 239:./tmk_core/common/action_layer.c **** uint8_t read_source_layers_cache(keypos_t key)
 240:./tmk_core/common/action_layer.c **** {
 241:./tmk_core/common/action_layer.c ****     const uint8_t key_number = key.col + (key.row * MATRIX_COLS);
 242:./tmk_core/common/action_layer.c ****     const uint8_t storage_row = key_number / 8;
 243:./tmk_core/common/action_layer.c ****     const uint8_t storage_bit = key_number % 8;
 244:./tmk_core/common/action_layer.c ****     uint8_t layer = 0;
 245:./tmk_core/common/action_layer.c **** 
 246:./tmk_core/common/action_layer.c ****     for (uint8_t bit_number = 0; bit_number < MAX_LAYER_BITS; bit_number++) {
 247:./tmk_core/common/action_layer.c ****         layer |=
 248:./tmk_core/common/action_layer.c ****             ((source_layers_cache[storage_row][bit_number]
 249:./tmk_core/common/action_layer.c ****               & (1U << storage_bit)) != 0)
 250:./tmk_core/common/action_layer.c ****             << bit_number;
 251:./tmk_core/common/action_layer.c ****     }
 252:./tmk_core/common/action_layer.c **** 
 253:./tmk_core/common/action_layer.c ****     return layer;
 254:./tmk_core/common/action_layer.c **** }
 255:./tmk_core/common/action_layer.c **** #endif
 256:./tmk_core/common/action_layer.c **** 
 257:./tmk_core/common/action_layer.c **** /** \brief Store or get action (FIXME: Needs better summary)
 258:./tmk_core/common/action_layer.c ****  *
 259:./tmk_core/common/action_layer.c ****  * Make sure the action triggered when the key is released is the same
 260:./tmk_core/common/action_layer.c ****  * one as the one triggered on press. It's important for the mod keys
 261:./tmk_core/common/action_layer.c ****  * when the layer is switched after the down event but before the up
 262:./tmk_core/common/action_layer.c ****  * event as they may get stuck otherwise.
 263:./tmk_core/common/action_layer.c ****  */
 264:./tmk_core/common/action_layer.c **** action_t store_or_get_action(bool pressed, keypos_t key)
 265:./tmk_core/common/action_layer.c **** {
 266:./tmk_core/common/action_layer.c **** #if !defined(NO_ACTION_LAYER) && defined(PREVENT_STUCK_MODIFIERS)
 267:./tmk_core/common/action_layer.c ****     if (disable_action_cache) {
 268:./tmk_core/common/action_layer.c ****         return layer_switch_get_action(key);
 269:./tmk_core/common/action_layer.c ****     }
 270:./tmk_core/common/action_layer.c **** 
 271:./tmk_core/common/action_layer.c ****     uint8_t layer;
 272:./tmk_core/common/action_layer.c **** 
 273:./tmk_core/common/action_layer.c ****     if (pressed) {
 274:./tmk_core/common/action_layer.c ****         layer = layer_switch_get_layer(key);
 275:./tmk_core/common/action_layer.c ****         update_source_layers_cache(key, layer);
 276:./tmk_core/common/action_layer.c ****     }
 277:./tmk_core/common/action_layer.c ****     else {
 278:./tmk_core/common/action_layer.c ****         layer = read_source_layers_cache(key);
 279:./tmk_core/common/action_layer.c ****     }
 280:./tmk_core/common/action_layer.c ****     return action_for_key(layer, key);
 281:./tmk_core/common/action_layer.c **** #else
 282:./tmk_core/common/action_layer.c ****     return layer_switch_get_action(key);
 283:./tmk_core/common/action_layer.c **** #endif
 284:./tmk_core/common/action_layer.c **** }
 285:./tmk_core/common/action_layer.c **** 
 286:./tmk_core/common/action_layer.c **** 
 287:./tmk_core/common/action_layer.c **** /** \brief Layer switch get layer
 288:./tmk_core/common/action_layer.c ****  *
 289:./tmk_core/common/action_layer.c ****  * FIXME: Needs docs
 290:./tmk_core/common/action_layer.c ****  */
 291:./tmk_core/common/action_layer.c **** int8_t layer_switch_get_layer(keypos_t key)
 292:./tmk_core/common/action_layer.c **** {
 773               		.loc 1 292 1 is_stmt 1 view -0
 774               		.cfi_startproc
 775               		.loc 1 292 1 is_stmt 0 view .LVU120
 776 0000 BF92      		push r11
 777               	.LCFI20:
 778               		.cfi_def_cfa_offset 3
 779               		.cfi_offset 11, -2
 780 0002 CF92      		push r12
 781               	.LCFI21:
 782               		.cfi_def_cfa_offset 4
 783               		.cfi_offset 12, -3
 784 0004 DF92      		push r13
 785               	.LCFI22:
 786               		.cfi_def_cfa_offset 5
 787               		.cfi_offset 13, -4
 788 0006 EF92      		push r14
 789               	.LCFI23:
 790               		.cfi_def_cfa_offset 6
 791               		.cfi_offset 14, -5
 792 0008 FF92      		push r15
 793               	.LCFI24:
 794               		.cfi_def_cfa_offset 7
 795               		.cfi_offset 15, -6
 796 000a 0F93      		push r16
 797               	.LCFI25:
 798               		.cfi_def_cfa_offset 8
 799               		.cfi_offset 16, -7
 800 000c 1F93      		push r17
 801               	.LCFI26:
 802               		.cfi_def_cfa_offset 9
 803               		.cfi_offset 17, -8
 804 000e CF93      		push r28
 805               	.LCFI27:
 806               		.cfi_def_cfa_offset 10
 807               		.cfi_offset 28, -9
 808 0010 DF93      		push r29
 809               	.LCFI28:
 810               		.cfi_def_cfa_offset 11
 811               		.cfi_offset 29, -10
 812               	/* prologue: function */
 813               	/* frame size = 0 */
 814               	/* stack size = 9 */
 815               	.L__stack_usage = 9
 816 0012 8C01      		movw r16,r24
 293:./tmk_core/common/action_layer.c **** #ifndef NO_ACTION_LAYER
 294:./tmk_core/common/action_layer.c ****     action_t action;
 817               		.loc 1 294 5 is_stmt 1 view .LVU121
 295:./tmk_core/common/action_layer.c ****     action.code = ACTION_TRANSPARENT;
 818               		.loc 1 295 5 view .LVU122
 819               	.LVL46:
 296:./tmk_core/common/action_layer.c **** 
 297:./tmk_core/common/action_layer.c ****     uint32_t layers = layer_state | default_layer_state;
 820               		.loc 1 297 5 view .LVU123
 821               		.loc 1 297 14 is_stmt 0 view .LVU124
 822 0014 C090 0000 		lds r12,layer_state
 823 0018 D090 0000 		lds r13,layer_state+1
 824 001c E090 0000 		lds r14,layer_state+2
 825 0020 F090 0000 		lds r15,layer_state+3
 826 0024 8091 0000 		lds r24,default_layer_state
 827 0028 9091 0000 		lds r25,default_layer_state+1
 828 002c A091 0000 		lds r26,default_layer_state+2
 829 0030 B091 0000 		lds r27,default_layer_state+3
 830               	.LVL47:
 831               		.loc 1 297 14 view .LVU125
 832 0034 C82A      		or r12,r24
 833 0036 D92A      		or r13,r25
 834 0038 EA2A      		or r14,r26
 835 003a FB2A      		or r15,r27
 836               	.LVL48:
 298:./tmk_core/common/action_layer.c ****     /* check top layer first */
 299:./tmk_core/common/action_layer.c ****     for (int8_t i = 31; i >= 0; i--) {
 837               		.loc 1 299 5 is_stmt 1 view .LVU126
 838               	.LBB2:
 839               		.loc 1 299 10 view .LVU127
 840               		.loc 1 299 10 is_stmt 0 view .LVU128
 841               	.LBE2:
 297:./tmk_core/common/action_layer.c ****     /* check top layer first */
 842               		.loc 1 297 14 view .LVU129
 843 003c CFE1      		ldi r28,lo8(31)
 844 003e D0E0      		ldi r29,0
 845               	.LVL49:
 846               	.L30:
 297:./tmk_core/common/action_layer.c ****     /* check top layer first */
 847               		.loc 1 297 14 view .LVU130
 848 0040 BC2E      		mov r11,r28
 849               	.LVL50:
 850               	.LBB3:
 300:./tmk_core/common/action_layer.c ****         if (layers & (1UL<<i)) {
 851               		.loc 1 300 9 is_stmt 1 view .LVU131
 852               		.loc 1 300 13 is_stmt 0 view .LVU132
 853 0042 D701      		movw r26,r14
 854 0044 C601      		movw r24,r12
 855 0046 0C2E      		mov r0,r28
 856 0048 00C0      		rjmp 2f
 857               		1:
 858 004a B695      		lsr r27
 859 004c A795      		ror r26
 860 004e 9795      		ror r25
 861 0050 8795      		ror r24
 862               		2:
 863 0052 0A94      		dec r0
 864 0054 02F4      		brpl 1b
 865               		.loc 1 300 12 view .LVU133
 866 0056 80FD      		sbrc r24,0
 867 0058 00C0      		rjmp .L29
 868               	.L32:
 869               	.LVL51:
 870               		.loc 1 300 12 view .LVU134
 871               	.LVL52:
 872 005a 2197      		sbiw r28,1
 873 005c 00F4      		brcc .L30
 874               		.loc 1 300 12 view .LVU135
 875               	.LBE3:
 301:./tmk_core/common/action_layer.c ****             action = action_for_key(i, key);
 302:./tmk_core/common/action_layer.c ****             if (action.code != ACTION_TRANSPARENT) {
 303:./tmk_core/common/action_layer.c ****                 return i;
 304:./tmk_core/common/action_layer.c ****             }
 305:./tmk_core/common/action_layer.c ****         }
 306:./tmk_core/common/action_layer.c ****     }
 307:./tmk_core/common/action_layer.c ****     /* fall back to layer 0 */
 308:./tmk_core/common/action_layer.c ****     return 0;
 876               		.loc 1 308 12 view .LVU136
 877 005e B12C      		mov r11,__zero_reg__
 878               	.LVL53:
 879               	.L28:
 309:./tmk_core/common/action_layer.c **** #else
 310:./tmk_core/common/action_layer.c ****     return biton32(default_layer_state);
 311:./tmk_core/common/action_layer.c **** #endif
 312:./tmk_core/common/action_layer.c **** }
 880               		.loc 1 312 1 view .LVU137
 881 0060 8B2D      		mov r24,r11
 882               	/* epilogue start */
 883 0062 DF91      		pop r29
 884 0064 CF91      		pop r28
 885 0066 1F91      		pop r17
 886 0068 0F91      		pop r16
 887               	.LVL54:
 888               		.loc 1 312 1 view .LVU138
 889 006a FF90      		pop r15
 890 006c EF90      		pop r14
 891 006e DF90      		pop r13
 892 0070 CF90      		pop r12
 893               	.LVL55:
 894               		.loc 1 312 1 view .LVU139
 895 0072 BF90      		pop r11
 896 0074 0895      		ret
 897               	.LVL56:
 898               	.L29:
 899               	.LBB4:
 301:./tmk_core/common/action_layer.c ****             action = action_for_key(i, key);
 900               		.loc 1 301 13 is_stmt 1 view .LVU140
 301:./tmk_core/common/action_layer.c ****             action = action_for_key(i, key);
 901               		.loc 1 301 22 is_stmt 0 view .LVU141
 902 0076 B801      		movw r22,r16
 903 0078 8C2F      		mov r24,r28
 904 007a 0E94 0000 		call action_for_key
 905               	.LVL57:
 302:./tmk_core/common/action_layer.c ****                 return i;
 906               		.loc 1 302 13 is_stmt 1 view .LVU142
 302:./tmk_core/common/action_layer.c ****                 return i;
 907               		.loc 1 302 16 is_stmt 0 view .LVU143
 908 007e 0197      		sbiw r24,1
 909 0080 01F0      		breq .L32
 910 0082 00C0      		rjmp .L28
 911               	.LBE4:
 912               		.cfi_endproc
 913               	.LFE26:
 915               		.section	.text.layer_switch_get_action,"ax",@progbits
 916               	.global	layer_switch_get_action
 918               	layer_switch_get_action:
 919               	.LVL58:
 920               	.LFB27:
 313:./tmk_core/common/action_layer.c **** 
 314:./tmk_core/common/action_layer.c **** /** \brief Layer switch get layer
 315:./tmk_core/common/action_layer.c ****  *
 316:./tmk_core/common/action_layer.c ****  * FIXME: Needs docs
 317:./tmk_core/common/action_layer.c ****  */
 318:./tmk_core/common/action_layer.c **** action_t layer_switch_get_action(keypos_t key)
 319:./tmk_core/common/action_layer.c **** {
 921               		.loc 1 319 1 is_stmt 1 view -0
 922               		.cfi_startproc
 923               		.loc 1 319 1 is_stmt 0 view .LVU145
 924 0000 CF93      		push r28
 925               	.LCFI29:
 926               		.cfi_def_cfa_offset 3
 927               		.cfi_offset 28, -2
 928 0002 DF93      		push r29
 929               	.LCFI30:
 930               		.cfi_def_cfa_offset 4
 931               		.cfi_offset 29, -3
 932               	/* prologue: function */
 933               	/* frame size = 0 */
 934               	/* stack size = 2 */
 935               	.L__stack_usage = 2
 936 0004 EC01      		movw r28,r24
 320:./tmk_core/common/action_layer.c ****     return action_for_key(layer_switch_get_layer(key), key);
 937               		.loc 1 320 5 is_stmt 1 view .LVU146
 938               		.loc 1 320 27 is_stmt 0 view .LVU147
 939 0006 0E94 0000 		call layer_switch_get_layer
 940               	.LVL59:
 941               		.loc 1 320 12 view .LVU148
 942 000a BE01      		movw r22,r28
 943               	/* epilogue start */
 321:./tmk_core/common/action_layer.c **** }
 944               		.loc 1 321 1 view .LVU149
 945 000c DF91      		pop r29
 946 000e CF91      		pop r28
 947               	.LVL60:
 320:./tmk_core/common/action_layer.c ****     return action_for_key(layer_switch_get_layer(key), key);
 948               		.loc 1 320 12 view .LVU150
 949 0010 0C94 0000 		jmp action_for_key
 950               	.LVL61:
 951               		.cfi_endproc
 952               	.LFE27:
 954               		.section	.text.store_or_get_action,"ax",@progbits
 955               	.global	store_or_get_action
 957               	store_or_get_action:
 958               	.LVL62:
 959               	.LFB25:
 265:./tmk_core/common/action_layer.c **** #if !defined(NO_ACTION_LAYER) && defined(PREVENT_STUCK_MODIFIERS)
 960               		.loc 1 265 1 is_stmt 1 view -0
 961               		.cfi_startproc
 962               	/* prologue: function */
 963               	/* frame size = 0 */
 964               	/* stack size = 0 */
 965               	.L__stack_usage = 0
 265:./tmk_core/common/action_layer.c **** #if !defined(NO_ACTION_LAYER) && defined(PREVENT_STUCK_MODIFIERS)
 966               		.loc 1 265 1 is_stmt 0 view .LVU152
 967 0000 CB01      		movw r24,r22
 968               	.LVL63:
 282:./tmk_core/common/action_layer.c **** #endif
 969               		.loc 1 282 5 is_stmt 1 view .LVU153
 282:./tmk_core/common/action_layer.c **** #endif
 970               		.loc 1 282 12 is_stmt 0 view .LVU154
 971 0002 0C94 0000 		jmp layer_switch_get_action
 972               	.LVL64:
 282:./tmk_core/common/action_layer.c **** #endif
 973               		.loc 1 282 12 view .LVU155
 974               		.cfi_endproc
 975               	.LFE25:
 977               	.global	layer_state
 978               		.section	.bss.layer_state,"aw",@nobits
 981               	layer_state:
 982 0000 0000 0000 		.zero	4
 983               	.global	default_layer_state
 984               		.section	.bss.default_layer_state,"aw",@nobits
 987               	default_layer_state:
 988 0000 0000 0000 		.zero	4
 989               		.text
 990               	.Letext0:
 991               		.file 2 "/usr/local/Cellar/avr-gcc@8/8.3.0_1/avr/include/stdint.h"
 992               		.file 3 "./tmk_core/common/keyboard.h"
 993               		.file 4 "./tmk_core/common/action_code.h"
 994               		.file 5 "./tmk_core/common/action_layer.h"
 995               		.file 6 "./tmk_core/common/debug.h"
 996               		.file 7 "./tmk_core/common/action.h"