   1               		.file	"keymap.c"
   2               	__SP_H__ = 0x3e
   3               	__SP_L__ = 0x3d
   4               	__SREG__ = 0x3f
   5               	__tmp_reg__ = 0
   6               	__zero_reg__ = 1
   7               		.text
   8               	.Ltext0:
   9               		.cfi_sections	.debug_frame
  10               		.section	.text.cmd_commands,"ax",@progbits
  11               	.global	cmd_commands
  13               	cmd_commands:
  14               	.LFB30:
  15               		.file 1 "keyboards/Manuform56/keymaps/Aaron/keymap.c"
   1:keyboards/Manuform56/keymaps/Aaron/keymap.c **** #include "Manuform.h"
   2:keyboards/Manuform56/keymaps/Aaron/keymap.c **** #include "action_layer.h"
   3:keyboards/Manuform56/keymaps/Aaron/keymap.c **** #include "eeconfig.h"
   4:keyboards/Manuform56/keymaps/Aaron/keymap.c **** 
   5:keyboards/Manuform56/keymaps/Aaron/keymap.c **** extern keymap_config_t keymap_config;
   6:keyboards/Manuform56/keymaps/Aaron/keymap.c **** #define _QWERTY 1
   7:keyboards/Manuform56/keymaps/Aaron/keymap.c **** #define _COLEMAK 0
   8:keyboards/Manuform56/keymaps/Aaron/keymap.c **** #define _DVORAK 2
   9:keyboards/Manuform56/keymaps/Aaron/keymap.c **** #define _LOWER 3
  10:keyboards/Manuform56/keymaps/Aaron/keymap.c **** #define _RAISE 4
  11:keyboards/Manuform56/keymaps/Aaron/keymap.c **** #define _FN3 5
  12:keyboards/Manuform56/keymaps/Aaron/keymap.c **** //#define _FN4 6
  13:keyboards/Manuform56/keymaps/Aaron/keymap.c **** #define _ADJUST 16
  14:keyboards/Manuform56/keymaps/Aaron/keymap.c **** enum {
  15:keyboards/Manuform56/keymaps/Aaron/keymap.c **** 	TD_CPY_PST = 0,
  16:keyboards/Manuform56/keymaps/Aaron/keymap.c **** 	TD_CMD,
  17:keyboards/Manuform56/keymaps/Aaron/keymap.c **** 	TD_SLSH,
  18:keyboards/Manuform56/keymaps/Aaron/keymap.c **** 	TD_VRDSK
  19:keyboards/Manuform56/keymaps/Aaron/keymap.c **** };
  20:keyboards/Manuform56/keymaps/Aaron/keymap.c **** enum custom_keycodes {
  21:keyboards/Manuform56/keymaps/Aaron/keymap.c **** 	COLEMAK = SAFE_RANGE,
  22:keyboards/Manuform56/keymaps/Aaron/keymap.c **** 	QWERTY,
  23:keyboards/Manuform56/keymaps/Aaron/keymap.c **** 	DVORAK,
  24:keyboards/Manuform56/keymaps/Aaron/keymap.c **** 	LOWER,
  25:keyboards/Manuform56/keymaps/Aaron/keymap.c **** 	RAISE,
  26:keyboards/Manuform56/keymaps/Aaron/keymap.c **** 	FN3,
  27:keyboards/Manuform56/keymaps/Aaron/keymap.c **** //	FN4,
  28:keyboards/Manuform56/keymaps/Aaron/keymap.c **** 	ADJUST,
  29:keyboards/Manuform56/keymaps/Aaron/keymap.c **** 	dance_cln_finished,
  30:keyboards/Manuform56/keymaps/Aaron/keymap.c **** };
  31:keyboards/Manuform56/keymaps/Aaron/keymap.c **** 
  32:keyboards/Manuform56/keymaps/Aaron/keymap.c **** #define KC_ KC_TRNS
  33:keyboards/Manuform56/keymaps/Aaron/keymap.c **** #define _______ KC_TRNS
  34:keyboards/Manuform56/keymaps/Aaron/keymap.c **** #define KC_CAPW LGUI(LSFT(KC_3))        // Capture whole screen
  35:keyboards/Manuform56/keymaps/Aaron/keymap.c **** #define KC_CPYW LGUI(LSFT(LCTL(KC_3)))  // Copy whole screen
  36:keyboards/Manuform56/keymaps/Aaron/keymap.c **** #define KC_CAPP LGUI(LSFT(KC_4))       // Capture portion of screen
  37:keyboards/Manuform56/keymaps/Aaron/keymap.c **** #define KC_CPYP LGUI(LSFT(LCTL(KC_4)))  // Copy portion of screen
  38:keyboards/Manuform56/keymaps/Aaron/keymap.c **** #define KC_X0 MT(MOD_LCTL, KC_ESC)
  39:keyboards/Manuform56/keymaps/Aaron/keymap.c **** #define KC_LDWN LOWER				//Numpad
  40:keyboards/Manuform56/keymaps/Aaron/keymap.c **** #define KC_LUP RAISE
  41:keyboards/Manuform56/keymaps/Aaron/keymap.c **** #define KC_TOGUP TG(4)
  42:keyboards/Manuform56/keymaps/Aaron/keymap.c **** #define KC_REST RESET
  43:keyboards/Manuform56/keymaps/Aaron/keymap.c **** #define KC_X3 LT(_FN3,KC_TAB)		//function layer 4 ie macros when held tab when pressed
  44:keyboards/Manuform56/keymaps/Aaron/keymap.c **** #define KC_X4 LT(_ADJUST, KC_ENT) //Shift when held enter when pressed
  45:keyboards/Manuform56/keymaps/Aaron/keymap.c **** #define KC_X5 LT(RAISE, KC_P0)  //Raise to functions when held P0 when pressed
  46:keyboards/Manuform56/keymaps/Aaron/keymap.c **** #define KC_X6 TD(TD_SLSH)				//slash vs backslash
  47:keyboards/Manuform56/keymaps/Aaron/keymap.c **** #define KC_X7 TD(TD_CPY_PST)		//single tap is copy double is paste
  48:keyboards/Manuform56/keymaps/Aaron/keymap.c **** #define KC_X8 TD(TD_CMD)			//single tap is cmd double is ipconfig
  49:keyboards/Manuform56/keymaps/Aaron/keymap.c **** 
  50:keyboards/Manuform56/keymaps/Aaron/keymap.c **** 
  51:keyboards/Manuform56/keymaps/Aaron/keymap.c **** #define KC_X9 RGUI(KC_TAB)	//gui tab to switch desktops
  52:keyboards/Manuform56/keymaps/Aaron/keymap.c **** #define KC_X10 TD(TD_VRDSK)
  53:keyboards/Manuform56/keymaps/Aaron/keymap.c **** 
  54:keyboards/Manuform56/keymaps/Aaron/keymap.c **** 
  55:keyboards/Manuform56/keymaps/Aaron/keymap.c **** #define KC_XLgn M(1)
  56:keyboards/Manuform56/keymaps/Aaron/keymap.c **** #define KC_EMAL M(2)
  57:keyboards/Manuform56/keymaps/Aaron/keymap.c **** #define KC_WWWX M(3)
  58:keyboards/Manuform56/keymaps/Aaron/keymap.c **** #define KC_NTAB M(4)
  59:keyboards/Manuform56/keymaps/Aaron/keymap.c **** #define KC_0CA M(6)
  60:keyboards/Manuform56/keymaps/Aaron/keymap.c **** #define KC_PASS M(10)
  61:keyboards/Manuform56/keymaps/Aaron/keymap.c **** #define KC_IPCF M(11)
  62:keyboards/Manuform56/keymaps/Aaron/keymap.c **** #define KC_CMD M(16)
  63:keyboards/Manuform56/keymaps/Aaron/keymap.c **** #define KC_OP M(12)
  64:keyboards/Manuform56/keymaps/Aaron/keymap.c **** #define KC_OC M(13)
  65:keyboards/Manuform56/keymaps/Aaron/keymap.c **** #define KC_OD M(14)
  66:keyboards/Manuform56/keymaps/Aaron/keymap.c **** #define KC_TCLK M(15)
  67:keyboards/Manuform56/keymaps/Aaron/keymap.c **** #define KC_ESCT MT(MOD_LCTL, KC_ESC)
  68:keyboards/Manuform56/keymaps/Aaron/keymap.c **** #define KC_GUIT M(0)
  69:keyboards/Manuform56/keymaps/Aaron/keymap.c **** 
  70:keyboards/Manuform56/keymaps/Aaron/keymap.c **** const uint16_t PROGMEM keymaps[][MATRIX_ROWS][MATRIX_COLS] = {
  71:keyboards/Manuform56/keymaps/Aaron/keymap.c **** /* Keymap 0: Basic layer
  72:keyboards/Manuform56/keymaps/Aaron/keymap.c ****  *
  73:keyboards/Manuform56/keymaps/Aaron/keymap.c ****  * ,-------------------------------------------.           ,----------------------------------_----
  74:keyboards/Manuform56/keymaps/Aaron/keymap.c ****  * |   =    |   1  |   2  |   3  |   4  |   5  |           |   6  |   7  |   8  |   9  |   0  |   -
  75:keyboards/Manuform56/keymaps/Aaron/keymap.c ****  * |--------+------+------+------+------+------|           |------+------+------+------+------|----
  76:keyboards/Manuform56/keymaps/Aaron/keymap.c ****  * |Tab\FN3 |   Q  |   W  |   F  |   P  |   G  |           |   J  |   L  |   U  |   Y  |   :  |   \
  77:keyboards/Manuform56/keymaps/Aaron/keymap.c ****  * |--------+------+------+------+------+----- |           |------+------+------+------+------|----
  78:keyboards/Manuform56/keymaps/Aaron/keymap.c ****  * | ENT/ADJ|   A  |   R  |   S  |   T  |   D  |           |   H  |   N  |   E  |   I  |   O  | ENT
  79:keyboards/Manuform56/keymaps/Aaron/keymap.c ****  * |--------+------+------+------+------+------|           |------+------+------+------+------|----
  80:keyboards/Manuform56/keymaps/Aaron/keymap.c ****  * | LShift |   Z  |   X  |   C  |   V  |   B  |           |   K  |   M  |   ,  |   .  |  /   |RShi
  81:keyboards/Manuform56/keymaps/Aaron/keymap.c ****  * `--------+------+------+------+------+------'           `-------+------+------+------+------|---
  82:keyboards/Manuform56/keymaps/Aaron/keymap.c ****  * |CTR     |  ALT | GUI  | Left | Right|      |           |      |      | LEFT | RIGHT|  UP  | DOW
  83:keyboards/Manuform56/keymaps/Aaron/keymap.c ****  * `--------------------------------------------'           ---------------------------------------
  84:keyboards/Manuform56/keymaps/Aaron/keymap.c ****  *                 | Left | Right|Backsp| L2   |	   	   |Enter| Space| DEL | SCRN |
  85:keyboards/Manuform56/keymaps/Aaron/keymap.c ****  *				   -----------------------------		    -----------------------------
  86:keyboards/Manuform56/keymaps/Aaron/keymap.c ****  *                				 |      |ctrTab|			|     |      |
  87:keyboards/Manuform56/keymaps/Aaron/keymap.c ****  *				   ------------------------------		    -----------------------------
  88:keyboards/Manuform56/keymaps/Aaron/keymap.c ****  *								 |PGUP  |PGDWN |			|Home |END|
  89:keyboards/Manuform56/keymaps/Aaron/keymap.c ****  
  90:keyboards/Manuform56/keymaps/Aaron/keymap.c ****  222222222
  91:keyboards/Manuform56/keymaps/Aaron/keymap.c ****  | 4|  2| 3  | 1 |				|  1 | 3  | 2  | 4  |
  92:keyboards/Manuform56/keymaps/Aaron/keymap.c **** 
  93:keyboards/Manuform56/keymaps/Aaron/keymap.c ****  |   1 |  2  |					|  2  | 1   |
  94:keyboards/Manuform56/keymaps/Aaron/keymap.c ****  |  3  |  4  |					|  4  | 3   |
  95:keyboards/Manuform56/keymaps/Aaron/keymap.c **** 
  96:keyboards/Manuform56/keymaps/Aaron/keymap.c ****  
  97:keyboards/Manuform56/keymaps/Aaron/keymap.c ****  
  98:keyboards/Manuform56/keymaps/Aaron/keymap.c ****  
  99:keyboards/Manuform56/keymaps/Aaron/keymap.c ****  2a
 100:keyboards/Manuform56/keymaps/Aaron/keymap.c **** 		6	5		4	 
 101:keyboards/Manuform56/keymaps/Aaron/keymap.c **** 		3		2			2		 3		4		5		6
 102:keyboards/Manuform56/keymaps/Aaron/keymap.c ****  *                                 ,-------------.       ,-------------.
 103:keyboards/Manuform56/keymaps/Aaron/keymap.c ****  *                                 |   6  |   5  |       | 5    |  6     |
 104:keyboards/Manuform56/keymaps/Aaron/keymap.c ****  *                          ,------|------|------|       |------+--------+------.
 105:keyboards/Manuform56/keymaps/Aaron/keymap.c ****  *                          |      |      |   4  |       | 4    |        |      |
 106:keyboards/Manuform56/keymaps/Aaron/keymap.c ****  *                          |Backsp|GUI   |------|       |------|    1   |    2 |
 107:keyboards/Manuform56/keymaps/Aaron/keymap.c ****  *                          |  acs |TAB   |   3  |       | 3    |        |      |
 108:keyboards/Manuform56/keymaps/Aaron/keymap.c ****  *32233222`--------------------'       `----------------------'
 109:keyboards/Manuform56/keymaps/Aaron/keymap.c ****  	ESCT,LALT,LGUI,   1,  1 ,GRV,     DEL ,   ,LEFT,RIGHT,   ,QUOT, */	
 110:keyboards/Manuform56/keymaps/Aaron/keymap.c **** 	
 111:keyboards/Manuform56/keymaps/Aaron/keymap.c **** 			[_COLEMAK] = KC_KEYMAP(
 112:keyboards/Manuform56/keymaps/Aaron/keymap.c **** 	//,----+----+----+----+----+----.    ,----+----+----+----+----+----.
 113:keyboards/Manuform56/keymaps/Aaron/keymap.c **** 		EQL, 1  , 2  , 3  , 4  , 5  ,      6  , 7  , 8  , 9 , 0   ,MINS,
 114:keyboards/Manuform56/keymaps/Aaron/keymap.c **** 	//,----+----+----+----+----+----.    ,----+----+----+----+----+----.
 115:keyboards/Manuform56/keymaps/Aaron/keymap.c **** 		X3 , Q  , W  , F  , P  , G  ,      J  , L  , U  , Y  ,SCLN,BSLS,
 116:keyboards/Manuform56/keymaps/Aaron/keymap.c **** 	//|----+----+----+----+----+----|    |----+----+----+----+----+----|
 117:keyboards/Manuform56/keymaps/Aaron/keymap.c **** 		X4 , A  , R  , S  , T  , D  ,      H  , N  , E  , I  , O  ,ENT,
 118:keyboards/Manuform56/keymaps/Aaron/keymap.c **** 	//|----+----+----+----+----+----|    |----+----+----+----+----+----|
 119:keyboards/Manuform56/keymaps/Aaron/keymap.c **** 		LSFT, Z  , X  , C  , V  , B  ,     K  , M  ,COMM,DOT ,SLSH,GRV,
 120:keyboards/Manuform56/keymaps/Aaron/keymap.c **** 	//|----+----+----+----+----+----|    |----+----+----+----+----+----|
 121:keyboards/Manuform56/keymaps/Aaron/keymap.c **** 	//`----+----+----+----+----+----'    `----+----+----+----+----+----'
 122:keyboards/Manuform56/keymaps/Aaron/keymap.c **** 		   ,    ,LEFT,RIGHT,BSPC,LDWN,    ENT ,SPC ,UP ,DOWN,    ,    ,
 123:keyboards/Manuform56/keymaps/Aaron/keymap.c **** 	//`----+----+----+----+----+----'    `----+----+----+----+----+----'
 124:keyboards/Manuform56/keymaps/Aaron/keymap.c **** 	       ,     ,ESCT,GRV, GUIT, PSCR,    DEL , LUP, PGUP , PGDN ,     , 
 125:keyboards/Manuform56/keymaps/Aaron/keymap.c **** 	),
 126:keyboards/Manuform56/keymaps/Aaron/keymap.c **** 	
 127:keyboards/Manuform56/keymaps/Aaron/keymap.c **** 		[_QWERTY] = KC_KEYMAP(
 128:keyboards/Manuform56/keymaps/Aaron/keymap.c **** 	//,----+----+----+----+----+----.    ,----+----+----+----+----+----.
 129:keyboards/Manuform56/keymaps/Aaron/keymap.c **** 		EQL, 1  , 2  , 3  , 4  , 5  ,      6  , 7  , 8  , 9 , 0  ,MINS,
 130:keyboards/Manuform56/keymaps/Aaron/keymap.c **** 	//,----+----+----+----+----+----.    ,----+----+----+----+----+----.
 131:keyboards/Manuform56/keymaps/Aaron/keymap.c **** 		X3 , Q  , W  , E  , R  , T  ,      Y  , U  , I  , O , P  ,BSLS,
 132:keyboards/Manuform56/keymaps/Aaron/keymap.c **** 	//|----+----+----+----+----+----|    |----+----+----+----+----+----|
 133:keyboards/Manuform56/keymaps/Aaron/keymap.c **** 		X4 , A  , S  , D  , F  , G  ,      H  , J  , K  , L  ,SCLN,ENT,
 134:keyboards/Manuform56/keymaps/Aaron/keymap.c **** 	//|----+----+----+----+----+----|    |----+----+----+----+----+----|
 135:keyboards/Manuform56/keymaps/Aaron/keymap.c **** 		LSFT , Z  , X  , C  , V  , B  ,      N  , M  ,COMM,DOT,SLSH,GRV,
 136:keyboards/Manuform56/keymaps/Aaron/keymap.c **** 	//|----+----+----+----+----+----|    |----+----+----+----+----+----|
 137:keyboards/Manuform56/keymaps/Aaron/keymap.c **** 	//`----+----+----+----+----+----'    `----+----+----+----+----+----'
 138:keyboards/Manuform56/keymaps/Aaron/keymap.c **** 		   ,HOME,ESC ,PSCR,GUIT,LDWN,	   ENT,LUP ,DEL ,HOME,END,     ,
 139:keyboards/Manuform56/keymaps/Aaron/keymap.c **** 	//`----+----+----+----+----+----'    `----+----+----+----+----+----'
 140:keyboards/Manuform56/keymaps/Aaron/keymap.c **** 		X3  , 1  , 2  , 3  , 4  , 5  ,      2  , 2  , 2  , 2 , 2  ,MINS
 141:keyboards/Manuform56/keymaps/Aaron/keymap.c **** 	),
 142:keyboards/Manuform56/keymaps/Aaron/keymap.c **** 
 143:keyboards/Manuform56/keymaps/Aaron/keymap.c **** 	[_DVORAK] = KC_KEYMAP(
 144:keyboards/Manuform56/keymaps/Aaron/keymap.c **** 	//,----+----+----+----+----+----.    ,----+----+----+----+----+----.
 145:keyboards/Manuform56/keymaps/Aaron/keymap.c **** 		EQL, 1  , 2  , 3  , 4  , 5  ,      6  , 7  , 8  , 9 , 0  ,MINS,
 146:keyboards/Manuform56/keymaps/Aaron/keymap.c **** 	//,----+----+----+----+----+----.    ,----+----+----+----+----+----.
 147:keyboards/Manuform56/keymaps/Aaron/keymap.c **** 		TAB ,QUOT,COMM,DOT , P  , Y  ,      F  , G  , C  , R  , L  ,MINS,
 148:keyboards/Manuform56/keymaps/Aaron/keymap.c **** 	//|----+----+----+----+----+----|    |----+----+----+----+----+----|
 149:keyboards/Manuform56/keymaps/Aaron/keymap.c **** 		X0 , A  , O  , E  , U  , I  ,      D  , H  , T  , N  , S  ,SLSH,
 150:keyboards/Manuform56/keymaps/Aaron/keymap.c **** 	//|----+----+----+----+----+----|    |----+----+----+----+----+----|
 151:keyboards/Manuform56/keymaps/Aaron/keymap.c **** 		LSFT,SCLN, Q  , J  , K  , X  ,      B  , M  , W  , V  , Z  , X4 ,
 152:keyboards/Manuform56/keymaps/Aaron/keymap.c **** 	//|----+----+----+----+----+----|    |----+----+----+----+----+----|
 153:keyboards/Manuform56/keymaps/Aaron/keymap.c **** 	//`----+----+----+----+----+----'    `----+----+----+----+----+----'
 154:keyboards/Manuform56/keymaps/Aaron/keymap.c **** 		X3  , 1  , 2  , 3  , 4  , 5  ,      2  , 2  , 2  , 2 , 2  ,MINS,
 155:keyboards/Manuform56/keymaps/Aaron/keymap.c **** 	//`----+----+----+----+----+----'    `----+----+----+----+----+----'
 156:keyboards/Manuform56/keymaps/Aaron/keymap.c **** 		X3  , 1  , 2  , 3  , 4  , 5  ,      2  , 2  , 2  , 2 , 2  ,MINS
 157:keyboards/Manuform56/keymaps/Aaron/keymap.c **** 	),
 158:keyboards/Manuform56/keymaps/Aaron/keymap.c **** /*
 159:keyboards/Manuform56/keymaps/Aaron/keymap.c **** 	[_LOWER] = KC_KEYMAP(
 160:keyboards/Manuform56/keymaps/Aaron/keymap.c **** 	//,----+----+----+----+----+----.    ,----+----+----+----+----+----.
 161:keyboards/Manuform56/keymaps/Aaron/keymap.c **** 		ESC , 1  , 2 , 3  , 4  , 5  ,      6  , 7  , 8  , 9  , 0  , EQL ,
 162:keyboards/Manuform56/keymaps/Aaron/keymap.c **** 	//|----+----+----+----+----+----|    |----+----+----+----+----+----|
 163:keyboards/Manuform56/keymaps/Aaron/keymap.c **** 		DEL ,CAPP,LEFT,RGHT, UP ,LBRC,     RBRC, P4 , P5 , P6 ,PLUS,PIPE,
 164:keyboards/Manuform56/keymaps/Aaron/keymap.c **** 	//|----+----+----+----+----+----|    |----+----+----+----+----+----|
 165:keyboards/Manuform56/keymaps/Aaron/keymap.c **** 			,CPYP, UP ,    ,DOWN,LCBR,     RCBR, P1 , P2 , P3 ,MINS,    ,
 166:keyboards/Manuform56/keymaps/Aaron/keymap.c **** 	//|----+----+----+----+----+----|    |----+----+----+----+----+----|
 167:keyboards/Manuform56/keymaps/Aaron/keymap.c **** 			,LEFT,DOWN,RIGHT,    ,    ,     DEL ,   , P0 ,PDOT,    ,  NLCK, 
 168:keyboards/Manuform56/keymaps/Aaron/keymap.c **** 	//`----+----+----+----+----+----'    `----+----+----+----+----+----'
 169:keyboards/Manuform56/keymaps/Aaron/keymap.c **** 		X0 ,LALT,LGUI, X10, LDWN ,BSPC,     SPC, UP ,QUOT,LEFT, DOWN ,RGHT,
 170:keyboards/Manuform56/keymaps/Aaron/keymap.c **** 	//`----+----+----+----+----+----'    `----+----+----+----+----+----'
 171:keyboards/Manuform56/keymaps/Aaron/keymap.c **** 		X3  , 1  ,REST, 3  ,    , 5  ,      6  ,    , 8  , 9 , 0  ,MINS
 172:keyboards/Manuform56/keymaps/Aaron/keymap.c **** 	//`----+----+----+----+----+----'    `----+----+----+----+----+----'
 173:keyboards/Manuform56/keymaps/Aaron/keymap.c **** 	),
 174:keyboards/Manuform56/keymaps/Aaron/keymap.c **** 
 175:keyboards/Manuform56/keymaps/Aaron/keymap.c **** 	[_RAISE] = KC_KEYMAP(
 176:keyboards/Manuform56/keymaps/Aaron/keymap.c **** 	//,----+----+----+----+----+----.    ,----+----+----+----+----+----.
 177:keyboards/Manuform56/keymaps/Aaron/keymap.c **** 		ESC ,EXLM, AT ,HASH,DLR ,PERC,     CIRC,AMPR,ASTR,LPRN,RPRN,    ,
 178:keyboards/Manuform56/keymaps/Aaron/keymap.c **** 	//|----+----+----+----+----+----|    |----+----+----+----+----+----|
 179:keyboards/Manuform56/keymaps/Aaron/keymap.c **** 		DEL ,MPRV,MNXT,VOLU,PGUP,UNDS,     EQL ,HOME,    ,    ,    ,BSLS,
 180:keyboards/Manuform56/keymaps/Aaron/keymap.c **** 	//|----+----+----+----+----+----|    |----+----+----+----+----+----|88
 181:keyboards/Manuform56/keymaps/Aaron/keymap.c **** 		LSFT,MSTP,MPLY,VOLD,PGDN,MINS,     PLUS,END,COMM ,    ,UP ,    ,
 182:keyboards/Manuform56/keymaps/Aaron/keymap.c **** 	//|----+----+----+----+----+----|    |----+----+----+----+----+----|
 183:keyboards/Manuform56/keymaps/Aaron/keymap.c **** 		,    ,    , X3 ,    ,    ,         ,    ,    ,LEFT,DOWN,RIGHT,    
 184:keyboards/Manuform56/keymaps/Aaron/keymap.c **** 	//`----+----+----+----+----+----'    `----+----+----+----+----+----'
 185:keyboards/Manuform56/keymaps/Aaron/keymap.c **** 		X0 ,LALT,LGUI, X10, LDWN ,BSPC,     SPC, UP ,QUOT,LEFT, DOWN ,RGHT,
 186:keyboards/Manuform56/keymaps/Aaron/keymap.c **** 	//`----+----+----+----+----+----'    `----+----+----+----+----+----'
 187:keyboards/Manuform56/keymaps/Aaron/keymap.c **** 		X3  , 1  , 2  , 3  ,   , 5  ,      6  ,   , 8  ,REST, 0  ,MINS
 188:keyboards/Manuform56/keymaps/Aaron/keymap.c **** 	//`----+----+----+----+----+----'    `----+----+----+----+----+----'
 189:keyboards/Manuform56/keymaps/Aaron/keymap.c **** 	),*/
 190:keyboards/Manuform56/keymaps/Aaron/keymap.c **** 	
 191:keyboards/Manuform56/keymaps/Aaron/keymap.c **** 	[_LOWER] = KC_KEYMAP(
 192:keyboards/Manuform56/keymaps/Aaron/keymap.c **** 	//,----+----+----+----+----+----.    ,----+----+----+----+----+----.
 193:keyboards/Manuform56/keymaps/Aaron/keymap.c **** 		GRV, OP ,OC  , OD ,    ,    ,         ,    ,    ,LBRC,RBRC,  ,
 194:keyboards/Manuform56/keymaps/Aaron/keymap.c **** 	//|----+----+----+----+----+----|    |----+----+----+----+----+----|
 195:keyboards/Manuform56/keymaps/Aaron/keymap.c **** 		  ,     ,WWWX,EMAL,    ,TCLK,         ,    ,    ,CMD ,PASS,   ,
 196:keyboards/Manuform56/keymaps/Aaron/keymap.c **** 	//|----+----+----+----+----+----|    |----+----+----+----+----+----|
 197:keyboards/Manuform56/keymaps/Aaron/keymap.c **** 		   ,0CA ,     ,   ,    ,    ,         ,    , UP ,IPCF,     ,   ,
 198:keyboards/Manuform56/keymaps/Aaron/keymap.c **** 	//|----+----+----+----+----+----|    |----+----+----+----+----+----|
 199:keyboards/Manuform56/keymaps/Aaron/keymap.c **** 		  ,    ,XLgn,     ,    ,    ,         ,LEFT,DOWN,RIGHT,    ,   ,
 200:keyboards/Manuform56/keymaps/Aaron/keymap.c **** 	//|----+----+----+----+----+----|    |----+----+----+----+----+----|
 201:keyboards/Manuform56/keymaps/Aaron/keymap.c **** 		REST,    ,    ,    ,    , REST  ,         ,    ,    ,    ,    ,REST,
 202:keyboards/Manuform56/keymaps/Aaron/keymap.c **** 	//|----+----+----+----+----+----|    |----+----+----+----+----+----|
 203:keyboards/Manuform56/keymaps/Aaron/keymap.c **** 	//`----+----+----+----+----+----'    `----+----+----+----+----+----'
 204:keyboards/Manuform56/keymaps/Aaron/keymap.c **** 		X3  ,   ,   ,    ,    ,    ,          ,    ,    ,    ,    ,MINS
 205:keyboards/Manuform56/keymaps/Aaron/keymap.c **** 	),
 206:keyboards/Manuform56/keymaps/Aaron/keymap.c **** 
 207:keyboards/Manuform56/keymaps/Aaron/keymap.c **** 	
 208:keyboards/Manuform56/keymaps/Aaron/keymap.c **** 	[_RAISE] = KC_KEYMAP(
 209:keyboards/Manuform56/keymaps/Aaron/keymap.c **** 	//,----+----+----+----+----+----.    ,----+----+----+----+----+----.
 210:keyboards/Manuform56/keymaps/Aaron/keymap.c **** 		GRV, 1  , 2  , 3  , 4  , 5  ,      6  , 7  , 8  , 9, 0   ,MINS,
 211:keyboards/Manuform56/keymaps/Aaron/keymap.c **** 	//|----+----+----+----+----+----|    |----+----+----+----+----+----|
 212:keyboards/Manuform56/keymaps/Aaron/keymap.c **** 		8 , 1  , WWWX, 1  , 1  , 1  ,      NO , 4  , 5  , 6  ,PMNS, NO   , 
 213:keyboards/Manuform56/keymaps/Aaron/keymap.c **** 	//|----+----+----+----+----+----|    |----+----+----+----+----+----|
 214:keyboards/Manuform56/keymaps/Aaron/keymap.c **** 		8 , 1  , 1  , 1  , 1  , 1  ,       NO , 1   , 2  ,  3 ,PPLS, NO   ,
 215:keyboards/Manuform56/keymaps/Aaron/keymap.c **** 	//|----+----+----+----+----+----|    |----+----+----+----+----+----|
 216:keyboards/Manuform56/keymaps/Aaron/keymap.c **** 		8 , 1  ,1, 1  , 1  , 1  ,          NO , 0  , 0  , DOT , NO, NO,
 217:keyboards/Manuform56/keymaps/Aaron/keymap.c **** 	//|----+----+----+----+----+----|    |----+----+----+----+----+----|
 218:keyboards/Manuform56/keymaps/Aaron/keymap.c **** 		ESCT,LALT,LGUI,   1,  1 ,GRV,     DEL ,   ,LEFT,RIGHT,   ,QUOT,
 219:keyboards/Manuform56/keymaps/Aaron/keymap.c **** 	//`----+----+----+----+----+----'    `----+----+----+----+----+----'
 220:keyboards/Manuform56/keymaps/Aaron/keymap.c **** 		X3  ,   ,   ,    ,    ,    ,          ,    ,    ,    ,    ,MINS
 221:keyboards/Manuform56/keymaps/Aaron/keymap.c **** 	),
 222:keyboards/Manuform56/keymaps/Aaron/keymap.c **** 	
 223:keyboards/Manuform56/keymaps/Aaron/keymap.c **** 	
 224:keyboards/Manuform56/keymaps/Aaron/keymap.c **** 	[_FN3] = KC_KEYMAP(
 225:keyboards/Manuform56/keymaps/Aaron/keymap.c **** 	//,----+----+----+----+----+----.    ,----+----+----+----+----+----.
 226:keyboards/Manuform56/keymaps/Aaron/keymap.c **** 		F12 , F1 , F2 , F3 , F4 , F5 ,      F6 , F7 , F8 , F9 ,F10 ,F11 ,
 227:keyboards/Manuform56/keymaps/Aaron/keymap.c **** 	//|----+----+----+----+----+----|    |----+----+----+----+----+----|
 228:keyboards/Manuform56/keymaps/Aaron/keymap.c **** 			, 3 , 3,  3, 3  , 3  ,         ,    ,    ,    ,    ,    ,
 229:keyboards/Manuform56/keymaps/Aaron/keymap.c **** 	//|----+----+----+----+----+----|    |----+----+----+----+----+----|
 230:keyboards/Manuform56/keymaps/Aaron/keymap.c **** 			,    ,UP,    ,    ,    ,         ,    ,    ,    , UP ,    ,
 231:keyboards/Manuform56/keymaps/Aaron/keymap.c **** 	//|----+----+----+----+----+----|    |----+----+----+----+----+----|
 232:keyboards/Manuform56/keymaps/Aaron/keymap.c **** 		X0 ,LALT,LGUI, X10, LDWN ,BSPC,     SPC, UP ,QUOT,LEFT, DOWN ,RGHT,
 233:keyboards/Manuform56/keymaps/Aaron/keymap.c **** 	//`----+----+----+----+----+----'    `----+----+----+----+----+----'
 234:keyboards/Manuform56/keymaps/Aaron/keymap.c **** 		X3  , 1  , 2  , 3  , 4  , 5  ,      6  , 7  , 8  , 9 , 0  ,MINS,
 235:keyboards/Manuform56/keymaps/Aaron/keymap.c **** 	//`----+----+----+----+----+----'    `----+----+----+----+----+----'
 236:keyboards/Manuform56/keymaps/Aaron/keymap.c **** 		X3  , 1  , 2  , 3  , 4  , 5  ,      2  , 2  , 2  , 2 , 2  ,MINS
 237:keyboards/Manuform56/keymaps/Aaron/keymap.c **** 	),
 238:keyboards/Manuform56/keymaps/Aaron/keymap.c **** /*
 239:keyboards/Manuform56/keymaps/Aaron/keymap.c **** 	[_FN4] = KEYMAP( \
 240:keyboards/Manuform56/keymaps/Aaron/keymap.c **** 	_______, _______, M(3)   , M(2)     , _______,  M(4)  ,		 _______, _______, _______, _______, ____
 241:keyboards/Manuform56/keymaps/Aaron/keymap.c **** 	_______, M(6)   , _______, _______  , _______, _______,		 _______, _______, _______, _______, ____
 242:keyboards/Manuform56/keymaps/Aaron/keymap.c **** 	_______, _______, M(1)   ,TD(TD_CMD), _______, _______,		 _______, _______, _______, _______, KC_U
 243:keyboards/Manuform56/keymaps/Aaron/keymap.c **** 	M(7)   , M(8)   , M(9)   , _______  , _______, _______,		 _______, _______, _______, KC_LEFT, KC_D
 244:keyboards/Manuform56/keymaps/Aaron/keymap.c **** 	_______, _______, _______, _______  , _______, _______,		 _______, _______, _______, _______, ____
 245:keyboards/Manuform56/keymaps/Aaron/keymap.c **** 	_______, _______ , _______, _______  , _______, _______,	 _______, _______, _______, _______, ____
 246:keyboards/Manuform56/keymaps/Aaron/keymap.c **** 	),*/
 247:keyboards/Manuform56/keymaps/Aaron/keymap.c **** 
 248:keyboards/Manuform56/keymaps/Aaron/keymap.c **** 	/* Adjust (Lower + Raise)
 249:keyboards/Manuform56/keymaps/Aaron/keymap.c **** * ,-----------------------------------------------------------------------------------.
 250:keyboards/Manuform56/keymaps/Aaron/keymap.c **** * |      | Reset|RGB Tg|RGB Md|Hue Up|Hue Dn|Sat Up|Sat Dn|Val Up|Val Dn| RESET|      |
 251:keyboards/Manuform56/keymaps/Aaron/keymap.c **** * |------+------+------+------+------+-------------+------+------+------+------+------|
 252:keyboards/Manuform56/keymaps/Aaron/keymap.c **** * |      |      |      |Aud on|Audoff|AGnorm|AGswap|Qwerty|Colemk|Dvorak|      |      |
 253:keyboards/Manuform56/keymaps/Aaron/keymap.c **** * |------+------+------+------+------+------|------+------+------+------+------+------|
 254:keyboards/Manuform56/keymaps/Aaron/keymap.c **** * |      |      |      |      |      |      |      |      |      |      |      |      |
 255:keyboards/Manuform56/keymaps/Aaron/keymap.c **** * |------+------+------+------+------+------+------+------+------+------+------+------|
 256:keyboards/Manuform56/keymaps/Aaron/keymap.c **** * |      |      |      |      |      |             |      |      |      |      |      |
 257:keyboards/Manuform56/keymaps/Aaron/keymap.c **** * `-----------------------------------------------------------------------------------'
 258:keyboards/Manuform56/keymaps/Aaron/keymap.c **** */
 259:keyboards/Manuform56/keymaps/Aaron/keymap.c **** 	[_ADJUST] = KEYMAP( \
 260:keyboards/Manuform56/keymaps/Aaron/keymap.c **** 	_______, COLEMAK, QWERTY, RGB_MOD, RGB_HUD, RGB_HUI, RGB_SAD, RGB_SAI, RGB_VAD, RGB_VAI, RESET  , 
 261:keyboards/Manuform56/keymaps/Aaron/keymap.c **** 	_______, QWERTY, _______, AU_ON,   AU_OFF,  AG_NORM, AG_SWAP, QWERTY,  COLEMAK, DVORAK,  DEBUG, __
 262:keyboards/Manuform56/keymaps/Aaron/keymap.c **** 	_______, KC_1   , KC_1   , _______, _______, _______, _______, _______, _______, _______, _______,
 263:keyboards/Manuform56/keymaps/Aaron/keymap.c **** 	_______, _______, _______, COLEMAK, _______, _______, _______, _______, _______, _______, _______,
 264:keyboards/Manuform56/keymaps/Aaron/keymap.c **** 	_______, _______, _______, _______, _______, _______, _______, _______, _______, _______, _______,
 265:keyboards/Manuform56/keymaps/Aaron/keymap.c **** 	_______, _______, _______, _______, _______, _______, _______, _______, _______, _______, _______,
 266:keyboards/Manuform56/keymaps/Aaron/keymap.c **** 	)
 267:keyboards/Manuform56/keymaps/Aaron/keymap.c **** 
 268:keyboards/Manuform56/keymaps/Aaron/keymap.c **** 
 269:keyboards/Manuform56/keymaps/Aaron/keymap.c **** };
 270:keyboards/Manuform56/keymaps/Aaron/keymap.c **** 
 271:keyboards/Manuform56/keymaps/Aaron/keymap.c **** #ifdef AUDIO_ENABLE
 272:keyboards/Manuform56/keymaps/Aaron/keymap.c **** float tone_qwerty[][2]     = SONG(QWERTY_SOUND);
 273:keyboards/Manuform56/keymaps/Aaron/keymap.c **** float tone_dvorak[][2]     = SONG(DVORAK_SOUND);
 274:keyboards/Manuform56/keymaps/Aaron/keymap.c **** float tone_colemak[][2]    = SONG(COLEMAK_SOUND);
 275:keyboards/Manuform56/keymaps/Aaron/keymap.c **** #endif
 276:keyboards/Manuform56/keymaps/Aaron/keymap.c **** 
 277:keyboards/Manuform56/keymaps/Aaron/keymap.c **** void persistent_default_layer_set(uint16_t default_layer) {
 278:keyboards/Manuform56/keymaps/Aaron/keymap.c **** 	eeconfig_update_default_layer(default_layer);
 279:keyboards/Manuform56/keymaps/Aaron/keymap.c **** 	default_layer_set(default_layer);
 280:keyboards/Manuform56/keymaps/Aaron/keymap.c **** }
 281:keyboards/Manuform56/keymaps/Aaron/keymap.c **** 
 282:keyboards/Manuform56/keymaps/Aaron/keymap.c **** /*
 283:keyboards/Manuform56/keymaps/Aaron/keymap.c **** void dance_cln_finished(void){
 284:keyboards/Manuform56/keymaps/Aaron/keymap.c **** register_code (KC_LGUI);
 285:keyboards/Manuform56/keymaps/Aaron/keymap.c **** register_code(KC_TAB);
 286:keyboards/Manuform56/keymaps/Aaron/keymap.c **** unregister_code(KC_TAB);
 287:keyboards/Manuform56/keymaps/Aaron/keymap.c **** unregister_code(KC_LGUI); 
 288:keyboards/Manuform56/keymaps/Aaron/keymap.c **** }*/
 289:keyboards/Manuform56/keymaps/Aaron/keymap.c **** 
 290:keyboards/Manuform56/keymaps/Aaron/keymap.c **** const macro_t *action_get_macro(keyrecord_t *record, uint8_t id, uint8_t opt) {
 291:keyboards/Manuform56/keymaps/Aaron/keymap.c **** 	
 292:keyboards/Manuform56/keymaps/Aaron/keymap.c **** 	switch (id) {
 293:keyboards/Manuform56/keymaps/Aaron/keymap.c **** 	case 0:
 294:keyboards/Manuform56/keymaps/Aaron/keymap.c **** 		if (record->event.pressed) {
 295:keyboards/Manuform56/keymaps/Aaron/keymap.c **** 			return MACRO(D(LGUI), T(TAB), U(LGUI), END);
 296:keyboards/Manuform56/keymaps/Aaron/keymap.c **** 		}
 297:keyboards/Manuform56/keymaps/Aaron/keymap.c **** 	case 1:
 298:keyboards/Manuform56/keymaps/Aaron/keymap.c **** 		if (record->event.pressed) {
 299:keyboards/Manuform56/keymaps/Aaron/keymap.c **** 			SEND_STRING("admin"SS_TAP(X_TAB)"1111"SS_TAP(X_ENTER));
 300:keyboards/Manuform56/keymaps/Aaron/keymap.c **** 		return false;	break;
 301:keyboards/Manuform56/keymaps/Aaron/keymap.c **** 		//	return MACRO(I(10), T(A), T(D), T(M), T(I), T(N), T(TAB), T(1), T(1),T(1), T(1), T(ENTER), END
 302:keyboards/Manuform56/keymaps/Aaron/keymap.c **** 		}
 303:keyboards/Manuform56/keymaps/Aaron/keymap.c **** 	case 2:
 304:keyboards/Manuform56/keymaps/Aaron/keymap.c **** 		if (record->event.pressed) {
 305:keyboards/Manuform56/keymaps/Aaron/keymap.c **** 			SEND_STRING("apaez@gotocos.com");
 306:keyboards/Manuform56/keymaps/Aaron/keymap.c **** 			return false;	break;
 307:keyboards/Manuform56/keymaps/Aaron/keymap.c **** 		}
 308:keyboards/Manuform56/keymaps/Aaron/keymap.c **** 	case 3:
 309:keyboards/Manuform56/keymaps/Aaron/keymap.c **** 		if (record->event.pressed) {
 310:keyboards/Manuform56/keymaps/Aaron/keymap.c **** 			SEND_STRING("www.support.xerox.com"SS_TAP(X_ENTER));
 311:keyboards/Manuform56/keymaps/Aaron/keymap.c **** 						return false;	break;
 312:keyboards/Manuform56/keymaps/Aaron/keymap.c **** 		}
 313:keyboards/Manuform56/keymaps/Aaron/keymap.c **** 	case 4:
 314:keyboards/Manuform56/keymaps/Aaron/keymap.c **** 		if(record->event.pressed) {
 315:keyboards/Manuform56/keymaps/Aaron/keymap.c **** 			return MACRO(I(10), D(LCTRL), T(T), T(V), T(ENTER), U(LCTRL), END);
 316:keyboards/Manuform56/keymaps/Aaron/keymap.c **** 		}
 317:keyboards/Manuform56/keymaps/Aaron/keymap.c **** 		
 318:keyboards/Manuform56/keymaps/Aaron/keymap.c **** 	case 5:{
 319:keyboards/Manuform56/keymaps/Aaron/keymap.c **** 			return  MACRO_TAP_HOLD_LAYER(record, MACRO(TYPE(KC_X), END), _LOWER);	
 320:keyboards/Manuform56/keymaps/Aaron/keymap.c **** 		}
 321:keyboards/Manuform56/keymaps/Aaron/keymap.c **** 	case 6: {
 322:keyboards/Manuform56/keymaps/Aaron/keymap.c **** 			if(record->event.pressed) 
 323:keyboards/Manuform56/keymaps/Aaron/keymap.c **** 			return MACRO(I(10), T(0), T(C), T(TAB), T(TAB), T(A), T(TAB), END);
 324:keyboards/Manuform56/keymaps/Aaron/keymap.c **** 		}
 325:keyboards/Manuform56/keymaps/Aaron/keymap.c **** 	case 10: {
 326:keyboards/Manuform56/keymaps/Aaron/keymap.c **** 		if(record->event.pressed) {
 327:keyboards/Manuform56/keymaps/Aaron/keymap.c **** 		SEND_STRING("ts");
 328:keyboards/Manuform56/keymaps/Aaron/keymap.c **** 			return false; break;}
 329:keyboards/Manuform56/keymaps/Aaron/keymap.c **** 	}		
 330:keyboards/Manuform56/keymaps/Aaron/keymap.c **** 	case 11: {
 331:keyboards/Manuform56/keymaps/Aaron/keymap.c **** 		if(record->event.pressed) {
 332:keyboards/Manuform56/keymaps/Aaron/keymap.c **** 			SEND_STRING("ipconfig /all");
 333:keyboards/Manuform56/keymaps/Aaron/keymap.c **** 					return false; break;}
 334:keyboards/Manuform56/keymaps/Aaron/keymap.c **** 	}
 335:keyboards/Manuform56/keymaps/Aaron/keymap.c **** 	case 12: {
 336:keyboards/Manuform56/keymaps/Aaron/keymap.c **** 	if(record->event.pressed) 
 337:keyboards/Manuform56/keymaps/Aaron/keymap.c **** 		return MACRO( I(10),T(TAB), T(O), T(P), T(TAB),T(ENTER), T(TAB),T(TAB),T(TAB),T(Z),T(R),T(TAB),T(
 338:keyboards/Manuform56/keymaps/Aaron/keymap.c **** 	}	
 339:keyboards/Manuform56/keymaps/Aaron/keymap.c **** 		case 13: {
 340:keyboards/Manuform56/keymaps/Aaron/keymap.c **** 	if(record->event.pressed) 
 341:keyboards/Manuform56/keymaps/Aaron/keymap.c **** 		return MACRO( I(10),T(TAB), T(O), T(T), T(TAB),T(ENTER), T(TAB),T(TAB),T(TAB),T(Z),T(R),T(TAB),T(
 342:keyboards/Manuform56/keymaps/Aaron/keymap.c **** 	}	
 343:keyboards/Manuform56/keymaps/Aaron/keymap.c **** 		case 14: {
 344:keyboards/Manuform56/keymaps/Aaron/keymap.c **** 	if(record->event.pressed) 
 345:keyboards/Manuform56/keymaps/Aaron/keymap.c **** 		return MACRO( I(10),T(TAB), T(I), T(N), T(TAB),T(ENTER), T(TAB),T(TAB),T(TAB),T(I),T(N),T(TAB),T(
 346:keyboards/Manuform56/keymaps/Aaron/keymap.c **** 	}	
 347:keyboards/Manuform56/keymaps/Aaron/keymap.c **** 		case 15: {
 348:keyboards/Manuform56/keymaps/Aaron/keymap.c **** 	if(record->event.pressed) 
 349:keyboards/Manuform56/keymaps/Aaron/keymap.c **** 		SEND_STRING("AC"SS_TAP(X_ENTER));
 350:keyboards/Manuform56/keymaps/Aaron/keymap.c **** 		return false; break;
 351:keyboards/Manuform56/keymaps/Aaron/keymap.c **** 	}
 352:keyboards/Manuform56/keymaps/Aaron/keymap.c **** 		case 16: {
 353:keyboards/Manuform56/keymaps/Aaron/keymap.c **** 	if(record->event.pressed) {
 354:keyboards/Manuform56/keymaps/Aaron/keymap.c **** 	MACRO(T(LGUI), W(50));}
 355:keyboards/Manuform56/keymaps/Aaron/keymap.c **** 	else{
 356:keyboards/Manuform56/keymaps/Aaron/keymap.c **** 	SEND_STRING("cmd"SS_TAP(X_ENTER));}
 357:keyboards/Manuform56/keymaps/Aaron/keymap.c **** 		return false; break;
 358:keyboards/Manuform56/keymaps/Aaron/keymap.c **** 	}
 359:keyboards/Manuform56/keymaps/Aaron/keymap.c **** 		break;
 360:keyboards/Manuform56/keymaps/Aaron/keymap.c **** 	}		
 361:keyboards/Manuform56/keymaps/Aaron/keymap.c **** 	return MACRO_NONE;
 362:keyboards/Manuform56/keymaps/Aaron/keymap.c **** }
 363:keyboards/Manuform56/keymaps/Aaron/keymap.c **** //return MACRO_NONE;
 364:keyboards/Manuform56/keymaps/Aaron/keymap.c **** 
 365:keyboards/Manuform56/keymaps/Aaron/keymap.c **** 
 366:keyboards/Manuform56/keymaps/Aaron/keymap.c **** void cmd_commands(qk_tap_dance_state_t *state, void *user_data) {
  16               		.loc 1 366 0
  17               		.cfi_startproc
  18               	.LVL0:
  19               	/* prologue: function */
  20               	/* frame size = 0 */
  21               	/* stack size = 0 */
  22               	.L__stack_usage = 0
 367:keyboards/Manuform56/keymaps/Aaron/keymap.c **** 	if (state->count == 1) {
  23               		.loc 1 367 0
  24 0000 FC01      		movw r30,r24
  25 0002 8081      		ld r24,Z
  26               	.LVL1:
  27 0004 8130      		cpi r24,lo8(1)
  28 0006 01F4      		brne .L2
 368:keyboards/Manuform56/keymaps/Aaron/keymap.c **** 		action_macro_play(MACRO(D(LCTRL), T(C), U(LCTRL),END));
  29               		.loc 1 368 0
  30 0008 80E0      		ldi r24,lo8(__m.3262)
  31 000a 90E0      		ldi r25,hi8(__m.3262)
  32 000c 00C0      		rjmp .L4
  33               	.L2:
 369:keyboards/Manuform56/keymaps/Aaron/keymap.c **** 	}
 370:keyboards/Manuform56/keymaps/Aaron/keymap.c **** 	else if (state->count ==2){
  34               		.loc 1 370 0
  35 000e 8230      		cpi r24,lo8(2)
  36 0010 01F4      		brne .L3
 371:keyboards/Manuform56/keymaps/Aaron/keymap.c **** 		action_macro_play(MACRO(D(LCTRL), T(V), U(LCTRL),END));
  37               		.loc 1 371 0
  38 0012 80E0      		ldi r24,lo8(__m.3264)
  39 0014 90E0      		ldi r25,hi8(__m.3264)
  40 0016 00C0      		rjmp .L4
  41               	.L3:
 372:keyboards/Manuform56/keymaps/Aaron/keymap.c **** 	}
 373:keyboards/Manuform56/keymaps/Aaron/keymap.c **** 	else {
 374:keyboards/Manuform56/keymaps/Aaron/keymap.c **** 		action_macro_play(MACRO(D(LCTRL), T(A), T(C), U(LCTRL),END));
  42               		.loc 1 374 0
  43 0018 80E0      		ldi r24,lo8(__m.3266)
  44 001a 90E0      		ldi r25,hi8(__m.3266)
  45               	.L4:
  46 001c 0C94 0000 		jmp action_macro_play
  47               	.LVL2:
  48               		.cfi_endproc
  49               	.LFE30:
  51               		.section	.text.cmd,"ax",@progbits
  52               	.global	cmd
  54               	cmd:
  55               	.LFB31:
 375:keyboards/Manuform56/keymaps/Aaron/keymap.c **** 	}
 376:keyboards/Manuform56/keymaps/Aaron/keymap.c **** }
 377:keyboards/Manuform56/keymaps/Aaron/keymap.c **** 
 378:keyboards/Manuform56/keymaps/Aaron/keymap.c **** 
 379:keyboards/Manuform56/keymaps/Aaron/keymap.c **** void cmd(qk_tap_dance_state_t *state, void *user_data) {
  56               		.loc 1 379 0
  57               		.cfi_startproc
  58               	.LVL3:
  59               	/* prologue: function */
  60               	/* frame size = 0 */
  61               	/* stack size = 0 */
  62               	.L__stack_usage = 0
 380:keyboards/Manuform56/keymaps/Aaron/keymap.c **** 	if(state->count==1){
  63               		.loc 1 380 0
  64 0000 FC01      		movw r30,r24
  65 0002 8081      		ld r24,Z
  66               	.LVL4:
  67 0004 8130      		cpi r24,lo8(1)
  68 0006 01F4      		brne .L7
 381:keyboards/Manuform56/keymaps/Aaron/keymap.c **** 		action_macro_play(MACRO(D(LGUI), T(R),W(255), U(LGUI),W(255), T(C), T(M), T(D), T(ENTER),END));
  69               		.loc 1 381 0
  70 0008 80E0      		ldi r24,lo8(__m.3272)
  71 000a 90E0      		ldi r25,hi8(__m.3272)
  72 000c 00C0      		rjmp .L9
  73               	.L7:
 382:keyboards/Manuform56/keymaps/Aaron/keymap.c **** 	}
 383:keyboards/Manuform56/keymaps/Aaron/keymap.c **** 	else if (state->count == 2) {
  74               		.loc 1 383 0
  75 000e 8230      		cpi r24,lo8(2)
  76 0010 01F4      		brne .L8
 384:keyboards/Manuform56/keymaps/Aaron/keymap.c **** 		action_macro_play(MACRO(D(LGUI), T(R), U(LGUI), T(C), T(M), T(D), T(ENTER),W(255),W(255), T(I), T
  77               		.loc 1 384 0
  78 0012 80E0      		ldi r24,lo8(__m.3274)
  79 0014 90E0      		ldi r25,hi8(__m.3274)
  80 0016 00C0      		rjmp .L9
  81               	.L8:
 385:keyboards/Manuform56/keymaps/Aaron/keymap.c **** 	}
 386:keyboards/Manuform56/keymaps/Aaron/keymap.c **** 	else{
 387:keyboards/Manuform56/keymaps/Aaron/keymap.c **** 		action_macro_play(MACRO(D(LGUI), T(R),W(255), U(LGUI),W(255), T(C), T(M), T(D), T(ENTER), W(255),
  82               		.loc 1 387 0
  83 0018 80E0      		ldi r24,lo8(__m.3276)
  84 001a 90E0      		ldi r25,hi8(__m.3276)
  85               	.L9:
  86 001c 0C94 0000 		jmp action_macro_play
  87               	.LVL5:
  88               		.cfi_endproc
  89               	.LFE31:
  91               		.section	.text.VirtualDesktop,"ax",@progbits
  92               	.global	VirtualDesktop
  94               	VirtualDesktop:
  95               	.LFB33:
 388:keyboards/Manuform56/keymaps/Aaron/keymap.c **** 	}
 389:keyboards/Manuform56/keymaps/Aaron/keymap.c **** }
 390:keyboards/Manuform56/keymaps/Aaron/keymap.c **** void SLSH_BSLSH(qk_tap_dance_state_t *state, void *user_data) {
 391:keyboards/Manuform56/keymaps/Aaron/keymap.c **** 	if (state->count == 1) {
 392:keyboards/Manuform56/keymaps/Aaron/keymap.c **** 		register_code (KC_SLSH);
 393:keyboards/Manuform56/keymaps/Aaron/keymap.c **** 		unregister_code (KC_SLSH);
 394:keyboards/Manuform56/keymaps/Aaron/keymap.c **** 	}
 395:keyboards/Manuform56/keymaps/Aaron/keymap.c **** 	else{
 396:keyboards/Manuform56/keymaps/Aaron/keymap.c **** 		register_code (KC_BSLS);
 397:keyboards/Manuform56/keymaps/Aaron/keymap.c **** 		unregister_code (KC_BSLS);
 398:keyboards/Manuform56/keymaps/Aaron/keymap.c **** 	}
 399:keyboards/Manuform56/keymaps/Aaron/keymap.c **** }
 400:keyboards/Manuform56/keymaps/Aaron/keymap.c **** void VirtualDesktop(qk_tap_dance_state_t *state, void *user_data) {
  96               		.loc 1 400 0
  97               		.cfi_startproc
  98               	.LVL6:
  99               	/* prologue: function */
 100               	/* frame size = 0 */
 101               	/* stack size = 0 */
 102               	.L__stack_usage = 0
 401:keyboards/Manuform56/keymaps/Aaron/keymap.c **** 	if (state->count == 1) 
 103               		.loc 1 401 0
 104 0000 FC01      		movw r30,r24
 105 0002 8081      		ld r24,Z
 106               	.LVL7:
 107 0004 8130      		cpi r24,lo8(1)
 108 0006 01F4      		brne .L11
 402:keyboards/Manuform56/keymaps/Aaron/keymap.c **** 		action_macro_play(MACRO(D(LGUI),D(LCTRL),T(LEFT),U(LCTRL),U(LGUI),END));
 109               		.loc 1 402 0
 110 0008 80E0      		ldi r24,lo8(__m.3286)
 111 000a 90E0      		ldi r25,hi8(__m.3286)
 112 000c 00C0      		rjmp .L13
 113               	.L11:
 403:keyboards/Manuform56/keymaps/Aaron/keymap.c **** 	else if(state->count==2)
 114               		.loc 1 403 0
 115 000e 8230      		cpi r24,lo8(2)
 116 0010 01F4      		brne .L10
 404:keyboards/Manuform56/keymaps/Aaron/keymap.c **** 		action_macro_play(MACRO(D(LGUI),D(LCTRL),T(RIGHT),U(LCTRL),U(LGUI),END));
 117               		.loc 1 404 0
 118 0012 80E0      		ldi r24,lo8(__m.3288)
 119 0014 90E0      		ldi r25,hi8(__m.3288)
 120               	.L13:
 121 0016 0C94 0000 		jmp action_macro_play
 122               	.LVL8:
 123               	.L10:
 124 001a 0895      		ret
 125               		.cfi_endproc
 126               	.LFE33:
 128               		.section	.text.SLSH_BSLSH,"ax",@progbits
 129               	.global	SLSH_BSLSH
 131               	SLSH_BSLSH:
 132               	.LFB32:
 390:keyboards/Manuform56/keymaps/Aaron/keymap.c **** 	if (state->count == 1) {
 133               		.loc 1 390 0
 134               		.cfi_startproc
 135               	.LVL9:
 136               	/* prologue: function */
 137               	/* frame size = 0 */
 138               	/* stack size = 0 */
 139               	.L__stack_usage = 0
 391:keyboards/Manuform56/keymaps/Aaron/keymap.c **** 		register_code (KC_SLSH);
 140               		.loc 1 391 0
 141 0000 FC01      		movw r30,r24
 142 0002 8081      		ld r24,Z
 143               	.LVL10:
 144 0004 8130      		cpi r24,lo8(1)
 145 0006 01F4      		brne .L15
 392:keyboards/Manuform56/keymaps/Aaron/keymap.c **** 		unregister_code (KC_SLSH);
 146               		.loc 1 392 0
 147 0008 88E3      		ldi r24,lo8(56)
 148 000a 0E94 0000 		call register_code
 149               	.LVL11:
 393:keyboards/Manuform56/keymaps/Aaron/keymap.c **** 	}
 150               		.loc 1 393 0
 151 000e 88E3      		ldi r24,lo8(56)
 152 0010 00C0      		rjmp .L16
 153               	.LVL12:
 154               	.L15:
 396:keyboards/Manuform56/keymaps/Aaron/keymap.c **** 		unregister_code (KC_BSLS);
 155               		.loc 1 396 0
 156 0012 81E3      		ldi r24,lo8(49)
 157 0014 0E94 0000 		call register_code
 158               	.LVL13:
 397:keyboards/Manuform56/keymaps/Aaron/keymap.c **** 	}
 159               		.loc 1 397 0
 160 0018 81E3      		ldi r24,lo8(49)
 161               	.L16:
 162 001a 0C94 0000 		jmp unregister_code
 163               	.LVL14:
 164               		.cfi_endproc
 165               	.LFE32:
 167               		.section	.text.rgblight_toggle,"ax",@progbits
 168               		.weak	rgblight_toggle
 170               	rgblight_toggle:
 171               	.LFB10:
 172               		.file 2 "./quantum/rgb.h"
   1:./quantum/rgb.h **** /* Copyright 2017 Jack Humbert
   2:./quantum/rgb.h ****  *
   3:./quantum/rgb.h ****  * This program is free software: you can redistribute it and/or modify
   4:./quantum/rgb.h ****  * it under the terms of the GNU General Public License as published by
   5:./quantum/rgb.h ****  * the Free Software Foundation, either version 2 of the License, or
   6:./quantum/rgb.h ****  * (at your option) any later version.
   7:./quantum/rgb.h ****  *
   8:./quantum/rgb.h ****  * This program is distributed in the hope that it will be useful,
   9:./quantum/rgb.h ****  * but WITHOUT ANY WARRANTY; without even the implied warranty of
  10:./quantum/rgb.h ****  * MERCHANTABILITY or FITNESS FOR A PARTICULAR PURPOSE.  See the
  11:./quantum/rgb.h ****  * GNU General Public License for more details.
  12:./quantum/rgb.h ****  *
  13:./quantum/rgb.h ****  * You should have received a copy of the GNU General Public License
  14:./quantum/rgb.h ****  * along with this program.  If not, see <http://www.gnu.org/licenses/>.
  15:./quantum/rgb.h ****  */
  16:./quantum/rgb.h **** 
  17:./quantum/rgb.h **** #ifndef RGB_H
  18:./quantum/rgb.h **** #define RGB_H
  19:./quantum/rgb.h **** 
  20:./quantum/rgb.h **** __attribute__((weak))
  21:./quantum/rgb.h **** void rgblight_toggle(void) {};
 173               		.loc 2 21 0
 174               		.cfi_startproc
 175               	/* prologue: function */
 176               	/* frame size = 0 */
 177               	/* stack size = 0 */
 178               	.L__stack_usage = 0
 179 0000 0895      		ret
 180               		.cfi_endproc
 181               	.LFE10:
 183               		.section	.text.rgblight_step,"ax",@progbits
 184               		.weak	rgblight_step
 186               	rgblight_step:
 187               	.LFB11:
  22:./quantum/rgb.h **** 
  23:./quantum/rgb.h **** __attribute__((weak))
  24:./quantum/rgb.h **** void rgblight_step(void) {};
 188               		.loc 2 24 0
 189               		.cfi_startproc
 190               	/* prologue: function */
 191               	/* frame size = 0 */
 192               	/* stack size = 0 */
 193               	.L__stack_usage = 0
 194 0000 0895      		ret
 195               		.cfi_endproc
 196               	.LFE11:
 198               		.section	.text.rgblight_step_reverse,"ax",@progbits
 199               		.weak	rgblight_step_reverse
 201               	rgblight_step_reverse:
 202               	.LFB12:
  25:./quantum/rgb.h **** 
  26:./quantum/rgb.h **** __attribute__((weak))
  27:./quantum/rgb.h **** void rgblight_step_reverse(void) {};
 203               		.loc 2 27 0
 204               		.cfi_startproc
 205               	/* prologue: function */
 206               	/* frame size = 0 */
 207               	/* stack size = 0 */
 208               	.L__stack_usage = 0
 209 0000 0895      		ret
 210               		.cfi_endproc
 211               	.LFE12:
 213               		.section	.text.rgblight_increase_hue,"ax",@progbits
 214               		.weak	rgblight_increase_hue
 216               	rgblight_increase_hue:
 217               	.LFB13:
  28:./quantum/rgb.h **** 
  29:./quantum/rgb.h **** __attribute__((weak))
  30:./quantum/rgb.h **** void rgblight_increase_hue(void) {};
 218               		.loc 2 30 0
 219               		.cfi_startproc
 220               	/* prologue: function */
 221               	/* frame size = 0 */
 222               	/* stack size = 0 */
 223               	.L__stack_usage = 0
 224 0000 0895      		ret
 225               		.cfi_endproc
 226               	.LFE13:
 228               		.section	.text.rgblight_decrease_hue,"ax",@progbits
 229               		.weak	rgblight_decrease_hue
 231               	rgblight_decrease_hue:
 232               	.LFB14:
  31:./quantum/rgb.h **** 
  32:./quantum/rgb.h **** __attribute__((weak))
  33:./quantum/rgb.h **** void rgblight_decrease_hue(void) {};
 233               		.loc 2 33 0
 234               		.cfi_startproc
 235               	/* prologue: function */
 236               	/* frame size = 0 */
 237               	/* stack size = 0 */
 238               	.L__stack_usage = 0
 239 0000 0895      		ret
 240               		.cfi_endproc
 241               	.LFE14:
 243               		.section	.text.rgblight_increase_sat,"ax",@progbits
 244               		.weak	rgblight_increase_sat
 246               	rgblight_increase_sat:
 247               	.LFB15:
  34:./quantum/rgb.h **** 
  35:./quantum/rgb.h **** __attribute__((weak))
  36:./quantum/rgb.h **** void rgblight_increase_sat(void) {};
 248               		.loc 2 36 0
 249               		.cfi_startproc
 250               	/* prologue: function */
 251               	/* frame size = 0 */
 252               	/* stack size = 0 */
 253               	.L__stack_usage = 0
 254 0000 0895      		ret
 255               		.cfi_endproc
 256               	.LFE15:
 258               		.section	.text.rgblight_decrease_sat,"ax",@progbits
 259               		.weak	rgblight_decrease_sat
 261               	rgblight_decrease_sat:
 262               	.LFB16:
  37:./quantum/rgb.h **** 
  38:./quantum/rgb.h **** __attribute__((weak))
  39:./quantum/rgb.h **** void rgblight_decrease_sat(void) {};
 263               		.loc 2 39 0
 264               		.cfi_startproc
 265               	/* prologue: function */
 266               	/* frame size = 0 */
 267               	/* stack size = 0 */
 268               	.L__stack_usage = 0
 269 0000 0895      		ret
 270               		.cfi_endproc
 271               	.LFE16:
 273               		.section	.text.rgblight_increase_val,"ax",@progbits
 274               		.weak	rgblight_increase_val
 276               	rgblight_increase_val:
 277               	.LFB17:
  40:./quantum/rgb.h **** 
  41:./quantum/rgb.h **** __attribute__((weak))
  42:./quantum/rgb.h **** void rgblight_increase_val(void) {};
 278               		.loc 2 42 0
 279               		.cfi_startproc
 280               	/* prologue: function */
 281               	/* frame size = 0 */
 282               	/* stack size = 0 */
 283               	.L__stack_usage = 0
 284 0000 0895      		ret
 285               		.cfi_endproc
 286               	.LFE17:
 288               		.section	.text.rgblight_decrease_val,"ax",@progbits
 289               		.weak	rgblight_decrease_val
 291               	rgblight_decrease_val:
 292               	.LFB18:
  43:./quantum/rgb.h **** 
  44:./quantum/rgb.h **** __attribute__((weak))
  45:./quantum/rgb.h **** void rgblight_decrease_val(void) {};
 293               		.loc 2 45 0
 294               		.cfi_startproc
 295               	/* prologue: function */
 296               	/* frame size = 0 */
 297               	/* stack size = 0 */
 298               	.L__stack_usage = 0
 299 0000 0895      		ret
 300               		.cfi_endproc
 301               	.LFE18:
 303               		.section	.text.rgblight_increase_speed,"ax",@progbits
 304               		.weak	rgblight_increase_speed
 306               	rgblight_increase_speed:
 307               	.LFB19:
  46:./quantum/rgb.h **** 
  47:./quantum/rgb.h **** __attribute__((weak))
  48:./quantum/rgb.h **** void rgblight_increase_speed(void) {};
 308               		.loc 2 48 0
 309               		.cfi_startproc
 310               	/* prologue: function */
 311               	/* frame size = 0 */
 312               	/* stack size = 0 */
 313               	.L__stack_usage = 0
 314 0000 0895      		ret
 315               		.cfi_endproc
 316               	.LFE19:
 318               		.section	.text.rgblight_decrease_speed,"ax",@progbits
 319               		.weak	rgblight_decrease_speed
 321               	rgblight_decrease_speed:
 322               	.LFB20:
  49:./quantum/rgb.h **** 
  50:./quantum/rgb.h **** __attribute__((weak))
  51:./quantum/rgb.h **** void rgblight_decrease_speed(void) {};
 323               		.loc 2 51 0
 324               		.cfi_startproc
 325               	/* prologue: function */
 326               	/* frame size = 0 */
 327               	/* stack size = 0 */
 328               	.L__stack_usage = 0
 329 0000 0895      		ret
 330               		.cfi_endproc
 331               	.LFE20:
 333               		.section	.text.persistent_default_layer_set,"ax",@progbits
 334               	.global	persistent_default_layer_set
 336               	persistent_default_layer_set:
 337               	.LFB28:
 277:keyboards/Manuform56/keymaps/Aaron/keymap.c **** 	eeconfig_update_default_layer(default_layer);
 338               		.loc 1 277 0
 339               		.cfi_startproc
 340               	.LVL15:
 277:keyboards/Manuform56/keymaps/Aaron/keymap.c **** 	eeconfig_update_default_layer(default_layer);
 341               		.loc 1 277 0
 342 0000 CF93      		push r28
 343               	.LCFI0:
 344               		.cfi_def_cfa_offset 3
 345               		.cfi_offset 28, -2
 346 0002 DF93      		push r29
 347               	.LCFI1:
 348               		.cfi_def_cfa_offset 4
 349               		.cfi_offset 29, -3
 350               	/* prologue: function */
 351               	/* frame size = 0 */
 352               	/* stack size = 2 */
 353               	.L__stack_usage = 2
 354 0004 EC01      		movw r28,r24
 278:keyboards/Manuform56/keymaps/Aaron/keymap.c **** 	default_layer_set(default_layer);
 355               		.loc 1 278 0
 356 0006 0E94 0000 		call eeconfig_update_default_layer
 357               	.LVL16:
 279:keyboards/Manuform56/keymaps/Aaron/keymap.c **** }
 358               		.loc 1 279 0
 359 000a BE01      		movw r22,r28
 360 000c 80E0      		ldi r24,0
 361 000e 90E0      		ldi r25,0
 362               	/* epilogue start */
 280:keyboards/Manuform56/keymaps/Aaron/keymap.c **** 
 363               		.loc 1 280 0
 364 0010 DF91      		pop r29
 365 0012 CF91      		pop r28
 366               	.LVL17:
 279:keyboards/Manuform56/keymaps/Aaron/keymap.c **** }
 367               		.loc 1 279 0
 368 0014 0C94 0000 		jmp default_layer_set
 369               	.LVL18:
 370               		.cfi_endproc
 371               	.LFE28:
 373               		.section	.text.action_get_macro,"ax",@progbits
 374               	.global	action_get_macro
 376               	action_get_macro:
 377               	.LFB29:
 290:keyboards/Manuform56/keymaps/Aaron/keymap.c **** 	
 378               		.loc 1 290 0
 379               		.cfi_startproc
 380               	.LVL19:
 381               	/* prologue: function */
 382               	/* frame size = 0 */
 383               	/* stack size = 0 */
 384               	.L__stack_usage = 0
 292:keyboards/Manuform56/keymaps/Aaron/keymap.c **** 	case 0:
 385               		.loc 1 292 0
 386 0000 462F      		mov r20,r22
 387               	.LVL20:
 388 0002 50E0      		ldi r21,0
 389 0004 4131      		cpi r20,17
 390 0006 5105      		cpc r21,__zero_reg__
 391 0008 00F0      		brlo .+2
 392 000a 00C0      		rjmp .L59
 393 000c DC01      		movw r26,r24
 394 000e FA01      		movw r30,r20
 395 0010 E050      		subi r30,lo8(-(gs(.L32)))
 396 0012 F040      		sbci r31,hi8(-(gs(.L32)))
 397 0014 0C94 0000 		jmp __tablejump2__
 398               	.LVL21:
 399               		.section	.progmem.gcc_sw_table.action_get_macro,"a",@progbits
 400               		.p2align	1
 401               	.L32:
 402 0000 0000      		.word gs(.L31)
 403 0002 0000      		.word gs(.L33)
 404 0004 0000      		.word gs(.L34)
 405 0006 0000      		.word gs(.L35)
 406 0008 0000      		.word gs(.L36)
 407 000a 0000      		.word gs(.L37)
 408 000c 0000      		.word gs(.L38)
 409 000e 0000      		.word gs(.L59)
 410 0010 0000      		.word gs(.L59)
 411 0012 0000      		.word gs(.L59)
 412 0014 0000      		.word gs(.L39)
 413 0016 0000      		.word gs(.L40)
 414 0018 0000      		.word gs(.L41)
 415 001a 0000      		.word gs(.L42)
 416 001c 0000      		.word gs(.L43)
 417 001e 0000      		.word gs(.L44)
 418 0020 0000      		.word gs(.L45)
 419               		.section	.text.action_get_macro
 420               	.L31:
 294:keyboards/Manuform56/keymaps/Aaron/keymap.c **** 			return MACRO(D(LGUI), T(TAB), U(LGUI), END);
 421               		.loc 1 294 0
 422 0018 1296      		adiw r26,2
 423 001a 8C91      		ld r24,X
 424 001c 1297      		sbiw r26,2
 425               	.LVL22:
 426 001e 8111      		cpse r24,__zero_reg__
 427 0020 00C0      		rjmp .L50
 428               	.L33:
 298:keyboards/Manuform56/keymaps/Aaron/keymap.c **** 			SEND_STRING("admin"SS_TAP(X_TAB)"1111"SS_TAP(X_ENTER));
 429               		.loc 1 298 0
 430 0022 1296      		adiw r26,2
 431 0024 8C91      		ld r24,X
 432 0026 1297      		sbiw r26,2
 433 0028 8823      		tst r24
 434 002a 01F0      		breq .L34
 299:keyboards/Manuform56/keymaps/Aaron/keymap.c **** 		return false;	break;
 435               		.loc 1 299 0
 436 002c 80E0      		ldi r24,lo8(__c.3216)
 437 002e 90E0      		ldi r25,hi8(__c.3216)
 438 0030 00C0      		rjmp .L81
 439               	.L34:
 304:keyboards/Manuform56/keymaps/Aaron/keymap.c **** 			SEND_STRING("apaez@gotocos.com");
 440               		.loc 1 304 0
 441 0032 1296      		adiw r26,2
 442 0034 8C91      		ld r24,X
 443 0036 1297      		sbiw r26,2
 444 0038 8823      		tst r24
 445 003a 01F0      		breq .L35
 305:keyboards/Manuform56/keymaps/Aaron/keymap.c **** 			return false;	break;
 446               		.loc 1 305 0
 447 003c 80E0      		ldi r24,lo8(__c.3219)
 448 003e 90E0      		ldi r25,hi8(__c.3219)
 449 0040 00C0      		rjmp .L81
 450               	.L35:
 309:keyboards/Manuform56/keymaps/Aaron/keymap.c **** 			SEND_STRING("www.support.xerox.com"SS_TAP(X_ENTER));
 451               		.loc 1 309 0
 452 0042 1296      		adiw r26,2
 453 0044 8C91      		ld r24,X
 454 0046 1297      		sbiw r26,2
 455 0048 8823      		tst r24
 456 004a 01F0      		breq .L36
 310:keyboards/Manuform56/keymaps/Aaron/keymap.c **** 						return false;	break;
 457               		.loc 1 310 0
 458 004c 80E0      		ldi r24,lo8(__c.3222)
 459 004e 90E0      		ldi r25,hi8(__c.3222)
 460 0050 00C0      		rjmp .L81
 461               	.L36:
 314:keyboards/Manuform56/keymaps/Aaron/keymap.c **** 			return MACRO(I(10), D(LCTRL), T(T), T(V), T(ENTER), U(LCTRL), END);
 462               		.loc 1 314 0
 463 0052 1296      		adiw r26,2
 464 0054 8C91      		ld r24,X
 465 0056 1297      		sbiw r26,2
 466 0058 8111      		cpse r24,__zero_reg__
 467 005a 00C0      		rjmp .L51
 468               	.L37:
 319:keyboards/Manuform56/keymaps/Aaron/keymap.c **** 		}
 469               		.loc 1 319 0
 470 005c 1296      		adiw r26,2
 471 005e 9C91      		ld r25,X
 472 0060 1297      		sbiw r26,2
 473 0062 1596      		adiw r26,5
 474 0064 8C91      		ld r24,X
 475 0066 9923      		tst r25
 476 0068 01F0      		breq .L46
 319:keyboards/Manuform56/keymaps/Aaron/keymap.c **** 		}
 477               		.loc 1 319 0 is_stmt 0 discriminator 1
 478 006a 982F      		mov r25,r24
 479 006c 9295      		swap r25
 480 006e 9F70      		andi r25,lo8(15)
 481 0070 01F0      		breq .L47
 319:keyboards/Manuform56/keymaps/Aaron/keymap.c **** 		}
 482               		.loc 1 319 0 discriminator 4
 483 0072 80FF      		sbrs r24,0
 484 0074 00C0      		rjmp .L59
 485               	.L47:
 486               	.LBB2:
 319:keyboards/Manuform56/keymaps/Aaron/keymap.c **** 		}
 487               		.loc 1 319 0 discriminator 5
 488 0076 83E0      		ldi r24,lo8(3)
 489 0078 0E94 0000 		call layer_on
 490               	.LVL23:
 491 007c 00C0      		rjmp .L59
 492               	.LVL24:
 493               	.L46:
 494               	.LBE2:
 319:keyboards/Manuform56/keymaps/Aaron/keymap.c **** 		}
 495               		.loc 1 319 0 discriminator 2
 496 007e 982F      		mov r25,r24
 497 0080 9295      		swap r25
 498 0082 9F70      		andi r25,lo8(15)
 499 0084 01F0      		breq .L48
 319:keyboards/Manuform56/keymaps/Aaron/keymap.c **** 		}
 500               		.loc 1 319 0 discriminator 10
 501 0086 80FF      		sbrs r24,0
 502 0088 00C0      		rjmp .L53
 503               	.L48:
 504               	.LBB3:
 319:keyboards/Manuform56/keymaps/Aaron/keymap.c **** 		}
 505               		.loc 1 319 0 discriminator 13
 506 008a 83E0      		ldi r24,lo8(3)
 507 008c 0E94 0000 		call layer_off
 508               	.LVL25:
 509 0090 00C0      		rjmp .L59
 510               	.LVL26:
 511               	.L38:
 512               	.LBE3:
 322:keyboards/Manuform56/keymaps/Aaron/keymap.c **** 			return MACRO(I(10), T(0), T(C), T(TAB), T(TAB), T(A), T(TAB), END);
 513               		.loc 1 322 0 is_stmt 1
 514 0092 1296      		adiw r26,2
 515 0094 8C91      		ld r24,X
 516 0096 1297      		sbiw r26,2
 517               	.LVL27:
 518 0098 8111      		cpse r24,__zero_reg__
 519 009a 00C0      		rjmp .L54
 520               	.L39:
 326:keyboards/Manuform56/keymaps/Aaron/keymap.c **** 		SEND_STRING("ts");
 521               		.loc 1 326 0
 522 009c 1296      		adiw r26,2
 523 009e 8C91      		ld r24,X
 524 00a0 1297      		sbiw r26,2
 525 00a2 8823      		tst r24
 526 00a4 01F0      		breq .L40
 327:keyboards/Manuform56/keymaps/Aaron/keymap.c **** 			return false; break;}
 527               		.loc 1 327 0
 528 00a6 80E0      		ldi r24,lo8(__c.3236)
 529 00a8 90E0      		ldi r25,hi8(__c.3236)
 530 00aa 00C0      		rjmp .L81
 531               	.L40:
 331:keyboards/Manuform56/keymaps/Aaron/keymap.c **** 			SEND_STRING("ipconfig /all");
 532               		.loc 1 331 0
 533 00ac 1296      		adiw r26,2
 534 00ae 8C91      		ld r24,X
 535 00b0 1297      		sbiw r26,2
 536 00b2 8823      		tst r24
 537 00b4 01F0      		breq .L41
 332:keyboards/Manuform56/keymaps/Aaron/keymap.c **** 					return false; break;}
 538               		.loc 1 332 0
 539 00b6 80E0      		ldi r24,lo8(__c.3239)
 540 00b8 90E0      		ldi r25,hi8(__c.3239)
 541 00ba 00C0      		rjmp .L81
 542               	.L41:
 336:keyboards/Manuform56/keymaps/Aaron/keymap.c **** 		return MACRO( I(10),T(TAB), T(O), T(P), T(TAB),T(ENTER), T(TAB),T(TAB),T(TAB),T(Z),T(R),T(TAB),T(
 543               		.loc 1 336 0
 544 00bc 1296      		adiw r26,2
 545 00be 8C91      		ld r24,X
 546 00c0 1297      		sbiw r26,2
 547 00c2 8111      		cpse r24,__zero_reg__
 548 00c4 00C0      		rjmp .L55
 549               	.L42:
 340:keyboards/Manuform56/keymaps/Aaron/keymap.c **** 		return MACRO( I(10),T(TAB), T(O), T(T), T(TAB),T(ENTER), T(TAB),T(TAB),T(TAB),T(Z),T(R),T(TAB),T(
 550               		.loc 1 340 0
 551 00c6 1296      		adiw r26,2
 552 00c8 8C91      		ld r24,X
 553 00ca 1297      		sbiw r26,2
 554 00cc 8111      		cpse r24,__zero_reg__
 555 00ce 00C0      		rjmp .L56
 556               	.L43:
 344:keyboards/Manuform56/keymaps/Aaron/keymap.c **** 		return MACRO( I(10),T(TAB), T(I), T(N), T(TAB),T(ENTER), T(TAB),T(TAB),T(TAB),T(I),T(N),T(TAB),T(
 557               		.loc 1 344 0
 558 00d0 1296      		adiw r26,2
 559 00d2 8C91      		ld r24,X
 560 00d4 1297      		sbiw r26,2
 561 00d6 8111      		cpse r24,__zero_reg__
 562 00d8 00C0      		rjmp .L57
 563               	.L44:
 348:keyboards/Manuform56/keymaps/Aaron/keymap.c **** 		SEND_STRING("AC"SS_TAP(X_ENTER));
 564               		.loc 1 348 0
 565 00da 1296      		adiw r26,2
 566 00dc 8C91      		ld r24,X
 567 00de 8823      		tst r24
 568 00e0 01F0      		breq .L59
 349:keyboards/Manuform56/keymaps/Aaron/keymap.c **** 		return false; break;
 569               		.loc 1 349 0
 570 00e2 80E0      		ldi r24,lo8(__c.3251)
 571 00e4 90E0      		ldi r25,hi8(__c.3251)
 572 00e6 00C0      		rjmp .L81
 573               	.LVL28:
 574               	.L45:
 353:keyboards/Manuform56/keymaps/Aaron/keymap.c **** 	MACRO(T(LGUI), W(50));}
 575               		.loc 1 353 0
 576 00e8 1296      		adiw r26,2
 577 00ea 8C91      		ld r24,X
 578               	.LVL29:
 579 00ec 8111      		cpse r24,__zero_reg__
 580 00ee 00C0      		rjmp .L59
 356:keyboards/Manuform56/keymaps/Aaron/keymap.c **** 		return false; break;
 581               		.loc 1 356 0
 582 00f0 80E0      		ldi r24,lo8(__c.3256)
 583 00f2 90E0      		ldi r25,hi8(__c.3256)
 584               	.L81:
 585 00f4 0E94 0000 		call send_string_P
 586               	.LVL30:
 587 00f8 00C0      		rjmp .L59
 588               	.LVL31:
 589               	.L50:
 295:keyboards/Manuform56/keymaps/Aaron/keymap.c **** 		}
 590               		.loc 1 295 0
 591 00fa 80E0      		ldi r24,lo8(__m.3213)
 592 00fc 90E0      		ldi r25,hi8(__m.3213)
 593 00fe 0895      		ret
 594               	.L51:
 315:keyboards/Manuform56/keymaps/Aaron/keymap.c **** 		}
 595               		.loc 1 315 0
 596 0100 80E0      		ldi r24,lo8(__m.3225)
 597 0102 90E0      		ldi r25,hi8(__m.3225)
 598 0104 0895      		ret
 599               	.L53:
 319:keyboards/Manuform56/keymaps/Aaron/keymap.c **** 		}
 600               		.loc 1 319 0
 601 0106 80E0      		ldi r24,lo8(__m.3229)
 602 0108 90E0      		ldi r25,hi8(__m.3229)
 603 010a 0895      		ret
 604               	.L54:
 323:keyboards/Manuform56/keymaps/Aaron/keymap.c **** 		}
 605               		.loc 1 323 0
 606 010c 80E0      		ldi r24,lo8(__m.3233)
 607 010e 90E0      		ldi r25,hi8(__m.3233)
 608 0110 0895      		ret
 609               	.L55:
 337:keyboards/Manuform56/keymaps/Aaron/keymap.c **** 	}	
 610               		.loc 1 337 0
 611 0112 80E0      		ldi r24,lo8(__m.3242)
 612 0114 90E0      		ldi r25,hi8(__m.3242)
 613 0116 0895      		ret
 614               	.L56:
 341:keyboards/Manuform56/keymaps/Aaron/keymap.c **** 	}	
 615               		.loc 1 341 0
 616 0118 80E0      		ldi r24,lo8(__m.3245)
 617 011a 90E0      		ldi r25,hi8(__m.3245)
 618 011c 0895      		ret
 619               	.L57:
 345:keyboards/Manuform56/keymaps/Aaron/keymap.c **** 	}	
 620               		.loc 1 345 0
 621 011e 80E0      		ldi r24,lo8(__m.3248)
 622 0120 90E0      		ldi r25,hi8(__m.3248)
 623 0122 0895      		ret
 624               	.LVL32:
 625               	.L59:
 319:keyboards/Manuform56/keymaps/Aaron/keymap.c **** 		}
 626               		.loc 1 319 0
 627 0124 80E0      		ldi r24,0
 628 0126 90E0      		ldi r25,0
 362:keyboards/Manuform56/keymaps/Aaron/keymap.c **** //return MACRO_NONE;
 629               		.loc 1 362 0
 630 0128 0895      		ret
 631               		.cfi_endproc
 632               	.LFE29:
 634               		.section	.text.matrix_init_user,"ax",@progbits
 635               	.global	matrix_init_user
 637               	matrix_init_user:
 638               	.LFB34:
 405:keyboards/Manuform56/keymaps/Aaron/keymap.c **** }
 406:keyboards/Manuform56/keymaps/Aaron/keymap.c **** 	
 407:keyboards/Manuform56/keymaps/Aaron/keymap.c **** qk_tap_dance_action_t tap_dance_actions[] = {
 408:keyboards/Manuform56/keymaps/Aaron/keymap.c **** 	
 409:keyboards/Manuform56/keymaps/Aaron/keymap.c **** 	//Tap once for Esc, twice for Caps Lock
 410:keyboards/Manuform56/keymaps/Aaron/keymap.c **** 	[TD_CPY_PST] = ACTION_TAP_DANCE_FN(cmd_commands),
 411:keyboards/Manuform56/keymaps/Aaron/keymap.c **** 	[TD_SLSH]= ACTION_TAP_DANCE_FN(SLSH_BSLSH),
 412:keyboards/Manuform56/keymaps/Aaron/keymap.c **** 	[TD_CMD]=ACTION_TAP_DANCE_FN(cmd),
 413:keyboards/Manuform56/keymaps/Aaron/keymap.c **** 	[TD_VRDSK]=ACTION_TAP_DANCE_FN(VirtualDesktop)
 414:keyboards/Manuform56/keymaps/Aaron/keymap.c **** };
 415:keyboards/Manuform56/keymaps/Aaron/keymap.c **** 
 416:keyboards/Manuform56/keymaps/Aaron/keymap.c **** void matrix_init_user(void) {
 639               		.loc 1 416 0
 640               		.cfi_startproc
 641               	/* prologue: function */
 642               	/* frame size = 0 */
 643               	/* stack size = 0 */
 644               	.L__stack_usage = 0
 645 0000 0895      		ret
 646               		.cfi_endproc
 647               	.LFE34:
 649               		.section	.text.matrix_scan_user,"ax",@progbits
 650               	.global	matrix_scan_user
 652               	matrix_scan_user:
 653               	.LFB35:
 417:keyboards/Manuform56/keymaps/Aaron/keymap.c **** }
 418:keyboards/Manuform56/keymaps/Aaron/keymap.c **** 
 419:keyboards/Manuform56/keymaps/Aaron/keymap.c **** void matrix_scan_user(void) {
 654               		.loc 1 419 0
 655               		.cfi_startproc
 656               	/* prologue: function */
 657               	/* frame size = 0 */
 658               	/* stack size = 0 */
 659               	.L__stack_usage = 0
 660 0000 0895      		ret
 661               		.cfi_endproc
 662               	.LFE35:
 664               		.section	.text.process_record_user,"ax",@progbits
 665               	.global	process_record_user
 667               	process_record_user:
 668               	.LFB36:
 420:keyboards/Manuform56/keymaps/Aaron/keymap.c **** 	
 421:keyboards/Manuform56/keymaps/Aaron/keymap.c **** 	
 422:keyboards/Manuform56/keymaps/Aaron/keymap.c **** }
 423:keyboards/Manuform56/keymaps/Aaron/keymap.c **** bool process_record_user(uint16_t keycode, keyrecord_t *record) {
 669               		.loc 1 423 0
 670               		.cfi_startproc
 671               	.LVL33:
 672               		.loc 1 423 0
 673 0000 CF93      		push r28
 674               	.LCFI2:
 675               		.cfi_def_cfa_offset 3
 676               		.cfi_offset 28, -2
 677               	/* prologue: function */
 678               	/* frame size = 0 */
 679               	/* stack size = 1 */
 680               	.L__stack_usage = 1
 681 0002 FB01      		movw r30,r22
 424:keyboards/Manuform56/keymaps/Aaron/keymap.c **** 	switch (keycode) {
 682               		.loc 1 424 0
 683 0004 8C3D      		cpi r24,-36
 684 0006 2CE5      		ldi r18,92
 685 0008 9207      		cpc r25,r18
 686 000a 01F0      		breq .L86
 687 000c 00F4      		brsh .L87
 688 000e 8A3D      		cpi r24,-38
 689 0010 2CE5      		ldi r18,92
 690 0012 9207      		cpc r25,r18
 691 0014 01F0      		breq .L88
 692 0016 8B3D      		cpi r24,-37
 693 0018 9C45      		sbci r25,92
 694 001a 01F0      		breq .L89
 695 001c 00C0      		rjmp .L96
 696               	.L87:
 697 001e 8E3D      		cpi r24,-34
 698 0020 2CE5      		ldi r18,92
 699 0022 9207      		cpc r25,r18
 700 0024 01F0      		breq .L90
 701 0026 00F0      		brlo .L91
 702 0028 803E      		cpi r24,-32
 703 002a 9C45      		sbci r25,92
 704 002c 01F0      		breq .L92
 705 002e 00C0      		rjmp .L96
 706               	.L88:
 425:keyboards/Manuform56/keymaps/Aaron/keymap.c **** 		case COLEMAK:
 426:keyboards/Manuform56/keymaps/Aaron/keymap.c **** 		if (record->event.pressed) {
 707               		.loc 1 426 0
 708 0030 C281      		ldd r28,Z+2
 709 0032 CC23      		tst r28
 710 0034 01F0      		breq .L85
 427:keyboards/Manuform56/keymaps/Aaron/keymap.c **** 			#ifdef AUDIO_ENABLE
 428:keyboards/Manuform56/keymaps/Aaron/keymap.c **** 			PLAY_NOTE_ARRAY(tone_colemak, false, 0);
 429:keyboards/Manuform56/keymaps/Aaron/keymap.c **** 			#endif
 430:keyboards/Manuform56/keymaps/Aaron/keymap.c **** 			persistent_default_layer_set(1UL<<_COLEMAK);
 711               		.loc 1 430 0
 712 0036 81E0      		ldi r24,lo8(1)
 713 0038 90E0      		ldi r25,0
 714               	.LVL34:
 715 003a 00C0      		rjmp .L107
 716               	.LVL35:
 717               	.L89:
 431:keyboards/Manuform56/keymaps/Aaron/keymap.c **** 		}
 432:keyboards/Manuform56/keymaps/Aaron/keymap.c **** 		return false;
 433:keyboards/Manuform56/keymaps/Aaron/keymap.c **** 		break;
 434:keyboards/Manuform56/keymaps/Aaron/keymap.c **** 	case QWERTY:
 435:keyboards/Manuform56/keymaps/Aaron/keymap.c **** 		if (record->event.pressed) {
 718               		.loc 1 435 0
 719 003c C281      		ldd r28,Z+2
 720 003e CC23      		tst r28
 721 0040 01F0      		breq .L85
 436:keyboards/Manuform56/keymaps/Aaron/keymap.c **** 			#ifdef AUDIO_ENABLE
 437:keyboards/Manuform56/keymaps/Aaron/keymap.c **** 			PLAY_NOTE_ARRAY(tone_qwerty, false, 0);
 438:keyboards/Manuform56/keymaps/Aaron/keymap.c **** 			#endif
 439:keyboards/Manuform56/keymaps/Aaron/keymap.c **** 			persistent_default_layer_set(1UL<<_QWERTY);
 722               		.loc 1 439 0
 723 0042 82E0      		ldi r24,lo8(2)
 724 0044 90E0      		ldi r25,0
 725               	.LVL36:
 726               	.L107:
 727 0046 0E94 0000 		call persistent_default_layer_set
 728               	.LVL37:
 729 004a 00C0      		rjmp .L106
 730               	.LVL38:
 731               	.L86:
 440:keyboards/Manuform56/keymaps/Aaron/keymap.c **** 		}
 441:keyboards/Manuform56/keymaps/Aaron/keymap.c **** 		return false;
 442:keyboards/Manuform56/keymaps/Aaron/keymap.c **** 		break;
 443:keyboards/Manuform56/keymaps/Aaron/keymap.c **** 	case DVORAK:
 444:keyboards/Manuform56/keymaps/Aaron/keymap.c **** 		if (record->event.pressed) {
 732               		.loc 1 444 0
 733 004c C281      		ldd r28,Z+2
 734 004e CC23      		tst r28
 735 0050 01F0      		breq .L85
 445:keyboards/Manuform56/keymaps/Aaron/keymap.c **** 			#ifdef AUDIO_ENABLE
 446:keyboards/Manuform56/keymaps/Aaron/keymap.c **** 			PLAY_NOTE_ARRAY(tone_dvorak, false, 0);
 447:keyboards/Manuform56/keymaps/Aaron/keymap.c **** 			#endif
 448:keyboards/Manuform56/keymaps/Aaron/keymap.c **** 			persistent_default_layer_set(1UL<<_DVORAK);
 736               		.loc 1 448 0
 737 0052 84E0      		ldi r24,lo8(4)
 738 0054 90E0      		ldi r25,0
 739               	.LVL39:
 740 0056 00C0      		rjmp .L107
 741               	.LVL40:
 742               	.L91:
 449:keyboards/Manuform56/keymaps/Aaron/keymap.c **** 		}
 450:keyboards/Manuform56/keymaps/Aaron/keymap.c **** 		return false;
 451:keyboards/Manuform56/keymaps/Aaron/keymap.c **** 		break;
 452:keyboards/Manuform56/keymaps/Aaron/keymap.c **** 	case LOWER:
 453:keyboards/Manuform56/keymaps/Aaron/keymap.c **** 		if (record->event.pressed) {
 743               		.loc 1 453 0
 744 0058 C281      		ldd r28,Z+2
 454:keyboards/Manuform56/keymaps/Aaron/keymap.c **** 			layer_on(_LOWER);
 745               		.loc 1 454 0
 746 005a 83E0      		ldi r24,lo8(3)
 747               	.LVL41:
 748 005c 00C0      		rjmp .L110
 749               	.LVL42:
 750               	.L90:
 455:keyboards/Manuform56/keymaps/Aaron/keymap.c **** 			update_tri_layer(_LOWER, _RAISE, _ADJUST);
 456:keyboards/Manuform56/keymaps/Aaron/keymap.c **** 		} else {
 457:keyboards/Manuform56/keymaps/Aaron/keymap.c **** 			layer_off(_LOWER);
 458:keyboards/Manuform56/keymaps/Aaron/keymap.c **** 			update_tri_layer(_LOWER, _RAISE, _ADJUST);
 459:keyboards/Manuform56/keymaps/Aaron/keymap.c **** 		}
 460:keyboards/Manuform56/keymaps/Aaron/keymap.c **** 		return false;
 461:keyboards/Manuform56/keymaps/Aaron/keymap.c **** 		break;
 462:keyboards/Manuform56/keymaps/Aaron/keymap.c **** 	case RAISE:
 463:keyboards/Manuform56/keymaps/Aaron/keymap.c **** 		if (record->event.pressed) {
 751               		.loc 1 463 0
 752 005e C281      		ldd r28,Z+2
 464:keyboards/Manuform56/keymaps/Aaron/keymap.c **** 			layer_on(_RAISE);
 753               		.loc 1 464 0
 754 0060 84E0      		ldi r24,lo8(4)
 755               	.LVL43:
 756               	.L110:
 463:keyboards/Manuform56/keymaps/Aaron/keymap.c **** 			layer_on(_RAISE);
 757               		.loc 1 463 0
 758 0062 CC23      		tst r28
 759 0064 01F0      		breq .L94
 760               		.loc 1 464 0
 761 0066 0E94 0000 		call layer_on
 762               	.LVL44:
 465:keyboards/Manuform56/keymaps/Aaron/keymap.c **** 			update_tri_layer(_LOWER, _RAISE, _ADJUST);
 763               		.loc 1 465 0
 764 006a 40E1      		ldi r20,lo8(16)
 765 006c 64E0      		ldi r22,lo8(4)
 766 006e 83E0      		ldi r24,lo8(3)
 767 0070 0E94 0000 		call update_tri_layer
 768               	.LVL45:
 769 0074 00C0      		rjmp .L106
 770               	.LVL46:
 771               	.L94:
 466:keyboards/Manuform56/keymaps/Aaron/keymap.c **** 		} else {
 467:keyboards/Manuform56/keymaps/Aaron/keymap.c **** 			layer_off(_RAISE);
 772               		.loc 1 467 0
 773 0076 0E94 0000 		call layer_off
 774               	.LVL47:
 468:keyboards/Manuform56/keymaps/Aaron/keymap.c **** 			update_tri_layer(_LOWER, _RAISE, _ADJUST);
 775               		.loc 1 468 0
 776 007a 40E1      		ldi r20,lo8(16)
 777 007c 64E0      		ldi r22,lo8(4)
 778 007e 83E0      		ldi r24,lo8(3)
 779 0080 0E94 0000 		call update_tri_layer
 780               	.LVL48:
 781 0084 00C0      		rjmp .L85
 782               	.LVL49:
 783               	.L92:
 469:keyboards/Manuform56/keymaps/Aaron/keymap.c **** 		}
 470:keyboards/Manuform56/keymaps/Aaron/keymap.c **** 		return false;
 471:keyboards/Manuform56/keymaps/Aaron/keymap.c **** 		break;
 472:keyboards/Manuform56/keymaps/Aaron/keymap.c **** 	case ADJUST:
 473:keyboards/Manuform56/keymaps/Aaron/keymap.c **** 		if (record->event.pressed) {
 784               		.loc 1 473 0
 785 0086 C281      		ldd r28,Z+2
 474:keyboards/Manuform56/keymaps/Aaron/keymap.c **** 			layer_on(_ADJUST);
 786               		.loc 1 474 0
 787 0088 80E1      		ldi r24,lo8(16)
 788               	.LVL50:
 473:keyboards/Manuform56/keymaps/Aaron/keymap.c **** 			layer_on(_ADJUST);
 789               		.loc 1 473 0
 790 008a CC23      		tst r28
 791 008c 01F0      		breq .L95
 792               		.loc 1 474 0
 793 008e 0E94 0000 		call layer_on
 794               	.LVL51:
 795               	.L106:
 475:keyboards/Manuform56/keymaps/Aaron/keymap.c **** 		} else {
 476:keyboards/Manuform56/keymaps/Aaron/keymap.c **** 			layer_off(_ADJUST);
 477:keyboards/Manuform56/keymaps/Aaron/keymap.c **** 		}
 478:keyboards/Manuform56/keymaps/Aaron/keymap.c **** 		return false;
 796               		.loc 1 478 0
 797 0092 C0E0      		ldi r28,0
 798 0094 00C0      		rjmp .L85
 799               	.LVL52:
 800               	.L95:
 476:keyboards/Manuform56/keymaps/Aaron/keymap.c **** 		}
 801               		.loc 1 476 0
 802 0096 0E94 0000 		call layer_off
 803               	.LVL53:
 804 009a 00C0      		rjmp .L85
 805               	.LVL54:
 806               	.L96:
 479:keyboards/Manuform56/keymaps/Aaron/keymap.c **** 		break;
 480:keyboards/Manuform56/keymaps/Aaron/keymap.c **** 	}
 481:keyboards/Manuform56/keymaps/Aaron/keymap.c **** 	return true;
 807               		.loc 1 481 0
 808 009c C1E0      		ldi r28,lo8(1)
 809               	.LVL55:
 810               	.L85:
 482:keyboards/Manuform56/keymaps/Aaron/keymap.c **** }
 811               		.loc 1 482 0
 812 009e 8C2F      		mov r24,r28
 813               	/* epilogue start */
 814 00a0 CF91      		pop r28
 815 00a2 0895      		ret
 816               		.cfi_endproc
 817               	.LFE36:
 819               		.section	.progmem.data.__m.3288,"a",@progbits
 822               	__m.3288:
 823 0000 01        		.byte	1
 824 0001 E3        		.byte	-29
 825 0002 01        		.byte	1
 826 0003 E0        		.byte	-32
 827 0004 01        		.byte	1
 828 0005 4F        		.byte	79
 829 0006 02        		.byte	2
 830 0007 4F        		.byte	79
 831 0008 02        		.byte	2
 832 0009 E0        		.byte	-32
 833 000a 02        		.byte	2
 834 000b E3        		.byte	-29
 835 000c 00        		.byte	0
 836               		.section	.progmem.data.__m.3286,"a",@progbits
 839               	__m.3286:
 840 0000 01        		.byte	1
 841 0001 E3        		.byte	-29
 842 0002 01        		.byte	1
 843 0003 E0        		.byte	-32
 844 0004 01        		.byte	1
 845 0005 50        		.byte	80
 846 0006 02        		.byte	2
 847 0007 50        		.byte	80
 848 0008 02        		.byte	2
 849 0009 E0        		.byte	-32
 850 000a 02        		.byte	2
 851 000b E3        		.byte	-29
 852 000c 00        		.byte	0
 853               		.section	.progmem.data.__m.3276,"a",@progbits
 856               	__m.3276:
 857 0000 01        		.byte	1
 858 0001 E3        		.byte	-29
 859 0002 01        		.byte	1
 860 0003 15        		.byte	21
 861 0004 02        		.byte	2
 862 0005 15        		.byte	21
 863 0006 74        		.byte	116
 864 0007 FF        		.byte	-1
 865 0008 02        		.byte	2
 866 0009 E3        		.byte	-29
 867 000a 74        		.byte	116
 868 000b FF        		.byte	-1
 869 000c 01        		.byte	1
 870 000d 06        		.byte	6
 871 000e 02        		.byte	2
 872 000f 06        		.byte	6
 873 0010 01        		.byte	1
 874 0011 10        		.byte	16
 875 0012 02        		.byte	2
 876 0013 10        		.byte	16
 877 0014 01        		.byte	1
 878 0015 07        		.byte	7
 879 0016 02        		.byte	2
 880 0017 07        		.byte	7
 881 0018 01        		.byte	1
 882 0019 28        		.byte	40
 883 001a 02        		.byte	2
 884 001b 28        		.byte	40
 885 001c 74        		.byte	116
 886 001d FF        		.byte	-1
 887 001e 01        		.byte	1
 888 001f 13        		.byte	19
 889 0020 02        		.byte	2
 890 0021 13        		.byte	19
 891 0022 01        		.byte	1
 892 0023 0C        		.byte	12
 893 0024 02        		.byte	2
 894 0025 0C        		.byte	12
 895 0026 01        		.byte	1
 896 0027 11        		.byte	17
 897 0028 02        		.byte	2
 898 0029 11        		.byte	17
 899 002a 01        		.byte	1
 900 002b 0A        		.byte	10
 901 002c 02        		.byte	2
 902 002d 0A        		.byte	10
 903 002e 01        		.byte	1
 904 002f 2C        		.byte	44
 905 0030 02        		.byte	2
 906 0031 2C        		.byte	44
 907 0032 01        		.byte	1
 908 0033 E0        		.byte	-32
 909 0034 01        		.byte	1
 910 0035 19        		.byte	25
 911 0036 02        		.byte	2
 912 0037 19        		.byte	25
 913 0038 02        		.byte	2
 914 0039 E0        		.byte	-32
 915 003a 00        		.byte	0
 916               		.section	.progmem.data.__m.3274,"a",@progbits
 919               	__m.3274:
 920 0000 01        		.byte	1
 921 0001 E3        		.byte	-29
 922 0002 01        		.byte	1
 923 0003 15        		.byte	21
 924 0004 02        		.byte	2
 925 0005 15        		.byte	21
 926 0006 02        		.byte	2
 927 0007 E3        		.byte	-29
 928 0008 01        		.byte	1
 929 0009 06        		.byte	6
 930 000a 02        		.byte	2
 931 000b 06        		.byte	6
 932 000c 01        		.byte	1
 933 000d 10        		.byte	16
 934 000e 02        		.byte	2
 935 000f 10        		.byte	16
 936 0010 01        		.byte	1
 937 0011 07        		.byte	7
 938 0012 02        		.byte	2
 939 0013 07        		.byte	7
 940 0014 01        		.byte	1
 941 0015 28        		.byte	40
 942 0016 02        		.byte	2
 943 0017 28        		.byte	40
 944 0018 74        		.byte	116
 945 0019 FF        		.byte	-1
 946 001a 74        		.byte	116
 947 001b FF        		.byte	-1
 948 001c 01        		.byte	1
 949 001d 0C        		.byte	12
 950 001e 02        		.byte	2
 951 001f 0C        		.byte	12
 952 0020 01        		.byte	1
 953 0021 13        		.byte	19
 954 0022 02        		.byte	2
 955 0023 13        		.byte	19
 956 0024 01        		.byte	1
 957 0025 06        		.byte	6
 958 0026 02        		.byte	2
 959 0027 06        		.byte	6
 960 0028 01        		.byte	1
 961 0029 12        		.byte	18
 962 002a 02        		.byte	2
 963 002b 12        		.byte	18
 964 002c 01        		.byte	1
 965 002d 11        		.byte	17
 966 002e 02        		.byte	2
 967 002f 11        		.byte	17
 968 0030 01        		.byte	1
 969 0031 09        		.byte	9
 970 0032 02        		.byte	2
 971 0033 09        		.byte	9
 972 0034 01        		.byte	1
 973 0035 0C        		.byte	12
 974 0036 02        		.byte	2
 975 0037 0C        		.byte	12
 976 0038 01        		.byte	1
 977 0039 0A        		.byte	10
 978 003a 02        		.byte	2
 979 003b 0A        		.byte	10
 980 003c 01        		.byte	1
 981 003d 2C        		.byte	44
 982 003e 02        		.byte	2
 983 003f 2C        		.byte	44
 984 0040 01        		.byte	1
 985 0041 38        		.byte	56
 986 0042 02        		.byte	2
 987 0043 38        		.byte	56
 988 0044 01        		.byte	1
 989 0045 04        		.byte	4
 990 0046 02        		.byte	2
 991 0047 04        		.byte	4
 992 0048 01        		.byte	1
 993 0049 0F        		.byte	15
 994 004a 02        		.byte	2
 995 004b 0F        		.byte	15
 996 004c 01        		.byte	1
 997 004d 0F        		.byte	15
 998 004e 02        		.byte	2
 999 004f 0F        		.byte	15
 1000 0050 01        		.byte	1
 1001 0051 28        		.byte	40
 1002 0052 02        		.byte	2
 1003 0053 28        		.byte	40
 1004 0054 00        		.byte	0
 1005               		.section	.progmem.data.__m.3272,"a",@progbits
 1008               	__m.3272:
 1009 0000 01        		.byte	1
 1010 0001 E3        		.byte	-29
 1011 0002 01        		.byte	1
 1012 0003 15        		.byte	21
 1013 0004 02        		.byte	2
 1014 0005 15        		.byte	21
 1015 0006 74        		.byte	116
 1016 0007 FF        		.byte	-1
 1017 0008 02        		.byte	2
 1018 0009 E3        		.byte	-29
 1019 000a 74        		.byte	116
 1020 000b FF        		.byte	-1
 1021 000c 01        		.byte	1
 1022 000d 06        		.byte	6
 1023 000e 02        		.byte	2
 1024 000f 06        		.byte	6
 1025 0010 01        		.byte	1
 1026 0011 10        		.byte	16
 1027 0012 02        		.byte	2
 1028 0013 10        		.byte	16
 1029 0014 01        		.byte	1
 1030 0015 07        		.byte	7
 1031 0016 02        		.byte	2
 1032 0017 07        		.byte	7
 1033 0018 01        		.byte	1
 1034 0019 28        		.byte	40
 1035 001a 02        		.byte	2
 1036 001b 28        		.byte	40
 1037 001c 00        		.byte	0
 1038               		.section	.progmem.data.__m.3266,"a",@progbits
 1041               	__m.3266:
 1042 0000 01        		.byte	1
 1043 0001 E0        		.byte	-32
 1044 0002 01        		.byte	1
 1045 0003 04        		.byte	4
 1046 0004 02        		.byte	2
 1047 0005 04        		.byte	4
 1048 0006 01        		.byte	1
 1049 0007 06        		.byte	6
 1050 0008 02        		.byte	2
 1051 0009 06        		.byte	6
 1052 000a 02        		.byte	2
 1053 000b E0        		.byte	-32
 1054 000c 00        		.byte	0
 1055               		.section	.progmem.data.__m.3264,"a",@progbits
 1058               	__m.3264:
 1059 0000 01        		.byte	1
 1060 0001 E0        		.byte	-32
 1061 0002 01        		.byte	1
 1062 0003 19        		.byte	25
 1063 0004 02        		.byte	2
 1064 0005 19        		.byte	25
 1065 0006 02        		.byte	2
 1066 0007 E0        		.byte	-32
 1067 0008 00        		.byte	0
 1068               		.section	.progmem.data.__m.3262,"a",@progbits
 1071               	__m.3262:
 1072 0000 01        		.byte	1
 1073 0001 E0        		.byte	-32
 1074 0002 01        		.byte	1
 1075 0003 06        		.byte	6
 1076 0004 02        		.byte	2
 1077 0005 06        		.byte	6
 1078 0006 02        		.byte	2
 1079 0007 E0        		.byte	-32
 1080 0008 00        		.byte	0
 1081               		.section	.progmem.data.__c.3256,"a",@progbits
 1084               	__c.3256:
 1085 0000 636D 6401 		.string	"cmd\001("
 1085      2800 
 1086               		.section	.progmem.data.__c.3251,"a",@progbits
 1089               	__c.3251:
 1090 0000 4143 0128 		.string	"AC\001("
 1090      00
 1091               		.section	.progmem.data.__m.3248,"a",@progbits
 1094               	__m.3248:
 1095 0000 75        		.byte	117
 1096 0001 0A        		.byte	10
 1097 0002 01        		.byte	1
 1098 0003 2B        		.byte	43
 1099 0004 02        		.byte	2
 1100 0005 2B        		.byte	43
 1101 0006 01        		.byte	1
 1102 0007 0C        		.byte	12
 1103 0008 02        		.byte	2
 1104 0009 0C        		.byte	12
 1105 000a 01        		.byte	1
 1106 000b 11        		.byte	17
 1107 000c 02        		.byte	2
 1108 000d 11        		.byte	17
 1109 000e 01        		.byte	1
 1110 000f 2B        		.byte	43
 1111 0010 02        		.byte	2
 1112 0011 2B        		.byte	43
 1113 0012 01        		.byte	1
 1114 0013 28        		.byte	40
 1115 0014 02        		.byte	2
 1116 0015 28        		.byte	40
 1117 0016 01        		.byte	1
 1118 0017 2B        		.byte	43
 1119 0018 02        		.byte	2
 1120 0019 2B        		.byte	43
 1121 001a 01        		.byte	1
 1122 001b 2B        		.byte	43
 1123 001c 02        		.byte	2
 1124 001d 2B        		.byte	43
 1125 001e 01        		.byte	1
 1126 001f 2B        		.byte	43
 1127 0020 02        		.byte	2
 1128 0021 2B        		.byte	43
 1129 0022 01        		.byte	1
 1130 0023 0C        		.byte	12
 1131 0024 02        		.byte	2
 1132 0025 0C        		.byte	12
 1133 0026 01        		.byte	1
 1134 0027 11        		.byte	17
 1135 0028 02        		.byte	2
 1136 0029 11        		.byte	17
 1137 002a 01        		.byte	1
 1138 002b 2B        		.byte	43
 1139 002c 02        		.byte	2
 1140 002d 2B        		.byte	43
 1141 002e 01        		.byte	1
 1142 002f 28        		.byte	40
 1143 0030 02        		.byte	2
 1144 0031 28        		.byte	40
 1145 0032 00        		.byte	0
 1146               		.section	.progmem.data.__m.3245,"a",@progbits
 1149               	__m.3245:
 1150 0000 75        		.byte	117
 1151 0001 0A        		.byte	10
 1152 0002 01        		.byte	1
 1153 0003 2B        		.byte	43
 1154 0004 02        		.byte	2
 1155 0005 2B        		.byte	43
 1156 0006 01        		.byte	1
 1157 0007 12        		.byte	18
 1158 0008 02        		.byte	2
 1159 0009 12        		.byte	18
 1160 000a 01        		.byte	1
 1161 000b 17        		.byte	23
 1162 000c 02        		.byte	2
 1163 000d 17        		.byte	23
 1164 000e 01        		.byte	1
 1165 000f 2B        		.byte	43
 1166 0010 02        		.byte	2
 1167 0011 2B        		.byte	43
 1168 0012 01        		.byte	1
 1169 0013 28        		.byte	40
 1170 0014 02        		.byte	2
 1171 0015 28        		.byte	40
 1172 0016 01        		.byte	1
 1173 0017 2B        		.byte	43
 1174 0018 02        		.byte	2
 1175 0019 2B        		.byte	43
 1176 001a 01        		.byte	1
 1177 001b 2B        		.byte	43
 1178 001c 02        		.byte	2
 1179 001d 2B        		.byte	43
 1180 001e 01        		.byte	1
 1181 001f 2B        		.byte	43
 1182 0020 02        		.byte	2
 1183 0021 2B        		.byte	43
 1184 0022 01        		.byte	1
 1185 0023 1D        		.byte	29
 1186 0024 02        		.byte	2
 1187 0025 1D        		.byte	29
 1188 0026 01        		.byte	1
 1189 0027 15        		.byte	21
 1190 0028 02        		.byte	2
 1191 0029 15        		.byte	21
 1192 002a 01        		.byte	1
 1193 002b 2B        		.byte	43
 1194 002c 02        		.byte	2
 1195 002d 2B        		.byte	43
 1196 002e 01        		.byte	1
 1197 002f 28        		.byte	40
 1198 0030 02        		.byte	2
 1199 0031 28        		.byte	40
 1200 0032 00        		.byte	0
 1201               		.section	.progmem.data.__m.3242,"a",@progbits
 1204               	__m.3242:
 1205 0000 75        		.byte	117
 1206 0001 0A        		.byte	10
 1207 0002 01        		.byte	1
 1208 0003 2B        		.byte	43
 1209 0004 02        		.byte	2
 1210 0005 2B        		.byte	43
 1211 0006 01        		.byte	1
 1212 0007 12        		.byte	18
 1213 0008 02        		.byte	2
 1214 0009 12        		.byte	18
 1215 000a 01        		.byte	1
 1216 000b 13        		.byte	19
 1217 000c 02        		.byte	2
 1218 000d 13        		.byte	19
 1219 000e 01        		.byte	1
 1220 000f 2B        		.byte	43
 1221 0010 02        		.byte	2
 1222 0011 2B        		.byte	43
 1223 0012 01        		.byte	1
 1224 0013 28        		.byte	40
 1225 0014 02        		.byte	2
 1226 0015 28        		.byte	40
 1227 0016 01        		.byte	1
 1228 0017 2B        		.byte	43
 1229 0018 02        		.byte	2
 1230 0019 2B        		.byte	43
 1231 001a 01        		.byte	1
 1232 001b 2B        		.byte	43
 1233 001c 02        		.byte	2
 1234 001d 2B        		.byte	43
 1235 001e 01        		.byte	1
 1236 001f 2B        		.byte	43
 1237 0020 02        		.byte	2
 1238 0021 2B        		.byte	43
 1239 0022 01        		.byte	1
 1240 0023 1D        		.byte	29
 1241 0024 02        		.byte	2
 1242 0025 1D        		.byte	29
 1243 0026 01        		.byte	1
 1244 0027 15        		.byte	21
 1245 0028 02        		.byte	2
 1246 0029 15        		.byte	21
 1247 002a 01        		.byte	1
 1248 002b 2B        		.byte	43
 1249 002c 02        		.byte	2
 1250 002d 2B        		.byte	43
 1251 002e 01        		.byte	1
 1252 002f 28        		.byte	40
 1253 0030 02        		.byte	2
 1254 0031 28        		.byte	40
 1255 0032 00        		.byte	0
 1256               		.section	.progmem.data.__c.3239,"a",@progbits
 1259               	__c.3239:
 1260 0000 6970 636F 		.string	"ipconfig /all"
 1260      6E66 6967 
 1260      202F 616C 
 1260      6C00 
 1261               		.section	.progmem.data.__c.3236,"a",@progbits
 1264               	__c.3236:
 1265 0000 7473 00   		.string	"ts"
 1266               		.section	.progmem.data.__m.3233,"a",@progbits
 1269               	__m.3233:
 1270 0000 75        		.byte	117
 1271 0001 0A        		.byte	10
 1272 0002 01        		.byte	1
 1273 0003 27        		.byte	39
 1274 0004 02        		.byte	2
 1275 0005 27        		.byte	39
 1276 0006 01        		.byte	1
 1277 0007 06        		.byte	6
 1278 0008 02        		.byte	2
 1279 0009 06        		.byte	6
 1280 000a 01        		.byte	1
 1281 000b 2B        		.byte	43
 1282 000c 02        		.byte	2
 1283 000d 2B        		.byte	43
 1284 000e 01        		.byte	1
 1285 000f 2B        		.byte	43
 1286 0010 02        		.byte	2
 1287 0011 2B        		.byte	43
 1288 0012 01        		.byte	1
 1289 0013 04        		.byte	4
 1290 0014 02        		.byte	2
 1291 0015 04        		.byte	4
 1292 0016 01        		.byte	1
 1293 0017 2B        		.byte	43
 1294 0018 02        		.byte	2
 1295 0019 2B        		.byte	43
 1296 001a 00        		.byte	0
 1297               		.section	.progmem.data.__m.3229,"a",@progbits
 1300               	__m.3229:
 1301 0000 01        		.byte	1
 1302 0001 1B        		.byte	27
 1303 0002 02        		.byte	2
 1304 0003 1B        		.byte	27
 1305 0004 00        		.byte	0
 1306               		.section	.progmem.data.__m.3225,"a",@progbits
 1309               	__m.3225:
 1310 0000 75        		.byte	117
 1311 0001 0A        		.byte	10
 1312 0002 01        		.byte	1
 1313 0003 E0        		.byte	-32
 1314 0004 01        		.byte	1
 1315 0005 17        		.byte	23
 1316 0006 02        		.byte	2
 1317 0007 17        		.byte	23
 1318 0008 01        		.byte	1
 1319 0009 19        		.byte	25
 1320 000a 02        		.byte	2
 1321 000b 19        		.byte	25
 1322 000c 01        		.byte	1
 1323 000d 28        		.byte	40
 1324 000e 02        		.byte	2
 1325 000f 28        		.byte	40
 1326 0010 02        		.byte	2
 1327 0011 E0        		.byte	-32
 1328 0012 00        		.byte	0
 1329               		.section	.progmem.data.__c.3222,"a",@progbits
 1332               	__c.3222:
 1333 0000 7777 772E 		.string	"www.support.xerox.com\001("
 1333      7375 7070 
 1333      6F72 742E 
 1333      7865 726F 
 1333      782E 636F 
 1334               		.section	.progmem.data.__c.3219,"a",@progbits
 1337               	__c.3219:
 1338 0000 6170 6165 		.string	"apaez@gotocos.com"
 1338      7A40 676F 
 1338      746F 636F 
 1338      732E 636F 
 1338      6D00 
 1339               		.section	.progmem.data.__c.3216,"a",@progbits
 1342               	__c.3216:
 1343 0000 6164 6D69 		.string	"admin\001+1111\001("
 1343      6E01 2B31 
 1343      3131 3101 
 1343      2800 
 1344               		.section	.progmem.data.__m.3213,"a",@progbits
 1347               	__m.3213:
 1348 0000 01        		.byte	1
 1349 0001 E3        		.byte	-29
 1350 0002 01        		.byte	1
 1351 0003 2B        		.byte	43
 1352 0004 02        		.byte	2
 1353 0005 2B        		.byte	43
 1354 0006 02        		.byte	2
 1355 0007 E3        		.byte	-29
 1356 0008 00        		.byte	0
 1357               	.global	tap_dance_actions
 1358               		.section	.data.tap_dance_actions,"aw",@progbits
 1361               	tap_dance_actions:
 1362 0000 0000      		.word	0
 1363 0002 0000      		.word	gs(cmd_commands)
 1364 0004 0000      		.word	0
 1365 0006 0000 0000 		.zero	12
 1365      0000 0000 
 1365      0000 0000 
 1366 0012 0000      		.word	0
 1367 0014 0000      		.word	0
 1368 0016 0000      		.word	gs(cmd)
 1369 0018 0000      		.word	0
 1370 001a 0000 0000 		.zero	12
 1370      0000 0000 
 1370      0000 0000 
 1371 0026 0000      		.word	0
 1372 0028 0000      		.word	0
 1373 002a 0000      		.word	gs(SLSH_BSLSH)
 1374 002c 0000      		.word	0
 1375 002e 0000 0000 		.zero	12
 1375      0000 0000 
 1375      0000 0000 
 1376 003a 0000      		.word	0
 1377 003c 0000      		.word	0
 1378 003e 0000      		.word	gs(VirtualDesktop)
 1379 0040 0000      		.word	0
 1380 0042 0000 0000 		.zero	12
 1380      0000 0000 
 1380      0000 0000 
 1381 004e 0000      		.word	0
 1382               	.global	keymaps
 1383               		.section	.progmem.data.keymaps,"a",@progbits
 1386               	keymaps:
 1387 0000 2E00      		.word	46
 1388 0002 1E00      		.word	30
 1389 0004 1F00      		.word	31
 1390 0006 2000      		.word	32
 1391 0008 2100      		.word	33
 1392 000a 2200      		.word	34
 1393 000c 2B45      		.word	17707
 1394 000e 1400      		.word	20
 1395 0010 1A00      		.word	26
 1396 0012 0900      		.word	9
 1397 0014 1300      		.word	19
 1398 0016 0A00      		.word	10
 1399 0018 2840      		.word	16424
 1400 001a 0400      		.word	4
 1401 001c 1500      		.word	21
 1402 001e 1600      		.word	22
 1403 0020 1700      		.word	23
 1404 0022 0700      		.word	7
 1405 0024 E100      		.word	225
 1406 0026 1D00      		.word	29
 1407 0028 1B00      		.word	27
 1408 002a 0600      		.word	6
 1409 002c 1900      		.word	25
 1410 002e 0500      		.word	5
 1411 0030 0100      		.word	1
 1412 0032 0100      		.word	1
 1413 0034 5000      		.word	80
 1414 0036 4F00      		.word	79
 1415 0038 2A00      		.word	42
 1416 003a DD5C      		.word	23773
 1417 003c 0100      		.word	1
 1418 003e 0100      		.word	1
 1419 0040 2961      		.word	24873
 1420 0042 3500      		.word	53
 1421 0044 0030      		.word	12288
 1422 0046 4600      		.word	70
 1423 0048 2D00      		.word	45
 1424 004a 2700      		.word	39
 1425 004c 2600      		.word	38
 1426 004e 2500      		.word	37
 1427 0050 2400      		.word	36
 1428 0052 2300      		.word	35
 1429 0054 3100      		.word	49
 1430 0056 3300      		.word	51
 1431 0058 1C00      		.word	28
 1432 005a 1800      		.word	24
 1433 005c 0F00      		.word	15
 1434 005e 0D00      		.word	13
 1435 0060 2800      		.word	40
 1436 0062 1200      		.word	18
 1437 0064 0C00      		.word	12
 1438 0066 0800      		.word	8
 1439 0068 1100      		.word	17
 1440 006a 0B00      		.word	11
 1441 006c 3500      		.word	53
 1442 006e 3800      		.word	56
 1443 0070 3700      		.word	55
 1444 0072 3600      		.word	54
 1445 0074 1000      		.word	16
 1446 0076 0E00      		.word	14
 1447 0078 0100      		.word	1
 1448 007a 0100      		.word	1
 1449 007c 5100      		.word	81
 1450 007e 5200      		.word	82
 1451 0080 2C00      		.word	44
 1452 0082 2800      		.word	40
 1453 0084 0100      		.word	1
 1454 0086 0100      		.word	1
 1455 0088 4E00      		.word	78
 1456 008a 4B00      		.word	75
 1457 008c DE5C      		.word	23774
 1458 008e 4C00      		.word	76
 1459 0090 2E00      		.word	46
 1460 0092 1E00      		.word	30
 1461 0094 1F00      		.word	31
 1462 0096 2000      		.word	32
 1463 0098 2100      		.word	33
 1464 009a 2200      		.word	34
 1465 009c 2B45      		.word	17707
 1466 009e 1400      		.word	20
 1467 00a0 1A00      		.word	26
 1468 00a2 0800      		.word	8
 1469 00a4 1500      		.word	21
 1470 00a6 1700      		.word	23
 1471 00a8 2840      		.word	16424
 1472 00aa 0400      		.word	4
 1473 00ac 1600      		.word	22
 1474 00ae 0700      		.word	7
 1475 00b0 0900      		.word	9
 1476 00b2 0A00      		.word	10
 1477 00b4 E100      		.word	225
 1478 00b6 1D00      		.word	29
 1479 00b8 1B00      		.word	27
 1480 00ba 0600      		.word	6
 1481 00bc 1900      		.word	25
 1482 00be 0500      		.word	5
 1483 00c0 0100      		.word	1
 1484 00c2 4A00      		.word	74
 1485 00c4 2900      		.word	41
 1486 00c6 4600      		.word	70
 1487 00c8 0030      		.word	12288
 1488 00ca DD5C      		.word	23773
 1489 00cc 2B45      		.word	17707
 1490 00ce 1E00      		.word	30
 1491 00d0 1F00      		.word	31
 1492 00d2 2000      		.word	32
 1493 00d4 2100      		.word	33
 1494 00d6 2200      		.word	34
 1495 00d8 2D00      		.word	45
 1496 00da 2700      		.word	39
 1497 00dc 2600      		.word	38
 1498 00de 2500      		.word	37
 1499 00e0 2400      		.word	36
 1500 00e2 2300      		.word	35
 1501 00e4 3100      		.word	49
 1502 00e6 1300      		.word	19
 1503 00e8 1200      		.word	18
 1504 00ea 0C00      		.word	12
 1505 00ec 1800      		.word	24
 1506 00ee 1C00      		.word	28
 1507 00f0 2800      		.word	40
 1508 00f2 3300      		.word	51
 1509 00f4 0F00      		.word	15
 1510 00f6 0E00      		.word	14
 1511 00f8 0D00      		.word	13
 1512 00fa 0B00      		.word	11
 1513 00fc 3500      		.word	53
 1514 00fe 3800      		.word	56
 1515 0100 3700      		.word	55
 1516 0102 3600      		.word	54
 1517 0104 1000      		.word	16
 1518 0106 1100      		.word	17
 1519 0108 0100      		.word	1
 1520 010a 4D00      		.word	77
 1521 010c 4A00      		.word	74
 1522 010e 4C00      		.word	76
 1523 0110 DE5C      		.word	23774
 1524 0112 2800      		.word	40
 1525 0114 2D00      		.word	45
 1526 0116 1F00      		.word	31
 1527 0118 1F00      		.word	31
 1528 011a 1F00      		.word	31
 1529 011c 1F00      		.word	31
 1530 011e 1F00      		.word	31
 1531 0120 2E00      		.word	46
 1532 0122 1E00      		.word	30
 1533 0124 1F00      		.word	31
 1534 0126 2000      		.word	32
 1535 0128 2100      		.word	33
 1536 012a 2200      		.word	34
 1537 012c 2B00      		.word	43
 1538 012e 3400      		.word	52
 1539 0130 3600      		.word	54
 1540 0132 3700      		.word	55
 1541 0134 1300      		.word	19
 1542 0136 1C00      		.word	28
 1543 0138 2961      		.word	24873
 1544 013a 0400      		.word	4
 1545 013c 1200      		.word	18
 1546 013e 0800      		.word	8
 1547 0140 1800      		.word	24
 1548 0142 0C00      		.word	12
 1549 0144 E100      		.word	225
 1550 0146 3300      		.word	51
 1551 0148 1400      		.word	20
 1552 014a 0D00      		.word	13
 1553 014c 0E00      		.word	14
 1554 014e 1B00      		.word	27
 1555 0150 2B45      		.word	17707
 1556 0152 1E00      		.word	30
 1557 0154 1F00      		.word	31
 1558 0156 2000      		.word	32
 1559 0158 2100      		.word	33
 1560 015a 2200      		.word	34
 1561 015c 2B45      		.word	17707
 1562 015e 1E00      		.word	30
 1563 0160 1F00      		.word	31
 1564 0162 2000      		.word	32
 1565 0164 2100      		.word	33
 1566 0166 2200      		.word	34
 1567 0168 2D00      		.word	45
 1568 016a 2700      		.word	39
 1569 016c 2600      		.word	38
 1570 016e 2500      		.word	37
 1571 0170 2400      		.word	36
 1572 0172 2300      		.word	35
 1573 0174 2D00      		.word	45
 1574 0176 0F00      		.word	15
 1575 0178 1500      		.word	21
 1576 017a 0600      		.word	6
 1577 017c 0A00      		.word	10
 1578 017e 0900      		.word	9
 1579 0180 3800      		.word	56
 1580 0182 1600      		.word	22
 1581 0184 1100      		.word	17
 1582 0186 1700      		.word	23
 1583 0188 0B00      		.word	11
 1584 018a 0700      		.word	7
 1585 018c 2840      		.word	16424
 1586 018e 1D00      		.word	29
 1587 0190 1900      		.word	25
 1588 0192 1A00      		.word	26
 1589 0194 1000      		.word	16
 1590 0196 0500      		.word	5
 1591 0198 2D00      		.word	45
 1592 019a 1F00      		.word	31
 1593 019c 1F00      		.word	31
 1594 019e 1F00      		.word	31
 1595 01a0 1F00      		.word	31
 1596 01a2 1F00      		.word	31
 1597 01a4 2D00      		.word	45
 1598 01a6 1F00      		.word	31
 1599 01a8 1F00      		.word	31
 1600 01aa 1F00      		.word	31
 1601 01ac 1F00      		.word	31
 1602 01ae 1F00      		.word	31
 1603 01b0 3500      		.word	53
 1604 01b2 0C30      		.word	12300
 1605 01b4 0D30      		.word	12301
 1606 01b6 0E30      		.word	12302
 1607 01b8 0100      		.word	1
 1608 01ba 0100      		.word	1
 1609 01bc 0100      		.word	1
 1610 01be 0100      		.word	1
 1611 01c0 0330      		.word	12291
 1612 01c2 0230      		.word	12290
 1613 01c4 0100      		.word	1
 1614 01c6 0F30      		.word	12303
 1615 01c8 0100      		.word	1
 1616 01ca 0630      		.word	12294
 1617 01cc 0100      		.word	1
 1618 01ce 0100      		.word	1
 1619 01d0 0100      		.word	1
 1620 01d2 0100      		.word	1
 1621 01d4 0100      		.word	1
 1622 01d6 0100      		.word	1
 1623 01d8 0130      		.word	12289
 1624 01da 0100      		.word	1
 1625 01dc 0100      		.word	1
 1626 01de 0100      		.word	1
 1627 01e0 005C      		.word	23552
 1628 01e2 0100      		.word	1
 1629 01e4 0100      		.word	1
 1630 01e6 0100      		.word	1
 1631 01e8 0100      		.word	1
 1632 01ea 005C      		.word	23552
 1633 01ec 2B45      		.word	17707
 1634 01ee 0100      		.word	1
 1635 01f0 0100      		.word	1
 1636 01f2 0100      		.word	1
 1637 01f4 0100      		.word	1
 1638 01f6 0100      		.word	1
 1639 01f8 0100      		.word	1
 1640 01fa 3000      		.word	48
 1641 01fc 2F00      		.word	47
 1642 01fe 0100      		.word	1
 1643 0200 0100      		.word	1
 1644 0202 0100      		.word	1
 1645 0204 0100      		.word	1
 1646 0206 0A30      		.word	12298
 1647 0208 1030      		.word	12304
 1648 020a 0100      		.word	1
 1649 020c 0100      		.word	1
 1650 020e 0100      		.word	1
 1651 0210 0100      		.word	1
 1652 0212 0100      		.word	1
 1653 0214 0B30      		.word	12299
 1654 0216 5200      		.word	82
 1655 0218 0100      		.word	1
 1656 021a 0100      		.word	1
 1657 021c 0100      		.word	1
 1658 021e 0100      		.word	1
 1659 0220 4F00      		.word	79
 1660 0222 5100      		.word	81
 1661 0224 5000      		.word	80
 1662 0226 0100      		.word	1
 1663 0228 005C      		.word	23552
 1664 022a 0100      		.word	1
 1665 022c 0100      		.word	1
 1666 022e 0100      		.word	1
 1667 0230 0100      		.word	1
 1668 0232 0100      		.word	1
 1669 0234 2D00      		.word	45
 1670 0236 0100      		.word	1
 1671 0238 0100      		.word	1
 1672 023a 0100      		.word	1
 1673 023c 0100      		.word	1
 1674 023e 0100      		.word	1
 1675 0240 3500      		.word	53
 1676 0242 1E00      		.word	30
 1677 0244 1F00      		.word	31
 1678 0246 2000      		.word	32
 1679 0248 2100      		.word	33
 1680 024a 2200      		.word	34
 1681 024c 2500      		.word	37
 1682 024e 1E00      		.word	30
 1683 0250 0330      		.word	12291
 1684 0252 1E00      		.word	30
 1685 0254 1E00      		.word	30
 1686 0256 1E00      		.word	30
 1687 0258 2500      		.word	37
 1688 025a 1E00      		.word	30
 1689 025c 1E00      		.word	30
 1690 025e 1E00      		.word	30
 1691 0260 1E00      		.word	30
 1692 0262 1E00      		.word	30
 1693 0264 2500      		.word	37
 1694 0266 1E00      		.word	30
 1695 0268 1E00      		.word	30
 1696 026a 1E00      		.word	30
 1697 026c 1E00      		.word	30
 1698 026e 1E00      		.word	30
 1699 0270 2961      		.word	24873
 1700 0272 E200      		.word	226
 1701 0274 E300      		.word	227
 1702 0276 1E00      		.word	30
 1703 0278 1E00      		.word	30
 1704 027a 3500      		.word	53
 1705 027c 2B45      		.word	17707
 1706 027e 0100      		.word	1
 1707 0280 0100      		.word	1
 1708 0282 0100      		.word	1
 1709 0284 0100      		.word	1
 1710 0286 0100      		.word	1
 1711 0288 2D00      		.word	45
 1712 028a 2700      		.word	39
 1713 028c 2600      		.word	38
 1714 028e 2500      		.word	37
 1715 0290 2400      		.word	36
 1716 0292 2300      		.word	35
 1717 0294 0000      		.word	0
 1718 0296 5600      		.word	86
 1719 0298 2300      		.word	35
 1720 029a 2200      		.word	34
 1721 029c 2100      		.word	33
 1722 029e 0000      		.word	0
 1723 02a0 0000      		.word	0
 1724 02a2 5700      		.word	87
 1725 02a4 2000      		.word	32
 1726 02a6 1F00      		.word	31
 1727 02a8 1E00      		.word	30
 1728 02aa 0000      		.word	0
 1729 02ac 0000      		.word	0
 1730 02ae 0000      		.word	0
 1731 02b0 3700      		.word	55
 1732 02b2 2700      		.word	39
 1733 02b4 2700      		.word	39
 1734 02b6 0000      		.word	0
 1735 02b8 3400      		.word	52
 1736 02ba 0100      		.word	1
 1737 02bc 4F00      		.word	79
 1738 02be 5000      		.word	80
 1739 02c0 0100      		.word	1
 1740 02c2 4C00      		.word	76
 1741 02c4 2D00      		.word	45
 1742 02c6 0100      		.word	1
 1743 02c8 0100      		.word	1
 1744 02ca 0100      		.word	1
 1745 02cc 0100      		.word	1
 1746 02ce 0100      		.word	1
 1747 02d0 4500      		.word	69
 1748 02d2 3A00      		.word	58
 1749 02d4 3B00      		.word	59
 1750 02d6 3C00      		.word	60
 1751 02d8 3D00      		.word	61
 1752 02da 3E00      		.word	62
 1753 02dc 0100      		.word	1
 1754 02de 2000      		.word	32
 1755 02e0 2000      		.word	32
 1756 02e2 2000      		.word	32
 1757 02e4 2000      		.word	32
 1758 02e6 2000      		.word	32
 1759 02e8 0100      		.word	1
 1760 02ea 0100      		.word	1
 1761 02ec 5200      		.word	82
 1762 02ee 0100      		.word	1
 1763 02f0 0100      		.word	1
 1764 02f2 0100      		.word	1
 1765 02f4 2961      		.word	24873
 1766 02f6 E200      		.word	226
 1767 02f8 E300      		.word	227
 1768 02fa 0357      		.word	22275
 1769 02fc DD5C      		.word	23773
 1770 02fe 2A00      		.word	42
 1771 0300 2B45      		.word	17707
 1772 0302 1E00      		.word	30
 1773 0304 1F00      		.word	31
 1774 0306 2000      		.word	32
 1775 0308 2100      		.word	33
 1776 030a 2200      		.word	34
 1777 030c 2B45      		.word	17707
 1778 030e 1E00      		.word	30
 1779 0310 1F00      		.word	31
 1780 0312 2000      		.word	32
 1781 0314 2100      		.word	33
 1782 0316 2200      		.word	34
 1783 0318 4400      		.word	68
 1784 031a 4300      		.word	67
 1785 031c 4200      		.word	66
 1786 031e 4100      		.word	65
 1787 0320 4000      		.word	64
 1788 0322 3F00      		.word	63
 1789 0324 0100      		.word	1
 1790 0326 0100      		.word	1
 1791 0328 0100      		.word	1
 1792 032a 0100      		.word	1
 1793 032c 0100      		.word	1
 1794 032e 0100      		.word	1
 1795 0330 0100      		.word	1
 1796 0332 5200      		.word	82
 1797 0334 0100      		.word	1
 1798 0336 0100      		.word	1
 1799 0338 0100      		.word	1
 1800 033a 0100      		.word	1
 1801 033c 4F00      		.word	79
 1802 033e 5100      		.word	81
 1803 0340 5000      		.word	80
 1804 0342 3400      		.word	52
 1805 0344 5200      		.word	82
 1806 0346 2C00      		.word	44
 1807 0348 2D00      		.word	45
 1808 034a 2700      		.word	39
 1809 034c 2600      		.word	38
 1810 034e 2500      		.word	37
 1811 0350 2400      		.word	36
 1812 0352 2300      		.word	35
 1813 0354 2D00      		.word	45
 1814 0356 1F00      		.word	31
 1815 0358 1F00      		.word	31
 1816 035a 1F00      		.word	31
 1817 035c 1F00      		.word	31
 1818 035e 1F00      		.word	31
 1819 0360 0000 0000 		.zero	1440
 1819      0000 0000 
 1819      0000 0000 
 1819      0000 0000 
 1819      0000 0000 
 1820 0900 0100      		.word	1
 1821 0902 DA5C      		.word	23770
 1822 0904 DB5C      		.word	23771
 1823 0906 C15C      		.word	23745
 1824 0908 C45C      		.word	23748
 1825 090a C35C      		.word	23747
 1826 090c 0100      		.word	1
 1827 090e DB5C      		.word	23771
 1828 0910 0100      		.word	1
 1829 0912 1D5C      		.word	23581
 1830 0914 1E5C      		.word	23582
 1831 0916 135C      		.word	23571
 1832 0918 0100      		.word	1
 1833 091a 1E00      		.word	30
 1834 091c 1E00      		.word	30
 1835 091e 0100      		.word	1
 1836 0920 0100      		.word	1
 1837 0922 0100      		.word	1
 1838 0924 0100      		.word	1
 1839 0926 0100      		.word	1
 1840 0928 0100      		.word	1
 1841 092a DA5C      		.word	23770
 1842 092c 0100      		.word	1
 1843 092e 0100      		.word	1
 1844 0930 0100      		.word	1
 1845 0932 0100      		.word	1
 1846 0934 0100      		.word	1
 1847 0936 0100      		.word	1
 1848 0938 0100      		.word	1
 1849 093a 0100      		.word	1
 1850 093c 0100      		.word	1
 1851 093e 0100      		.word	1
 1852 0940 0100      		.word	1
 1853 0942 0100      		.word	1
 1854 0944 0100      		.word	1
 1855 0946 0100      		.word	1
 1856 0948 005C      		.word	23552
 1857 094a 005C      		.word	23552
 1858 094c C75C      		.word	23751
 1859 094e C85C      		.word	23752
 1860 0950 C55C      		.word	23749
 1861 0952 C65C      		.word	23750
 1862 0954 0100      		.word	1
 1863 0956 015C      		.word	23553
 1864 0958 DC5C      		.word	23772
 1865 095a DA5C      		.word	23770
 1866 095c DB5C      		.word	23771
 1867 095e 0A5C      		.word	23562
 1868 0960 0100      		.word	1
 1869 0962 0100      		.word	1
 1870 0964 0100      		.word	1
 1871 0966 0100      		.word	1
 1872 0968 0100      		.word	1
 1873 096a 0100      		.word	1
 1874 096c 0100      		.word	1
 1875 096e 0100      		.word	1
 1876 0970 0100      		.word	1
 1877 0972 0100      		.word	1
 1878 0974 0100      		.word	1
 1879 0976 0100      		.word	1
 1880 0978 0100      		.word	1
 1881 097a 0100      		.word	1
 1882 097c 0100      		.word	1
 1883 097e 0100      		.word	1
 1884 0980 0100      		.word	1
 1885 0982 0100      		.word	1
 1886 0984 0100      		.word	1
 1887 0986 0100      		.word	1
 1888 0988 0100      		.word	1
 1889 098a 0100      		.word	1
 1890 098c 0100      		.word	1
 1891 098e 0100      		.word	1
 1892               		.text
 1893               	.Letext0:
 1894               		.file 3 "c:\\msys32\\home\\683654\\qmk_utils\\avr8-gnu-toolchain\\avr\\include\\stdint.h"
 1895               		.file 4 "./tmk_core/common/keyboard.h"
 1896               		.file 5 "./tmk_core/common/keycode.h"
 1897               		.file 6 "./tmk_core/common/action_code.h"
 1898               		.file 7 "./tmk_core/common/action_macro.h"
 1899               		.file 8 "./tmk_core/common/action.h"
 1900               		.file 9 "./tmk_core/common/report.h"
 1901               		.file 10 "./quantum/quantum_keycodes.h"
 1902               		.file 11 "./quantum/process_keycode/process_tap_dance.h"
 1903               		.file 12 "./tmk_core/common/action_util.h"
 1904               		.file 13 "./tmk_core/common/eeconfig.h"
 1905               		.file 14 "./tmk_core/common/action_layer.h"
 1906               		.file 15 "./quantum/quantum.h"