   1               		.file	"host.c"
   2               	__SP_H__ = 0x3e
   3               	__SP_L__ = 0x3d
   4               	__SREG__ = 0x3f
   5               	__tmp_reg__ = 0
   6               	__zero_reg__ = 1
   7               		.text
   8               	.Ltext0:
   9               		.cfi_sections	.debug_frame
  10               		.section	.text.host_set_driver,"ax",@progbits
  11               	.global	host_set_driver
  13               	host_set_driver:
  14               	.LVL0:
  15               	.LFB1:
  16               		.file 1 "./tmk_core/common/host.c"
   1:./tmk_core/common/host.c **** /*
   2:./tmk_core/common/host.c **** Copyright 2011,2012 Jun Wako <wakojun@gmail.com>
   3:./tmk_core/common/host.c **** 
   4:./tmk_core/common/host.c **** This program is free software: you can redistribute it and/or modify
   5:./tmk_core/common/host.c **** it under the terms of the GNU General Public License as published by
   6:./tmk_core/common/host.c **** the Free Software Foundation, either version 2 of the License, or
   7:./tmk_core/common/host.c **** (at your option) any later version.
   8:./tmk_core/common/host.c **** 
   9:./tmk_core/common/host.c **** This program is distributed in the hope that it will be useful,
  10:./tmk_core/common/host.c **** but WITHOUT ANY WARRANTY; without even the implied warranty of
  11:./tmk_core/common/host.c **** MERCHANTABILITY or FITNESS FOR A PARTICULAR PURPOSE.  See the
  12:./tmk_core/common/host.c **** GNU General Public License for more details.
  13:./tmk_core/common/host.c **** 
  14:./tmk_core/common/host.c **** You should have received a copy of the GNU General Public License
  15:./tmk_core/common/host.c **** along with this program.  If not, see <http://www.gnu.org/licenses/>.
  16:./tmk_core/common/host.c **** */
  17:./tmk_core/common/host.c **** 
  18:./tmk_core/common/host.c **** #include <stdint.h>
  19:./tmk_core/common/host.c **** //#include <avr/interrupt.h>
  20:./tmk_core/common/host.c **** #include "keycode.h"
  21:./tmk_core/common/host.c **** #include "host.h"
  22:./tmk_core/common/host.c **** #include "util.h"
  23:./tmk_core/common/host.c **** #include "debug.h"
  24:./tmk_core/common/host.c **** 
  25:./tmk_core/common/host.c **** static host_driver_t *driver;
  26:./tmk_core/common/host.c **** static uint16_t last_system_report = 0;
  27:./tmk_core/common/host.c **** static uint16_t last_consumer_report = 0;
  28:./tmk_core/common/host.c **** 
  29:./tmk_core/common/host.c **** 
  30:./tmk_core/common/host.c **** void host_set_driver(host_driver_t *d)
  31:./tmk_core/common/host.c **** {
  17               		.loc 1 31 1 view -0
  18               		.cfi_startproc
  19               	/* prologue: function */
  20               	/* frame size = 0 */
  21               	/* stack size = 0 */
  22               	.L__stack_usage = 0
  32:./tmk_core/common/host.c ****     driver = d;
  23               		.loc 1 32 5 view .LVU1
  24               		.loc 1 32 12 is_stmt 0 view .LVU2
  25 0000 9093 0000 		sts driver+1,r25
  26 0004 8093 0000 		sts driver,r24
  27               	/* epilogue start */
  33:./tmk_core/common/host.c **** }
  28               		.loc 1 33 1 view .LVU3
  29 0008 0895      		ret
  30               		.cfi_endproc
  31               	.LFE1:
  33               		.section	.text.host_get_driver,"ax",@progbits
  34               	.global	host_get_driver
  36               	host_get_driver:
  37               	.LFB2:
  34:./tmk_core/common/host.c **** 
  35:./tmk_core/common/host.c **** host_driver_t *host_get_driver(void)
  36:./tmk_core/common/host.c **** {
  38               		.loc 1 36 1 is_stmt 1 view -0
  39               		.cfi_startproc
  40               	/* prologue: function */
  41               	/* frame size = 0 */
  42               	/* stack size = 0 */
  43               	.L__stack_usage = 0
  37:./tmk_core/common/host.c ****     return driver;
  44               		.loc 1 37 5 view .LVU5
  38:./tmk_core/common/host.c **** }
  45               		.loc 1 38 1 is_stmt 0 view .LVU6
  46 0000 8091 0000 		lds r24,driver
  47 0004 9091 0000 		lds r25,driver+1
  48               	/* epilogue start */
  49 0008 0895      		ret
  50               		.cfi_endproc
  51               	.LFE2:
  53               		.section	.text.host_keyboard_leds,"ax",@progbits
  54               	.global	host_keyboard_leds
  56               	host_keyboard_leds:
  57               	.LFB3:
  39:./tmk_core/common/host.c **** 
  40:./tmk_core/common/host.c **** uint8_t host_keyboard_leds(void)
  41:./tmk_core/common/host.c **** {
  58               		.loc 1 41 1 is_stmt 1 view -0
  59               		.cfi_startproc
  60               	/* prologue: function */
  61               	/* frame size = 0 */
  62               	/* stack size = 0 */
  63               	.L__stack_usage = 0
  42:./tmk_core/common/host.c ****     if (!driver) return 0;
  64               		.loc 1 42 5 view .LVU8
  65               		.loc 1 42 9 is_stmt 0 view .LVU9
  66 0000 E091 0000 		lds r30,driver
  67 0004 F091 0000 		lds r31,driver+1
  68               		.loc 1 42 8 view .LVU10
  69 0008 3097      		sbiw r30,0
  70 000a 01F0      		breq .L4
  43:./tmk_core/common/host.c ****     return (*driver->keyboard_leds)();
  71               		.loc 1 43 5 is_stmt 1 view .LVU11
  72               		.loc 1 43 13 is_stmt 0 view .LVU12
  73 000c 0190      		ld __tmp_reg__,Z+
  74 000e F081      		ld r31,Z
  75 0010 E02D      		mov r30,__tmp_reg__
  76 0012 0994      		ijmp
  77               	.LVL1:
  78               	.L4:
  44:./tmk_core/common/host.c **** }
  79               		.loc 1 44 1 view .LVU13
  80 0014 80E0      		ldi r24,0
  81               	/* epilogue start */
  82 0016 0895      		ret
  83               		.cfi_endproc
  84               	.LFE3:
  86               		.section	.text.host_keyboard_send,"ax",@progbits
  87               	.global	host_keyboard_send
  89               	host_keyboard_send:
  90               	.LVL2:
  91               	.LFB4:
  45:./tmk_core/common/host.c **** /* send report */
  46:./tmk_core/common/host.c **** void host_keyboard_send(report_keyboard_t *report)
  47:./tmk_core/common/host.c **** {
  92               		.loc 1 47 1 is_stmt 1 view -0
  93               		.cfi_startproc
  94               		.loc 1 47 1 is_stmt 0 view .LVU15
  95 0000 EF92      		push r14
  96               	.LCFI0:
  97               		.cfi_def_cfa_offset 3
  98               		.cfi_offset 14, -2
  99 0002 FF92      		push r15
 100               	.LCFI1:
 101               		.cfi_def_cfa_offset 4
 102               		.cfi_offset 15, -3
 103 0004 0F93      		push r16
 104               	.LCFI2:
 105               		.cfi_def_cfa_offset 5
 106               		.cfi_offset 16, -4
 107 0006 1F93      		push r17
 108               	.LCFI3:
 109               		.cfi_def_cfa_offset 6
 110               		.cfi_offset 17, -5
 111 0008 CF93      		push r28
 112               	.LCFI4:
 113               		.cfi_def_cfa_offset 7
 114               		.cfi_offset 28, -6
 115 000a DF93      		push r29
 116               	.LCFI5:
 117               		.cfi_def_cfa_offset 8
 118               		.cfi_offset 29, -7
 119               	/* prologue: function */
 120               	/* frame size = 0 */
 121               	/* stack size = 6 */
 122               	.L__stack_usage = 6
 123 000c 8C01      		movw r16,r24
  48:./tmk_core/common/host.c ****     if (!driver) return;
 124               		.loc 1 48 5 is_stmt 1 view .LVU16
 125               		.loc 1 48 9 is_stmt 0 view .LVU17
 126 000e E091 0000 		lds r30,driver
 127 0012 F091 0000 		lds r31,driver+1
 128               		.loc 1 48 8 view .LVU18
 129 0016 3097      		sbiw r30,0
 130 0018 01F0      		breq .L5
  49:./tmk_core/common/host.c ****     (*driver->send_keyboard)(report);
 131               		.loc 1 49 5 is_stmt 1 view .LVU19
 132               		.loc 1 49 6 is_stmt 0 view .LVU20
 133 001a 0280      		ldd __tmp_reg__,Z+2
 134 001c F381      		ldd r31,Z+3
 135 001e E02D      		mov r30,__tmp_reg__
 136 0020 0995      		icall
 137               	.LVL3:
  50:./tmk_core/common/host.c **** 
  51:./tmk_core/common/host.c ****     if (debug_keyboard) {
 138               		.loc 1 51 5 is_stmt 1 view .LVU21
 139               		.loc 1 51 9 is_stmt 0 view .LVU22
 140 0022 8091 0000 		lds r24,debug_config
 141               		.loc 1 51 8 view .LVU23
 142 0026 82FF      		sbrs r24,2
 143 0028 00C0      		rjmp .L5
  52:./tmk_core/common/host.c ****         dprint("keyboard_report: ");
 144               		.loc 1 52 9 is_stmt 1 view .LVU24
 145               		.loc 1 52 9 view .LVU25
 146 002a 80FF      		sbrs r24,0
 147 002c 00C0      		rjmp .L9
 148               		.loc 1 52 9 discriminator 1 view .LVU26
 149               	.LBB2:
 150               		.loc 1 52 9 discriminator 1 view .LVU27
 151               		.loc 1 52 9 discriminator 1 view .LVU28
 152               	.LBE2:
 153 002e 80E0      		ldi r24,lo8(__c.2026)
 154 0030 90E0      		ldi r25,hi8(__c.2026)
 155 0032 0E94 0000 		call xputs
 156               	.LVL4:
 157               	.L9:
  47:./tmk_core/common/host.c ****     if (!driver) return;
 158               		.loc 1 47 1 is_stmt 0 view .LVU29
 159 0036 D0E0      		ldi r29,0
 160 0038 C0E0      		ldi r28,0
 161               	.LBB3:
  53:./tmk_core/common/host.c ****         for (uint8_t i = 0; i < KEYBOARD_REPORT_SIZE; i++) {
  54:./tmk_core/common/host.c ****             dprintf("%02X ", report->raw[i]);
 162               		.loc 1 54 13 view .LVU30
 163 003a 80E0      		ldi r24,lo8(__c.2029)
 164 003c E82E      		mov r14,r24
 165 003e 80E0      		ldi r24,hi8(__c.2029)
 166 0040 F82E      		mov r15,r24
 167               	.L11:
 168               	.LVL5:
 169               		.loc 1 54 13 is_stmt 1 view .LVU31
 170               		.loc 1 54 13 view .LVU32
 171 0042 8091 0000 		lds r24,debug_config
 172 0046 80FF      		sbrs r24,0
 173 0048 00C0      		rjmp .L10
 174               		.loc 1 54 13 discriminator 1 view .LVU33
 175               	.LBB4:
 176               		.loc 1 54 13 discriminator 1 view .LVU34
 177               		.loc 1 54 13 discriminator 1 view .LVU35
 178               	.LBE4:
 179 004a F801      		movw r30,r16
 180 004c EC0F      		add r30,r28
 181 004e FD1F      		adc r31,r29
 182 0050 8081      		ld r24,Z
 183 0052 1F92      		push __zero_reg__
 184               	.LCFI6:
 185               		.cfi_def_cfa_offset 9
 186 0054 8F93      		push r24
 187               	.LCFI7:
 188               		.cfi_def_cfa_offset 10
 189 0056 FF92      		push r15
 190               	.LCFI8:
 191               		.cfi_def_cfa_offset 11
 192 0058 EF92      		push r14
 193               	.LCFI9:
 194               		.cfi_def_cfa_offset 12
 195 005a 0E94 0000 		call __xprintf
 196               	.LVL6:
 197 005e 0F90      		pop __tmp_reg__
 198 0060 0F90      		pop __tmp_reg__
 199 0062 0F90      		pop __tmp_reg__
 200 0064 0F90      		pop __tmp_reg__
 201               	.LCFI10:
 202               		.cfi_def_cfa_offset 8
 203               	.L10:
 204               		.loc 1 54 13 discriminator 3 view .LVU36
  53:./tmk_core/common/host.c ****         for (uint8_t i = 0; i < KEYBOARD_REPORT_SIZE; i++) {
 205               		.loc 1 53 55 discriminator 3 view .LVU37
 206               	.LVL7:
  53:./tmk_core/common/host.c ****         for (uint8_t i = 0; i < KEYBOARD_REPORT_SIZE; i++) {
 207               		.loc 1 53 29 discriminator 3 view .LVU38
 208 0066 2196      		adiw r28,1
 209               	.LVL8:
  53:./tmk_core/common/host.c ****         for (uint8_t i = 0; i < KEYBOARD_REPORT_SIZE; i++) {
 210               		.loc 1 53 9 is_stmt 0 discriminator 3 view .LVU39
 211 0068 C830      		cpi r28,8
 212 006a D105      		cpc r29,__zero_reg__
 213 006c 01F4      		brne .L11
 214               	.LBE3:
  55:./tmk_core/common/host.c ****         }
  56:./tmk_core/common/host.c ****         dprint("\n");
 215               		.loc 1 56 9 is_stmt 1 view .LVU40
 216               		.loc 1 56 9 view .LVU41
 217 006e 8091 0000 		lds r24,debug_config
 218 0072 80FF      		sbrs r24,0
 219 0074 00C0      		rjmp .L5
 220               		.loc 1 56 9 discriminator 1 view .LVU42
 221               	.LBB5:
 222               		.loc 1 56 9 discriminator 1 view .LVU43
 223               		.loc 1 56 9 discriminator 1 view .LVU44
 224               	.LBE5:
 225 0076 80E0      		ldi r24,lo8(__c.2034)
 226 0078 90E0      		ldi r25,hi8(__c.2034)
 227               	/* epilogue start */
  57:./tmk_core/common/host.c ****     }
  58:./tmk_core/common/host.c **** }
 228               		.loc 1 58 1 is_stmt 0 discriminator 1 view .LVU45
 229 007a DF91      		pop r29
 230 007c CF91      		pop r28
 231               	.LVL9:
 232               		.loc 1 58 1 discriminator 1 view .LVU46
 233 007e 1F91      		pop r17
 234 0080 0F91      		pop r16
 235               	.LVL10:
 236               		.loc 1 58 1 discriminator 1 view .LVU47
 237 0082 FF90      		pop r15
 238 0084 EF90      		pop r14
  56:./tmk_core/common/host.c ****     }
 239               		.loc 1 56 9 discriminator 1 view .LVU48
 240 0086 0C94 0000 		jmp xputs
 241               	.LVL11:
 242               	.L5:
 243               	/* epilogue start */
 244               		.loc 1 58 1 view .LVU49
 245 008a DF91      		pop r29
 246 008c CF91      		pop r28
 247 008e 1F91      		pop r17
 248 0090 0F91      		pop r16
 249               	.LVL12:
 250               		.loc 1 58 1 view .LVU50
 251 0092 FF90      		pop r15
 252 0094 EF90      		pop r14
 253 0096 0895      		ret
 254               		.cfi_endproc
 255               	.LFE4:
 257               		.section	.text.host_mouse_send,"ax",@progbits
 258               	.global	host_mouse_send
 260               	host_mouse_send:
 261               	.LVL13:
 262               	.LFB5:
  59:./tmk_core/common/host.c **** 
  60:./tmk_core/common/host.c **** void host_mouse_send(report_mouse_t *report)
  61:./tmk_core/common/host.c **** {
 263               		.loc 1 61 1 is_stmt 1 view -0
 264               		.cfi_startproc
 265               	/* prologue: function */
 266               	/* frame size = 0 */
 267               	/* stack size = 0 */
 268               	.L__stack_usage = 0
  62:./tmk_core/common/host.c ****     if (!driver) return;
 269               		.loc 1 62 5 view .LVU52
 270               		.loc 1 62 9 is_stmt 0 view .LVU53
 271 0000 E091 0000 		lds r30,driver
 272 0004 F091 0000 		lds r31,driver+1
 273               		.loc 1 62 8 view .LVU54
 274 0008 3097      		sbiw r30,0
 275 000a 01F0      		breq .L25
  63:./tmk_core/common/host.c ****     (*driver->send_mouse)(report);
 276               		.loc 1 63 5 is_stmt 1 view .LVU55
 277               		.loc 1 63 6 is_stmt 0 view .LVU56
 278 000c 0480      		ldd __tmp_reg__,Z+4
 279 000e F581      		ldd r31,Z+5
 280 0010 E02D      		mov r30,__tmp_reg__
 281 0012 0994      		ijmp
 282               	.LVL14:
 283               	.L25:
 284               	/* epilogue start */
  64:./tmk_core/common/host.c **** }
 285               		.loc 1 64 1 view .LVU57
 286 0014 0895      		ret
 287               		.cfi_endproc
 288               	.LFE5:
 290               		.section	.text.host_system_send,"ax",@progbits
 291               	.global	host_system_send
 293               	host_system_send:
 294               	.LVL15:
 295               	.LFB6:
  65:./tmk_core/common/host.c **** 
  66:./tmk_core/common/host.c **** void host_system_send(uint16_t report)
  67:./tmk_core/common/host.c **** {
 296               		.loc 1 67 1 is_stmt 1 view -0
 297               		.cfi_startproc
 298               	/* prologue: function */
 299               	/* frame size = 0 */
 300               	/* stack size = 0 */
 301               	.L__stack_usage = 0
  68:./tmk_core/common/host.c ****     if (report == last_system_report) return;
 302               		.loc 1 68 5 view .LVU59
 303               		.loc 1 68 8 is_stmt 0 view .LVU60
 304 0000 2091 0000 		lds r18,last_system_report
 305 0004 3091 0000 		lds r19,last_system_report+1
 306 0008 2817      		cp r18,r24
 307 000a 3907      		cpc r19,r25
 308 000c 01F0      		breq .L27
  69:./tmk_core/common/host.c ****     last_system_report = report;
 309               		.loc 1 69 5 is_stmt 1 view .LVU61
 310               		.loc 1 69 24 is_stmt 0 view .LVU62
 311 000e 9093 0000 		sts last_system_report+1,r25
 312 0012 8093 0000 		sts last_system_report,r24
  70:./tmk_core/common/host.c **** 
  71:./tmk_core/common/host.c ****     if (!driver) return;
 313               		.loc 1 71 5 is_stmt 1 view .LVU63
 314               		.loc 1 71 9 is_stmt 0 view .LVU64
 315 0016 E091 0000 		lds r30,driver
 316 001a F091 0000 		lds r31,driver+1
 317               		.loc 1 71 8 view .LVU65
 318 001e 3097      		sbiw r30,0
 319 0020 01F0      		breq .L27
  72:./tmk_core/common/host.c ****     (*driver->send_system)(report);
 320               		.loc 1 72 5 is_stmt 1 view .LVU66
 321               		.loc 1 72 6 is_stmt 0 view .LVU67
 322 0022 0680      		ldd __tmp_reg__,Z+6
 323 0024 F781      		ldd r31,Z+7
 324 0026 E02D      		mov r30,__tmp_reg__
 325 0028 0994      		ijmp
 326               	.LVL16:
 327               	.L27:
 328               	/* epilogue start */
  73:./tmk_core/common/host.c **** }
 329               		.loc 1 73 1 view .LVU68
 330 002a 0895      		ret
 331               		.cfi_endproc
 332               	.LFE6:
 334               		.section	.text.host_consumer_send,"ax",@progbits
 335               	.global	host_consumer_send
 337               	host_consumer_send:
 338               	.LVL17:
 339               	.LFB7:
  74:./tmk_core/common/host.c **** 
  75:./tmk_core/common/host.c **** void host_consumer_send(uint16_t report)
  76:./tmk_core/common/host.c **** {
 340               		.loc 1 76 1 is_stmt 1 view -0
 341               		.cfi_startproc
 342               	/* prologue: function */
 343               	/* frame size = 0 */
 344               	/* stack size = 0 */
 345               	.L__stack_usage = 0
  77:./tmk_core/common/host.c ****     if (report == last_consumer_report) return;
 346               		.loc 1 77 5 view .LVU70
 347               		.loc 1 77 8 is_stmt 0 view .LVU71
 348 0000 2091 0000 		lds r18,last_consumer_report
 349 0004 3091 0000 		lds r19,last_consumer_report+1
 350 0008 2817      		cp r18,r24
 351 000a 3907      		cpc r19,r25
 352 000c 01F0      		breq .L34
  78:./tmk_core/common/host.c ****     last_consumer_report = report;
 353               		.loc 1 78 5 is_stmt 1 view .LVU72
 354               		.loc 1 78 26 is_stmt 0 view .LVU73
 355 000e 9093 0000 		sts last_consumer_report+1,r25
 356 0012 8093 0000 		sts last_consumer_report,r24
  79:./tmk_core/common/host.c **** 
  80:./tmk_core/common/host.c ****     if (!driver) return;
 357               		.loc 1 80 5 is_stmt 1 view .LVU74
 358               		.loc 1 80 9 is_stmt 0 view .LVU75
 359 0016 E091 0000 		lds r30,driver
 360 001a F091 0000 		lds r31,driver+1
 361               		.loc 1 80 8 view .LVU76
 362 001e 3097      		sbiw r30,0
 363 0020 01F0      		breq .L34
  81:./tmk_core/common/host.c ****     (*driver->send_consumer)(report);
 364               		.loc 1 81 5 is_stmt 1 view .LVU77
 365               		.loc 1 81 6 is_stmt 0 view .LVU78
 366 0022 0084      		ldd __tmp_reg__,Z+8
 367 0024 F185      		ldd r31,Z+9
 368 0026 E02D      		mov r30,__tmp_reg__
 369 0028 0994      		ijmp
 370               	.LVL18:
 371               	.L34:
 372               	/* epilogue start */
  82:./tmk_core/common/host.c **** }
 373               		.loc 1 82 1 view .LVU79
 374 002a 0895      		ret
 375               		.cfi_endproc
 376               	.LFE7:
 378               		.section	.text.host_last_system_report,"ax",@progbits
 379               	.global	host_last_system_report
 381               	host_last_system_report:
 382               	.LFB8:
  83:./tmk_core/common/host.c **** 
  84:./tmk_core/common/host.c **** uint16_t host_last_system_report(void)
  85:./tmk_core/common/host.c **** {
 383               		.loc 1 85 1 is_stmt 1 view -0
 384               		.cfi_startproc
 385               	/* prologue: function */
 386               	/* frame size = 0 */
 387               	/* stack size = 0 */
 388               	.L__stack_usage = 0
  86:./tmk_core/common/host.c ****     return last_system_report;
 389               		.loc 1 86 5 view .LVU81
  87:./tmk_core/common/host.c **** }
 390               		.loc 1 87 1 is_stmt 0 view .LVU82
 391 0000 8091 0000 		lds r24,last_system_report
 392 0004 9091 0000 		lds r25,last_system_report+1
 393               	/* epilogue start */
 394 0008 0895      		ret
 395               		.cfi_endproc
 396               	.LFE8:
 398               		.section	.text.host_last_consumer_report,"ax",@progbits
 399               	.global	host_last_consumer_report
 401               	host_last_consumer_report:
 402               	.LFB9:
  88:./tmk_core/common/host.c **** 
  89:./tmk_core/common/host.c **** uint16_t host_last_consumer_report(void)
  90:./tmk_core/common/host.c **** {
 403               		.loc 1 90 1 is_stmt 1 view -0
 404               		.cfi_startproc
 405               	/* prologue: function */
 406               	/* frame size = 0 */
 407               	/* stack size = 0 */
 408               	.L__stack_usage = 0
  91:./tmk_core/common/host.c ****     return last_consumer_report;
 409               		.loc 1 91 5 view .LVU84
  92:./tmk_core/common/host.c **** }
 410               		.loc 1 92 1 is_stmt 0 view .LVU85
 411 0000 8091 0000 		lds r24,last_consumer_report
 412 0004 9091 0000 		lds r25,last_consumer_report+1
 413               	/* epilogue start */
 414 0008 0895      		ret
 415               		.cfi_endproc
 416               	.LFE9:
 418               		.section	.progmem.data.__c.2034,"a"
 421               	__c.2034:
 422 0000 0A00      		.string	"\n"
 423               		.section	.progmem.data.__c.2029,"a"
 426               	__c.2029:
 427 0000 2530 3258 		.string	"%02X "
 427      2000 
 428               		.section	.progmem.data.__c.2026,"a"
 431               	__c.2026:
 432 0000 6B65 7962 		.string	"keyboard_report: "
 432      6F61 7264 
 432      5F72 6570 
 432      6F72 743A 
 432      2000 
 433               		.section	.bss.last_consumer_report,"aw",@nobits
 436               	last_consumer_report:
 437 0000 0000      		.zero	2
 438               		.section	.bss.last_system_report,"aw",@nobits
 441               	last_system_report:
 442 0000 0000      		.zero	2
 443               		.section	.bss.driver,"aw",@nobits
 446               	driver:
 447 0000 0000      		.zero	2
 448               		.text
 449               	.Letext0:
 450               		.file 2 "/usr/local/Cellar/avr-gcc@9/9.3.0_3/avr/include/stdint.h"
 451               		.file 3 "./tmk_core/common/report.h"
 452               		.file 4 "./tmk_core/common/host_driver.h"
 453               		.file 5 "./tmk_core/common/host.h"
 454               		.file 6 "./tmk_core/common/avr/xprintf.h"
 455               		.file 7 "./tmk_core/common/debug.h"