   1               		.file	"HIDParser.c"
   2               	__SP_H__ = 0x3e
   3               	__SP_L__ = 0x3d
   4               	__SREG__ = 0x3f
   5               	__tmp_reg__ = 0
   6               	__zero_reg__ = 1
   7               		.text
   8               	.Ltext0:
   9               		.cfi_sections	.debug_frame
  10               		.section	.text.USB_ProcessHIDReport,"ax",@progbits
  11               	.global	USB_ProcessHIDReport
  13               	USB_ProcessHIDReport:
  14               	.LVL0:
  15               	.LFB16:
  16               		.file 1 "lib/lufa/LUFA/Drivers/USB/Class/Common/HIDParser.c"
   1:lib/lufa/LUFA/Drivers/USB/Class/Common/HIDParser.c **** /*
   2:lib/lufa/LUFA/Drivers/USB/Class/Common/HIDParser.c ****              LUFA Library
   3:lib/lufa/LUFA/Drivers/USB/Class/Common/HIDParser.c ****      Copyright (C) Dean Camera, 2017.
   4:lib/lufa/LUFA/Drivers/USB/Class/Common/HIDParser.c **** 
   5:lib/lufa/LUFA/Drivers/USB/Class/Common/HIDParser.c ****   dean [at] fourwalledcubicle [dot] com
   6:lib/lufa/LUFA/Drivers/USB/Class/Common/HIDParser.c ****            www.lufa-lib.org
   7:lib/lufa/LUFA/Drivers/USB/Class/Common/HIDParser.c **** */
   8:lib/lufa/LUFA/Drivers/USB/Class/Common/HIDParser.c **** 
   9:lib/lufa/LUFA/Drivers/USB/Class/Common/HIDParser.c **** /*
  10:lib/lufa/LUFA/Drivers/USB/Class/Common/HIDParser.c ****   Copyright 2017  Dean Camera (dean [at] fourwalledcubicle [dot] com)
  11:lib/lufa/LUFA/Drivers/USB/Class/Common/HIDParser.c **** 
  12:lib/lufa/LUFA/Drivers/USB/Class/Common/HIDParser.c ****   Permission to use, copy, modify, distribute, and sell this
  13:lib/lufa/LUFA/Drivers/USB/Class/Common/HIDParser.c ****   software and its documentation for any purpose is hereby granted
  14:lib/lufa/LUFA/Drivers/USB/Class/Common/HIDParser.c ****   without fee, provided that the above copyright notice appear in
  15:lib/lufa/LUFA/Drivers/USB/Class/Common/HIDParser.c ****   all copies and that both that the copyright notice and this
  16:lib/lufa/LUFA/Drivers/USB/Class/Common/HIDParser.c ****   permission notice and warranty disclaimer appear in supporting
  17:lib/lufa/LUFA/Drivers/USB/Class/Common/HIDParser.c ****   documentation, and that the name of the author not be used in
  18:lib/lufa/LUFA/Drivers/USB/Class/Common/HIDParser.c ****   advertising or publicity pertaining to distribution of the
  19:lib/lufa/LUFA/Drivers/USB/Class/Common/HIDParser.c ****   software without specific, written prior permission.
  20:lib/lufa/LUFA/Drivers/USB/Class/Common/HIDParser.c **** 
  21:lib/lufa/LUFA/Drivers/USB/Class/Common/HIDParser.c ****   The author disclaims all warranties with regard to this
  22:lib/lufa/LUFA/Drivers/USB/Class/Common/HIDParser.c ****   software, including all implied warranties of merchantability
  23:lib/lufa/LUFA/Drivers/USB/Class/Common/HIDParser.c ****   and fitness.  In no event shall the author be liable for any
  24:lib/lufa/LUFA/Drivers/USB/Class/Common/HIDParser.c ****   special, indirect or consequential damages or any damages
  25:lib/lufa/LUFA/Drivers/USB/Class/Common/HIDParser.c ****   whatsoever resulting from loss of use, data or profits, whether
  26:lib/lufa/LUFA/Drivers/USB/Class/Common/HIDParser.c ****   in an action of contract, negligence or other tortious action,
  27:lib/lufa/LUFA/Drivers/USB/Class/Common/HIDParser.c ****   arising out of or in connection with the use or performance of
  28:lib/lufa/LUFA/Drivers/USB/Class/Common/HIDParser.c ****   this software.
  29:lib/lufa/LUFA/Drivers/USB/Class/Common/HIDParser.c **** */
  30:lib/lufa/LUFA/Drivers/USB/Class/Common/HIDParser.c **** 
  31:lib/lufa/LUFA/Drivers/USB/Class/Common/HIDParser.c **** #define  __INCLUDE_FROM_USB_DRIVER
  32:lib/lufa/LUFA/Drivers/USB/Class/Common/HIDParser.c **** #define  __INCLUDE_FROM_HID_DRIVER
  33:lib/lufa/LUFA/Drivers/USB/Class/Common/HIDParser.c **** #include "HIDParser.h"
  34:lib/lufa/LUFA/Drivers/USB/Class/Common/HIDParser.c **** 
  35:lib/lufa/LUFA/Drivers/USB/Class/Common/HIDParser.c **** uint8_t USB_ProcessHIDReport(const uint8_t* ReportData,
  36:lib/lufa/LUFA/Drivers/USB/Class/Common/HIDParser.c ****                              uint16_t ReportSize,
  37:lib/lufa/LUFA/Drivers/USB/Class/Common/HIDParser.c ****                              HID_ReportInfo_t* const ParserData)
  38:lib/lufa/LUFA/Drivers/USB/Class/Common/HIDParser.c **** {
  17               		.loc 1 38 1 view -0
  18               		.cfi_startproc
  19               		.loc 1 38 1 is_stmt 0 view .LVU1
  20 0000 2F92      		push r2
  21               	.LCFI0:
  22               		.cfi_def_cfa_offset 3
  23               		.cfi_offset 2, -2
  24 0002 3F92      		push r3
  25               	.LCFI1:
  26               		.cfi_def_cfa_offset 4
  27               		.cfi_offset 3, -3
  28 0004 4F92      		push r4
  29               	.LCFI2:
  30               		.cfi_def_cfa_offset 5
  31               		.cfi_offset 4, -4
  32 0006 5F92      		push r5
  33               	.LCFI3:
  34               		.cfi_def_cfa_offset 6
  35               		.cfi_offset 5, -5
  36 0008 6F92      		push r6
  37               	.LCFI4:
  38               		.cfi_def_cfa_offset 7
  39               		.cfi_offset 6, -6
  40 000a 7F92      		push r7
  41               	.LCFI5:
  42               		.cfi_def_cfa_offset 8
  43               		.cfi_offset 7, -7
  44 000c 8F92      		push r8
  45               	.LCFI6:
  46               		.cfi_def_cfa_offset 9
  47               		.cfi_offset 8, -8
  48 000e 9F92      		push r9
  49               	.LCFI7:
  50               		.cfi_def_cfa_offset 10
  51               		.cfi_offset 9, -9
  52 0010 AF92      		push r10
  53               	.LCFI8:
  54               		.cfi_def_cfa_offset 11
  55               		.cfi_offset 10, -10
  56 0012 BF92      		push r11
  57               	.LCFI9:
  58               		.cfi_def_cfa_offset 12
  59               		.cfi_offset 11, -11
  60 0014 CF92      		push r12
  61               	.LCFI10:
  62               		.cfi_def_cfa_offset 13
  63               		.cfi_offset 12, -12
  64 0016 DF92      		push r13
  65               	.LCFI11:
  66               		.cfi_def_cfa_offset 14
  67               		.cfi_offset 13, -13
  68 0018 EF92      		push r14
  69               	.LCFI12:
  70               		.cfi_def_cfa_offset 15
  71               		.cfi_offset 14, -14
  72 001a FF92      		push r15
  73               	.LCFI13:
  74               		.cfi_def_cfa_offset 16
  75               		.cfi_offset 15, -15
  76 001c 0F93      		push r16
  77               	.LCFI14:
  78               		.cfi_def_cfa_offset 17
  79               		.cfi_offset 16, -16
  80 001e 1F93      		push r17
  81               	.LCFI15:
  82               		.cfi_def_cfa_offset 18
  83               		.cfi_offset 17, -17
  84 0020 CF93      		push r28
  85               	.LCFI16:
  86               		.cfi_def_cfa_offset 19
  87               		.cfi_offset 28, -18
  88 0022 DF93      		push r29
  89               	.LCFI17:
  90               		.cfi_def_cfa_offset 20
  91               		.cfi_offset 29, -19
  92 0024 CDB7      		in r28,__SP_L__
  93 0026 DEB7      		in r29,__SP_H__
  94               	.LCFI18:
  95               		.cfi_def_cfa_register 28
  96 0028 CA58      		subi r28,-118
  97 002a D109      		sbc r29,__zero_reg__
  98               	.LCFI19:
  99               		.cfi_def_cfa_offset 158
 100 002c 0FB6      		in __tmp_reg__,__SREG__
 101 002e F894      		cli
 102 0030 DEBF      		out __SP_H__,r29
 103 0032 0FBE      		out __SREG__,__tmp_reg__
 104 0034 CDBF      		out __SP_L__,r28
 105               	/* prologue: function */
 106               	/* frame size = 138 */
 107               	/* stack size = 156 */
 108               	.L__stack_usage = 156
 109 0036 1C01      		movw r2,r24
 110 0038 E696      		adiw r28,117-63
 111 003a 6FAF      		std Y+63,r22
 112 003c E697      		sbiw r28,117-63
 113 003e E796      		adiw r28,118-63
 114 0040 7FAF      		std Y+63,r23
 115 0042 E797      		sbiw r28,118-63
 116 0044 6A01      		movw r12,r20
  39:lib/lufa/LUFA/Drivers/USB/Class/Common/HIDParser.c **** 	HID_StateTable_t      StateTable[HID_STATETABLE_STACK_DEPTH];
 117               		.loc 1 39 2 is_stmt 1 view .LVU2
  40:lib/lufa/LUFA/Drivers/USB/Class/Common/HIDParser.c **** 	HID_StateTable_t*     CurrStateTable     = &StateTable[0];
 118               		.loc 1 40 2 view .LVU3
 119               	.LVL1:
  41:lib/lufa/LUFA/Drivers/USB/Class/Common/HIDParser.c **** 	HID_CollectionPath_t* CurrCollectionPath = NULL;
 120               		.loc 1 41 2 view .LVU4
  42:lib/lufa/LUFA/Drivers/USB/Class/Common/HIDParser.c **** 	HID_ReportSizeInfo_t* CurrReportIDInfo   = &ParserData->ReportIDSizes[0];
 121               		.loc 1 42 2 view .LVU5
 122               		.loc 1 42 24 is_stmt 0 view .LVU6
 123 0046 9A01      		movw r18,r20
 124 0048 2057      		subi r18,112
 125 004a 3C4F      		sbci r19,-4
 126 004c E996      		adiw r28,119-62
 127 004e 3FAF      		std Y+63,r19
 128 0050 2EAF      		std Y+62,r18
 129 0052 E997      		sbiw r28,119-62
 130               	.LVL2:
  43:lib/lufa/LUFA/Drivers/USB/Class/Common/HIDParser.c **** 	uint16_t              UsageList[HID_USAGE_STACK_DEPTH];
 131               		.loc 1 43 2 is_stmt 1 view .LVU7
  44:lib/lufa/LUFA/Drivers/USB/Class/Common/HIDParser.c **** 	uint8_t               UsageListSize      = 0;
 132               		.loc 1 44 2 view .LVU8
  45:lib/lufa/LUFA/Drivers/USB/Class/Common/HIDParser.c **** 	HID_MinMax_t          UsageMinMax        = {0, 0};
 133               		.loc 1 45 2 view .LVU9
  46:lib/lufa/LUFA/Drivers/USB/Class/Common/HIDParser.c **** 
  47:lib/lufa/LUFA/Drivers/USB/Class/Common/HIDParser.c **** 	memset(ParserData,       0x00, sizeof(HID_ReportInfo_t));
 134               		.loc 1 47 2 view .LVU10
 135 0054 89ED      		ldi r24,lo8(-39)
 136 0056 93E0      		ldi r25,lo8(3)
 137               	.LVL3:
 138               		.loc 1 47 2 is_stmt 0 view .LVU11
 139 0058 DA01      		movw r26,r20
 140 005a FC01      		movw r30,r24
 141               		0:
 142 005c 1D92      		st X+,__zero_reg__
 143 005e 3197      		sbiw r30,1
 144 0060 01F4      		brne 0b
  48:lib/lufa/LUFA/Drivers/USB/Class/Common/HIDParser.c **** 	memset(CurrStateTable,   0x00, sizeof(HID_StateTable_t));
 145               		.loc 1 48 2 is_stmt 1 view .LVU12
 146 0062 FE01      		movw r30,r28
 147 0064 3196      		adiw r30,1
 148 0066 8CE1      		ldi r24,lo8(28)
 149 0068 DF01      		movw r26,r30
 150               		0:
 151 006a 1D92      		st X+,__zero_reg__
 152 006c 8A95      		dec r24
 153 006e 01F4      		brne 0b
  49:lib/lufa/LUFA/Drivers/USB/Class/Common/HIDParser.c **** 	memset(CurrReportIDInfo, 0x00, sizeof(HID_ReportSizeInfo_t));
 154               		.loc 1 49 2 view .LVU13
 155 0070 87E0      		ldi r24,lo8(7)
 156 0072 D901      		movw r26,r18
 157               		0:
 158 0074 1D92      		st X+,__zero_reg__
 159 0076 8A95      		dec r24
 160 0078 01F4      		brne 0b
  50:lib/lufa/LUFA/Drivers/USB/Class/Common/HIDParser.c **** 
  51:lib/lufa/LUFA/Drivers/USB/Class/Common/HIDParser.c **** 	ParserData->TotalDeviceReports = 1;
 161               		.loc 1 51 2 view .LVU14
 162               		.loc 1 51 33 is_stmt 0 view .LVU15
 163 007a 2150      		subi r18,1
 164 007c 3109      		sbc r19,__zero_reg__
 165               	.LVL4:
 166               		.loc 1 51 33 view .LVU16
 167 007e C158      		subi r28,lo8(-127)
 168 0080 DF4F      		sbci r29,hi8(-127)
 169 0082 3983      		std Y+1,r19
 170 0084 2883      		st Y,r18
 171 0086 CF57      		subi r28,lo8(127)
 172 0088 D040      		sbci r29,hi8(127)
 173 008a 81E0      		ldi r24,lo8(1)
 174 008c D901      		movw r26,r18
 175 008e 8C93      		st X,r24
  52:lib/lufa/LUFA/Drivers/USB/Class/Common/HIDParser.c **** 
  53:lib/lufa/LUFA/Drivers/USB/Class/Common/HIDParser.c **** 	while (ReportSize)
 176               		.loc 1 53 2 is_stmt 1 view .LVU17
  45:lib/lufa/LUFA/Drivers/USB/Class/Common/HIDParser.c **** 
 177               		.loc 1 45 24 is_stmt 0 view .LVU18
 178 0090 EE96      		adiw r28,122-60
 179 0092 1CAE      		std Y+60,__zero_reg__
 180 0094 1DAE      		std Y+61,__zero_reg__
 181 0096 1EAE      		std Y+62,__zero_reg__
 182 0098 1FAE      		std Y+63,__zero_reg__
 183 009a EE97      		sbiw r28,122-60
 184 009c 412C      		mov r4,__zero_reg__
 185 009e 512C      		mov r5,__zero_reg__
 186 00a0 3201      		movw r6,r4
  44:lib/lufa/LUFA/Drivers/USB/Class/Common/HIDParser.c **** 	HID_MinMax_t          UsageMinMax        = {0, 0};
 187               		.loc 1 44 24 view .LVU19
 188 00a2 00E0      		ldi r16,0
  41:lib/lufa/LUFA/Drivers/USB/Class/Common/HIDParser.c **** 	HID_ReportSizeInfo_t* CurrReportIDInfo   = &ParserData->ReportIDSizes[0];
 189               		.loc 1 41 24 view .LVU20
 190 00a4 E596      		adiw r28,115-62
 191 00a6 1FAE      		std Y+63,__zero_reg__
 192 00a8 1EAE      		std Y+62,__zero_reg__
 193 00aa E597      		sbiw r28,115-62
  40:lib/lufa/LUFA/Drivers/USB/Class/Common/HIDParser.c **** 	HID_CollectionPath_t* CurrCollectionPath = NULL;
 194               		.loc 1 40 24 view .LVU21
 195 00ac 7F01      		movw r14,r30
 196               	.LBB2:
 197               	.LBB3:
 198               	.LBB4:
  54:lib/lufa/LUFA/Drivers/USB/Class/Common/HIDParser.c **** 	{
  55:lib/lufa/LUFA/Drivers/USB/Class/Common/HIDParser.c **** 		uint8_t  HIDReportItem  = *ReportData;
  56:lib/lufa/LUFA/Drivers/USB/Class/Common/HIDParser.c **** 		uint32_t ReportItemData;
  57:lib/lufa/LUFA/Drivers/USB/Class/Common/HIDParser.c **** 
  58:lib/lufa/LUFA/Drivers/USB/Class/Common/HIDParser.c **** 		ReportData++;
  59:lib/lufa/LUFA/Drivers/USB/Class/Common/HIDParser.c **** 		ReportSize--;
  60:lib/lufa/LUFA/Drivers/USB/Class/Common/HIDParser.c **** 
  61:lib/lufa/LUFA/Drivers/USB/Class/Common/HIDParser.c **** 		switch (HIDReportItem & HID_RI_DATA_SIZE_MASK)
  62:lib/lufa/LUFA/Drivers/USB/Class/Common/HIDParser.c **** 		{
  63:lib/lufa/LUFA/Drivers/USB/Class/Common/HIDParser.c **** 			case HID_RI_DATA_BITS_32:
  64:lib/lufa/LUFA/Drivers/USB/Class/Common/HIDParser.c **** 				ReportItemData  = (((uint32_t)ReportData[3] << 24) | ((uint32_t)ReportData[2] << 16) |
  65:lib/lufa/LUFA/Drivers/USB/Class/Common/HIDParser.c **** 			                       ((uint16_t)ReportData[1] << 8)  | ReportData[0]);
  66:lib/lufa/LUFA/Drivers/USB/Class/Common/HIDParser.c **** 				ReportSize     -= 4;
  67:lib/lufa/LUFA/Drivers/USB/Class/Common/HIDParser.c **** 				ReportData     += 4;
  68:lib/lufa/LUFA/Drivers/USB/Class/Common/HIDParser.c **** 				break;
  69:lib/lufa/LUFA/Drivers/USB/Class/Common/HIDParser.c **** 
  70:lib/lufa/LUFA/Drivers/USB/Class/Common/HIDParser.c **** 			case HID_RI_DATA_BITS_16:
  71:lib/lufa/LUFA/Drivers/USB/Class/Common/HIDParser.c **** 				ReportItemData  = (((uint16_t)ReportData[1] << 8) | (ReportData[0]));
  72:lib/lufa/LUFA/Drivers/USB/Class/Common/HIDParser.c **** 				ReportSize     -= 2;
  73:lib/lufa/LUFA/Drivers/USB/Class/Common/HIDParser.c **** 				ReportData     += 2;
  74:lib/lufa/LUFA/Drivers/USB/Class/Common/HIDParser.c **** 				break;
  75:lib/lufa/LUFA/Drivers/USB/Class/Common/HIDParser.c **** 
  76:lib/lufa/LUFA/Drivers/USB/Class/Common/HIDParser.c **** 			case HID_RI_DATA_BITS_8:
  77:lib/lufa/LUFA/Drivers/USB/Class/Common/HIDParser.c **** 				ReportItemData  = ReportData[0];
  78:lib/lufa/LUFA/Drivers/USB/Class/Common/HIDParser.c **** 				ReportSize     -= 1;
  79:lib/lufa/LUFA/Drivers/USB/Class/Common/HIDParser.c **** 				ReportData     += 1;
  80:lib/lufa/LUFA/Drivers/USB/Class/Common/HIDParser.c **** 				break;
  81:lib/lufa/LUFA/Drivers/USB/Class/Common/HIDParser.c **** 
  82:lib/lufa/LUFA/Drivers/USB/Class/Common/HIDParser.c **** 			default:
  83:lib/lufa/LUFA/Drivers/USB/Class/Common/HIDParser.c **** 				ReportItemData  = 0;
  84:lib/lufa/LUFA/Drivers/USB/Class/Common/HIDParser.c **** 				break;
  85:lib/lufa/LUFA/Drivers/USB/Class/Common/HIDParser.c **** 		}
  86:lib/lufa/LUFA/Drivers/USB/Class/Common/HIDParser.c **** 
  87:lib/lufa/LUFA/Drivers/USB/Class/Common/HIDParser.c **** 		switch (HIDReportItem & (HID_RI_TYPE_MASK | HID_RI_TAG_MASK))
  88:lib/lufa/LUFA/Drivers/USB/Class/Common/HIDParser.c **** 		{
  89:lib/lufa/LUFA/Drivers/USB/Class/Common/HIDParser.c **** 			case HID_RI_PUSH(0):
  90:lib/lufa/LUFA/Drivers/USB/Class/Common/HIDParser.c **** 				if (CurrStateTable == &StateTable[HID_STATETABLE_STACK_DEPTH - 1])
  91:lib/lufa/LUFA/Drivers/USB/Class/Common/HIDParser.c **** 				  return HID_PARSE_HIDStackOverflow;
  92:lib/lufa/LUFA/Drivers/USB/Class/Common/HIDParser.c **** 
  93:lib/lufa/LUFA/Drivers/USB/Class/Common/HIDParser.c **** 				memmove(CurrStateTable + 1,
  94:lib/lufa/LUFA/Drivers/USB/Class/Common/HIDParser.c **** 				       CurrStateTable,
  95:lib/lufa/LUFA/Drivers/USB/Class/Common/HIDParser.c **** 				       sizeof(HID_ReportItem_t));
  96:lib/lufa/LUFA/Drivers/USB/Class/Common/HIDParser.c **** 
  97:lib/lufa/LUFA/Drivers/USB/Class/Common/HIDParser.c **** 				CurrStateTable++;
  98:lib/lufa/LUFA/Drivers/USB/Class/Common/HIDParser.c **** 				break;
  99:lib/lufa/LUFA/Drivers/USB/Class/Common/HIDParser.c **** 
 100:lib/lufa/LUFA/Drivers/USB/Class/Common/HIDParser.c **** 			case HID_RI_POP(0):
 101:lib/lufa/LUFA/Drivers/USB/Class/Common/HIDParser.c **** 				if (CurrStateTable == &StateTable[0])
 102:lib/lufa/LUFA/Drivers/USB/Class/Common/HIDParser.c **** 				  return HID_PARSE_HIDStackUnderflow;
 103:lib/lufa/LUFA/Drivers/USB/Class/Common/HIDParser.c **** 
 104:lib/lufa/LUFA/Drivers/USB/Class/Common/HIDParser.c **** 				CurrStateTable--;
 105:lib/lufa/LUFA/Drivers/USB/Class/Common/HIDParser.c **** 				break;
 106:lib/lufa/LUFA/Drivers/USB/Class/Common/HIDParser.c **** 
 107:lib/lufa/LUFA/Drivers/USB/Class/Common/HIDParser.c **** 			case HID_RI_USAGE_PAGE(0):
 108:lib/lufa/LUFA/Drivers/USB/Class/Common/HIDParser.c **** 				if ((HIDReportItem & HID_RI_DATA_SIZE_MASK) == HID_RI_DATA_BITS_32)
 109:lib/lufa/LUFA/Drivers/USB/Class/Common/HIDParser.c **** 				  CurrStateTable->Attributes.Usage.Page = (ReportItemData >> 16);
 110:lib/lufa/LUFA/Drivers/USB/Class/Common/HIDParser.c **** 
 111:lib/lufa/LUFA/Drivers/USB/Class/Common/HIDParser.c **** 				CurrStateTable->Attributes.Usage.Page       = ReportItemData;
 112:lib/lufa/LUFA/Drivers/USB/Class/Common/HIDParser.c **** 				break;
 113:lib/lufa/LUFA/Drivers/USB/Class/Common/HIDParser.c **** 
 114:lib/lufa/LUFA/Drivers/USB/Class/Common/HIDParser.c **** 			case HID_RI_LOGICAL_MINIMUM(0):
 115:lib/lufa/LUFA/Drivers/USB/Class/Common/HIDParser.c **** 				CurrStateTable->Attributes.Logical.Minimum  = ReportItemData;
 116:lib/lufa/LUFA/Drivers/USB/Class/Common/HIDParser.c **** 				break;
 117:lib/lufa/LUFA/Drivers/USB/Class/Common/HIDParser.c **** 
 118:lib/lufa/LUFA/Drivers/USB/Class/Common/HIDParser.c **** 			case HID_RI_LOGICAL_MAXIMUM(0):
 119:lib/lufa/LUFA/Drivers/USB/Class/Common/HIDParser.c **** 				CurrStateTable->Attributes.Logical.Maximum  = ReportItemData;
 120:lib/lufa/LUFA/Drivers/USB/Class/Common/HIDParser.c **** 				break;
 121:lib/lufa/LUFA/Drivers/USB/Class/Common/HIDParser.c **** 
 122:lib/lufa/LUFA/Drivers/USB/Class/Common/HIDParser.c **** 			case HID_RI_PHYSICAL_MINIMUM(0):
 123:lib/lufa/LUFA/Drivers/USB/Class/Common/HIDParser.c **** 				CurrStateTable->Attributes.Physical.Minimum = ReportItemData;
 124:lib/lufa/LUFA/Drivers/USB/Class/Common/HIDParser.c **** 				break;
 125:lib/lufa/LUFA/Drivers/USB/Class/Common/HIDParser.c **** 
 126:lib/lufa/LUFA/Drivers/USB/Class/Common/HIDParser.c **** 			case HID_RI_PHYSICAL_MAXIMUM(0):
 127:lib/lufa/LUFA/Drivers/USB/Class/Common/HIDParser.c **** 				CurrStateTable->Attributes.Physical.Maximum = ReportItemData;
 128:lib/lufa/LUFA/Drivers/USB/Class/Common/HIDParser.c **** 				break;
 129:lib/lufa/LUFA/Drivers/USB/Class/Common/HIDParser.c **** 
 130:lib/lufa/LUFA/Drivers/USB/Class/Common/HIDParser.c **** 			case HID_RI_UNIT_EXPONENT(0):
 131:lib/lufa/LUFA/Drivers/USB/Class/Common/HIDParser.c **** 				CurrStateTable->Attributes.Unit.Exponent    = ReportItemData;
 132:lib/lufa/LUFA/Drivers/USB/Class/Common/HIDParser.c **** 				break;
 133:lib/lufa/LUFA/Drivers/USB/Class/Common/HIDParser.c **** 
 134:lib/lufa/LUFA/Drivers/USB/Class/Common/HIDParser.c **** 			case HID_RI_UNIT(0):
 135:lib/lufa/LUFA/Drivers/USB/Class/Common/HIDParser.c **** 				CurrStateTable->Attributes.Unit.Type        = ReportItemData;
 136:lib/lufa/LUFA/Drivers/USB/Class/Common/HIDParser.c **** 				break;
 137:lib/lufa/LUFA/Drivers/USB/Class/Common/HIDParser.c **** 
 138:lib/lufa/LUFA/Drivers/USB/Class/Common/HIDParser.c **** 			case HID_RI_REPORT_SIZE(0):
 139:lib/lufa/LUFA/Drivers/USB/Class/Common/HIDParser.c **** 				CurrStateTable->Attributes.BitSize          = ReportItemData;
 140:lib/lufa/LUFA/Drivers/USB/Class/Common/HIDParser.c **** 				break;
 141:lib/lufa/LUFA/Drivers/USB/Class/Common/HIDParser.c **** 
 142:lib/lufa/LUFA/Drivers/USB/Class/Common/HIDParser.c **** 			case HID_RI_REPORT_COUNT(0):
 143:lib/lufa/LUFA/Drivers/USB/Class/Common/HIDParser.c **** 				CurrStateTable->ReportCount                 = ReportItemData;
 144:lib/lufa/LUFA/Drivers/USB/Class/Common/HIDParser.c **** 				break;
 145:lib/lufa/LUFA/Drivers/USB/Class/Common/HIDParser.c **** 
 146:lib/lufa/LUFA/Drivers/USB/Class/Common/HIDParser.c **** 			case HID_RI_REPORT_ID(0):
 147:lib/lufa/LUFA/Drivers/USB/Class/Common/HIDParser.c **** 				CurrStateTable->ReportID                    = ReportItemData;
 148:lib/lufa/LUFA/Drivers/USB/Class/Common/HIDParser.c **** 
 149:lib/lufa/LUFA/Drivers/USB/Class/Common/HIDParser.c **** 				if (ParserData->UsingReportIDs)
 150:lib/lufa/LUFA/Drivers/USB/Class/Common/HIDParser.c **** 				{
 151:lib/lufa/LUFA/Drivers/USB/Class/Common/HIDParser.c **** 					CurrReportIDInfo = NULL;
 152:lib/lufa/LUFA/Drivers/USB/Class/Common/HIDParser.c **** 
 153:lib/lufa/LUFA/Drivers/USB/Class/Common/HIDParser.c **** 					for (uint8_t i = 0; i < ParserData->TotalDeviceReports; i++)
 154:lib/lufa/LUFA/Drivers/USB/Class/Common/HIDParser.c **** 					{
 155:lib/lufa/LUFA/Drivers/USB/Class/Common/HIDParser.c **** 						if (ParserData->ReportIDSizes[i].ReportID == CurrStateTable->ReportID)
 156:lib/lufa/LUFA/Drivers/USB/Class/Common/HIDParser.c **** 						{
 157:lib/lufa/LUFA/Drivers/USB/Class/Common/HIDParser.c **** 							CurrReportIDInfo = &ParserData->ReportIDSizes[i];
 158:lib/lufa/LUFA/Drivers/USB/Class/Common/HIDParser.c **** 							break;
 159:lib/lufa/LUFA/Drivers/USB/Class/Common/HIDParser.c **** 						}
 160:lib/lufa/LUFA/Drivers/USB/Class/Common/HIDParser.c **** 					}
 161:lib/lufa/LUFA/Drivers/USB/Class/Common/HIDParser.c **** 
 162:lib/lufa/LUFA/Drivers/USB/Class/Common/HIDParser.c **** 					if (CurrReportIDInfo == NULL)
 163:lib/lufa/LUFA/Drivers/USB/Class/Common/HIDParser.c **** 					{
 164:lib/lufa/LUFA/Drivers/USB/Class/Common/HIDParser.c **** 						if (ParserData->TotalDeviceReports == HID_MAX_REPORT_IDS)
 165:lib/lufa/LUFA/Drivers/USB/Class/Common/HIDParser.c **** 						  return HID_PARSE_InsufficientReportIDItems;
 166:lib/lufa/LUFA/Drivers/USB/Class/Common/HIDParser.c **** 
 167:lib/lufa/LUFA/Drivers/USB/Class/Common/HIDParser.c **** 						CurrReportIDInfo = &ParserData->ReportIDSizes[ParserData->TotalDeviceReports++];
 168:lib/lufa/LUFA/Drivers/USB/Class/Common/HIDParser.c **** 						memset(CurrReportIDInfo, 0x00, sizeof(HID_ReportSizeInfo_t));
 169:lib/lufa/LUFA/Drivers/USB/Class/Common/HIDParser.c **** 					}
 170:lib/lufa/LUFA/Drivers/USB/Class/Common/HIDParser.c **** 				}
 171:lib/lufa/LUFA/Drivers/USB/Class/Common/HIDParser.c **** 
 172:lib/lufa/LUFA/Drivers/USB/Class/Common/HIDParser.c **** 				ParserData->UsingReportIDs = true;
 173:lib/lufa/LUFA/Drivers/USB/Class/Common/HIDParser.c **** 
 174:lib/lufa/LUFA/Drivers/USB/Class/Common/HIDParser.c **** 				CurrReportIDInfo->ReportID = CurrStateTable->ReportID;
 175:lib/lufa/LUFA/Drivers/USB/Class/Common/HIDParser.c **** 				break;
 176:lib/lufa/LUFA/Drivers/USB/Class/Common/HIDParser.c **** 
 177:lib/lufa/LUFA/Drivers/USB/Class/Common/HIDParser.c **** 			case HID_RI_USAGE(0):
 178:lib/lufa/LUFA/Drivers/USB/Class/Common/HIDParser.c **** 				if (UsageListSize == HID_USAGE_STACK_DEPTH)
 179:lib/lufa/LUFA/Drivers/USB/Class/Common/HIDParser.c **** 				  return HID_PARSE_UsageListOverflow;
 180:lib/lufa/LUFA/Drivers/USB/Class/Common/HIDParser.c **** 
 181:lib/lufa/LUFA/Drivers/USB/Class/Common/HIDParser.c **** 				UsageList[UsageListSize++] = ReportItemData;
 182:lib/lufa/LUFA/Drivers/USB/Class/Common/HIDParser.c **** 				break;
 183:lib/lufa/LUFA/Drivers/USB/Class/Common/HIDParser.c **** 
 184:lib/lufa/LUFA/Drivers/USB/Class/Common/HIDParser.c **** 			case HID_RI_USAGE_MINIMUM(0):
 185:lib/lufa/LUFA/Drivers/USB/Class/Common/HIDParser.c **** 				UsageMinMax.Minimum = ReportItemData;
 186:lib/lufa/LUFA/Drivers/USB/Class/Common/HIDParser.c **** 				break;
 187:lib/lufa/LUFA/Drivers/USB/Class/Common/HIDParser.c **** 
 188:lib/lufa/LUFA/Drivers/USB/Class/Common/HIDParser.c **** 			case HID_RI_USAGE_MAXIMUM(0):
 189:lib/lufa/LUFA/Drivers/USB/Class/Common/HIDParser.c **** 				UsageMinMax.Maximum = ReportItemData;
 190:lib/lufa/LUFA/Drivers/USB/Class/Common/HIDParser.c **** 				break;
 191:lib/lufa/LUFA/Drivers/USB/Class/Common/HIDParser.c **** 
 192:lib/lufa/LUFA/Drivers/USB/Class/Common/HIDParser.c **** 			case HID_RI_COLLECTION(0):
 193:lib/lufa/LUFA/Drivers/USB/Class/Common/HIDParser.c **** 				if (CurrCollectionPath == NULL)
 194:lib/lufa/LUFA/Drivers/USB/Class/Common/HIDParser.c **** 				{
 195:lib/lufa/LUFA/Drivers/USB/Class/Common/HIDParser.c **** 					CurrCollectionPath = &ParserData->CollectionPaths[0];
 196:lib/lufa/LUFA/Drivers/USB/Class/Common/HIDParser.c **** 				}
 197:lib/lufa/LUFA/Drivers/USB/Class/Common/HIDParser.c **** 				else
 198:lib/lufa/LUFA/Drivers/USB/Class/Common/HIDParser.c **** 				{
 199:lib/lufa/LUFA/Drivers/USB/Class/Common/HIDParser.c **** 					HID_CollectionPath_t* ParentCollectionPath = CurrCollectionPath;
 200:lib/lufa/LUFA/Drivers/USB/Class/Common/HIDParser.c **** 
 201:lib/lufa/LUFA/Drivers/USB/Class/Common/HIDParser.c **** 					CurrCollectionPath = &ParserData->CollectionPaths[1];
 202:lib/lufa/LUFA/Drivers/USB/Class/Common/HIDParser.c **** 
 203:lib/lufa/LUFA/Drivers/USB/Class/Common/HIDParser.c **** 					while (CurrCollectionPath->Parent != NULL)
 204:lib/lufa/LUFA/Drivers/USB/Class/Common/HIDParser.c **** 					{
 205:lib/lufa/LUFA/Drivers/USB/Class/Common/HIDParser.c **** 						if (CurrCollectionPath == &ParserData->CollectionPaths[HID_MAX_COLLECTIONS - 1])
 206:lib/lufa/LUFA/Drivers/USB/Class/Common/HIDParser.c **** 						  return HID_PARSE_InsufficientCollectionPaths;
 207:lib/lufa/LUFA/Drivers/USB/Class/Common/HIDParser.c **** 
 208:lib/lufa/LUFA/Drivers/USB/Class/Common/HIDParser.c **** 						CurrCollectionPath++;
 209:lib/lufa/LUFA/Drivers/USB/Class/Common/HIDParser.c **** 					}
 210:lib/lufa/LUFA/Drivers/USB/Class/Common/HIDParser.c **** 
 211:lib/lufa/LUFA/Drivers/USB/Class/Common/HIDParser.c **** 					CurrCollectionPath->Parent = ParentCollectionPath;
 212:lib/lufa/LUFA/Drivers/USB/Class/Common/HIDParser.c **** 				}
 213:lib/lufa/LUFA/Drivers/USB/Class/Common/HIDParser.c **** 
 214:lib/lufa/LUFA/Drivers/USB/Class/Common/HIDParser.c **** 				CurrCollectionPath->Type       = ReportItemData;
 215:lib/lufa/LUFA/Drivers/USB/Class/Common/HIDParser.c **** 				CurrCollectionPath->Usage.Page = CurrStateTable->Attributes.Usage.Page;
 216:lib/lufa/LUFA/Drivers/USB/Class/Common/HIDParser.c **** 
 217:lib/lufa/LUFA/Drivers/USB/Class/Common/HIDParser.c **** 				if (UsageListSize)
 218:lib/lufa/LUFA/Drivers/USB/Class/Common/HIDParser.c **** 				{
 219:lib/lufa/LUFA/Drivers/USB/Class/Common/HIDParser.c **** 					CurrCollectionPath->Usage.Usage = UsageList[0];
 220:lib/lufa/LUFA/Drivers/USB/Class/Common/HIDParser.c **** 
 221:lib/lufa/LUFA/Drivers/USB/Class/Common/HIDParser.c **** 					for (uint8_t i = 1; i < UsageListSize; i++)
 222:lib/lufa/LUFA/Drivers/USB/Class/Common/HIDParser.c **** 					  UsageList[i - 1] = UsageList[i];
 223:lib/lufa/LUFA/Drivers/USB/Class/Common/HIDParser.c **** 
 224:lib/lufa/LUFA/Drivers/USB/Class/Common/HIDParser.c **** 					UsageListSize--;
 225:lib/lufa/LUFA/Drivers/USB/Class/Common/HIDParser.c **** 				}
 226:lib/lufa/LUFA/Drivers/USB/Class/Common/HIDParser.c **** 				else if (UsageMinMax.Minimum <= UsageMinMax.Maximum)
 227:lib/lufa/LUFA/Drivers/USB/Class/Common/HIDParser.c **** 				{
 228:lib/lufa/LUFA/Drivers/USB/Class/Common/HIDParser.c **** 					CurrCollectionPath->Usage.Usage = UsageMinMax.Minimum++;
 229:lib/lufa/LUFA/Drivers/USB/Class/Common/HIDParser.c **** 				}
 230:lib/lufa/LUFA/Drivers/USB/Class/Common/HIDParser.c **** 
 231:lib/lufa/LUFA/Drivers/USB/Class/Common/HIDParser.c **** 				break;
 232:lib/lufa/LUFA/Drivers/USB/Class/Common/HIDParser.c **** 
 233:lib/lufa/LUFA/Drivers/USB/Class/Common/HIDParser.c **** 			case HID_RI_END_COLLECTION(0):
 234:lib/lufa/LUFA/Drivers/USB/Class/Common/HIDParser.c **** 				if (CurrCollectionPath == NULL)
 235:lib/lufa/LUFA/Drivers/USB/Class/Common/HIDParser.c **** 				  return HID_PARSE_UnexpectedEndCollection;
 236:lib/lufa/LUFA/Drivers/USB/Class/Common/HIDParser.c **** 
 237:lib/lufa/LUFA/Drivers/USB/Class/Common/HIDParser.c **** 				CurrCollectionPath = CurrCollectionPath->Parent;
 238:lib/lufa/LUFA/Drivers/USB/Class/Common/HIDParser.c **** 				break;
 239:lib/lufa/LUFA/Drivers/USB/Class/Common/HIDParser.c **** 
 240:lib/lufa/LUFA/Drivers/USB/Class/Common/HIDParser.c **** 			case HID_RI_INPUT(0):
 241:lib/lufa/LUFA/Drivers/USB/Class/Common/HIDParser.c **** 			case HID_RI_OUTPUT(0):
 242:lib/lufa/LUFA/Drivers/USB/Class/Common/HIDParser.c **** 			case HID_RI_FEATURE(0):
 243:lib/lufa/LUFA/Drivers/USB/Class/Common/HIDParser.c **** 				for (uint8_t ReportItemNum = 0; ReportItemNum < CurrStateTable->ReportCount; ReportItemNum++)
 244:lib/lufa/LUFA/Drivers/USB/Class/Common/HIDParser.c **** 				{
 245:lib/lufa/LUFA/Drivers/USB/Class/Common/HIDParser.c **** 					HID_ReportItem_t NewReportItem;
 246:lib/lufa/LUFA/Drivers/USB/Class/Common/HIDParser.c **** 
 247:lib/lufa/LUFA/Drivers/USB/Class/Common/HIDParser.c **** 					memcpy(&NewReportItem.Attributes,
 248:lib/lufa/LUFA/Drivers/USB/Class/Common/HIDParser.c **** 					       &CurrStateTable->Attributes,
 249:lib/lufa/LUFA/Drivers/USB/Class/Common/HIDParser.c **** 					       sizeof(HID_ReportItem_Attributes_t));
 250:lib/lufa/LUFA/Drivers/USB/Class/Common/HIDParser.c **** 
 251:lib/lufa/LUFA/Drivers/USB/Class/Common/HIDParser.c **** 					NewReportItem.ItemFlags      = ReportItemData;
 252:lib/lufa/LUFA/Drivers/USB/Class/Common/HIDParser.c **** 					NewReportItem.CollectionPath = CurrCollectionPath;
 253:lib/lufa/LUFA/Drivers/USB/Class/Common/HIDParser.c **** 					NewReportItem.ReportID       = CurrStateTable->ReportID;
 254:lib/lufa/LUFA/Drivers/USB/Class/Common/HIDParser.c **** 
 255:lib/lufa/LUFA/Drivers/USB/Class/Common/HIDParser.c **** 					if (UsageListSize)
 256:lib/lufa/LUFA/Drivers/USB/Class/Common/HIDParser.c **** 					{
 257:lib/lufa/LUFA/Drivers/USB/Class/Common/HIDParser.c **** 						NewReportItem.Attributes.Usage.Usage = UsageList[0];
 258:lib/lufa/LUFA/Drivers/USB/Class/Common/HIDParser.c **** 
 259:lib/lufa/LUFA/Drivers/USB/Class/Common/HIDParser.c **** 						for (uint8_t i = 1; i < UsageListSize; i++)
 260:lib/lufa/LUFA/Drivers/USB/Class/Common/HIDParser.c **** 						  UsageList[i - 1] = UsageList[i];
 261:lib/lufa/LUFA/Drivers/USB/Class/Common/HIDParser.c **** 
 262:lib/lufa/LUFA/Drivers/USB/Class/Common/HIDParser.c **** 						UsageListSize--;
 263:lib/lufa/LUFA/Drivers/USB/Class/Common/HIDParser.c **** 					}
 264:lib/lufa/LUFA/Drivers/USB/Class/Common/HIDParser.c **** 					else if (UsageMinMax.Minimum <= UsageMinMax.Maximum)
 265:lib/lufa/LUFA/Drivers/USB/Class/Common/HIDParser.c **** 					{
 266:lib/lufa/LUFA/Drivers/USB/Class/Common/HIDParser.c **** 						NewReportItem.Attributes.Usage.Usage = UsageMinMax.Minimum++;
 267:lib/lufa/LUFA/Drivers/USB/Class/Common/HIDParser.c **** 					}
 268:lib/lufa/LUFA/Drivers/USB/Class/Common/HIDParser.c **** 
 269:lib/lufa/LUFA/Drivers/USB/Class/Common/HIDParser.c **** 					uint8_t ItemTypeTag = (HIDReportItem & (HID_RI_TYPE_MASK | HID_RI_TAG_MASK));
 270:lib/lufa/LUFA/Drivers/USB/Class/Common/HIDParser.c **** 
 271:lib/lufa/LUFA/Drivers/USB/Class/Common/HIDParser.c **** 					if (ItemTypeTag == HID_RI_INPUT(0))
 272:lib/lufa/LUFA/Drivers/USB/Class/Common/HIDParser.c **** 					  NewReportItem.ItemType = HID_REPORT_ITEM_In;
 273:lib/lufa/LUFA/Drivers/USB/Class/Common/HIDParser.c **** 					else if (ItemTypeTag == HID_RI_OUTPUT(0))
 274:lib/lufa/LUFA/Drivers/USB/Class/Common/HIDParser.c **** 					  NewReportItem.ItemType = HID_REPORT_ITEM_Out;
 275:lib/lufa/LUFA/Drivers/USB/Class/Common/HIDParser.c **** 					else
 276:lib/lufa/LUFA/Drivers/USB/Class/Common/HIDParser.c **** 					  NewReportItem.ItemType = HID_REPORT_ITEM_Feature;
 277:lib/lufa/LUFA/Drivers/USB/Class/Common/HIDParser.c **** 
 278:lib/lufa/LUFA/Drivers/USB/Class/Common/HIDParser.c **** 					NewReportItem.BitOffset = CurrReportIDInfo->ReportSizeBits[NewReportItem.ItemType];
 279:lib/lufa/LUFA/Drivers/USB/Class/Common/HIDParser.c **** 
 280:lib/lufa/LUFA/Drivers/USB/Class/Common/HIDParser.c **** 					CurrReportIDInfo->ReportSizeBits[NewReportItem.ItemType] += CurrStateTable->Attributes.BitSize
 281:lib/lufa/LUFA/Drivers/USB/Class/Common/HIDParser.c **** 
 282:lib/lufa/LUFA/Drivers/USB/Class/Common/HIDParser.c **** 					ParserData->LargestReportSizeBits = MAX(ParserData->LargestReportSizeBits, CurrReportIDInfo->R
 199               		.loc 1 282 40 view .LVU22
 200 00ae FA01      		movw r30,r20
 201 00b0 EA52      		subi r30,42
 202 00b2 FC4F      		sbci r31,-4
 203 00b4 CF57      		subi r28,lo8(-129)
 204 00b6 DF4F      		sbci r29,hi8(-129)
 205 00b8 F983      		std Y+1,r31
 206 00ba E883      		st Y,r30
 207 00bc C158      		subi r28,lo8(129)
 208 00be D040      		sbci r29,hi8(129)
 209               	.LBE4:
 210               	.LBE3:
 149:lib/lufa/LUFA/Drivers/USB/Class/Common/HIDParser.c **** 				{
 211               		.loc 1 149 19 view .LVU23
 212 00c0 275B      		subi r18,-73
 213 00c2 3F4F      		sbci r19,-1
 214 00c4 CD57      		subi r28,lo8(-131)
 215 00c6 DF4F      		sbci r29,hi8(-131)
 216 00c8 3983      		std Y+1,r19
 217 00ca 2883      		st Y,r18
 218 00cc C358      		subi r28,lo8(131)
 219 00ce D040      		sbci r29,hi8(131)
 220               	.LBB10:
 153:lib/lufa/LUFA/Drivers/USB/Class/Common/HIDParser.c **** 					{
 221               		.loc 1 153 40 view .LVU24
 222 00d0 C757      		subi r28,lo8(-137)
 223 00d2 DF4F      		sbci r29,hi8(-137)
 224 00d4 B983      		std Y+1,r27
 225 00d6 A883      		st Y,r26
 226 00d8 C958      		subi r28,lo8(137)
 227 00da D040      		sbci r29,hi8(137)
 228               	.LVL5:
 229               	.L2:
 153:lib/lufa/LUFA/Drivers/USB/Class/Common/HIDParser.c **** 					{
 230               		.loc 1 153 40 view .LVU25
 231               	.LBE10:
 232               	.LBE2:
  53:lib/lufa/LUFA/Drivers/USB/Class/Common/HIDParser.c **** 	{
 233               		.loc 1 53 8 is_stmt 1 view .LVU26
 234 00dc E796      		adiw r28,117-62
 235 00de EEAD      		ldd r30,Y+62
 236 00e0 FFAD      		ldd r31,Y+63
 237 00e2 E797      		sbiw r28,117-62
 238 00e4 EF2B      		or r30,r31
 239 00e6 01F4      		brne .L57
 283:lib/lufa/LUFA/Drivers/USB/Class/Common/HIDParser.c **** 
 284:lib/lufa/LUFA/Drivers/USB/Class/Common/HIDParser.c **** 					if (ParserData->TotalReportItems == HID_MAX_REPORTITEMS)
 285:lib/lufa/LUFA/Drivers/USB/Class/Common/HIDParser.c **** 					  return HID_PARSE_InsufficientReportItems;
 286:lib/lufa/LUFA/Drivers/USB/Class/Common/HIDParser.c **** 
 287:lib/lufa/LUFA/Drivers/USB/Class/Common/HIDParser.c **** 					memcpy(&ParserData->ReportItems[ParserData->TotalReportItems],
 288:lib/lufa/LUFA/Drivers/USB/Class/Common/HIDParser.c **** 					       &NewReportItem, sizeof(HID_ReportItem_t));
 289:lib/lufa/LUFA/Drivers/USB/Class/Common/HIDParser.c **** 
 290:lib/lufa/LUFA/Drivers/USB/Class/Common/HIDParser.c **** 					if (!(ReportItemData & HID_IOF_CONSTANT) && CALLBACK_HIDParser_FilterHIDReportItem(&NewReportI
 291:lib/lufa/LUFA/Drivers/USB/Class/Common/HIDParser.c **** 					  ParserData->TotalReportItems++;
 292:lib/lufa/LUFA/Drivers/USB/Class/Common/HIDParser.c **** 				}
 293:lib/lufa/LUFA/Drivers/USB/Class/Common/HIDParser.c **** 
 294:lib/lufa/LUFA/Drivers/USB/Class/Common/HIDParser.c **** 				break;
 295:lib/lufa/LUFA/Drivers/USB/Class/Common/HIDParser.c **** 
 296:lib/lufa/LUFA/Drivers/USB/Class/Common/HIDParser.c **** 			default:
 297:lib/lufa/LUFA/Drivers/USB/Class/Common/HIDParser.c **** 				break;
 298:lib/lufa/LUFA/Drivers/USB/Class/Common/HIDParser.c **** 		}
 299:lib/lufa/LUFA/Drivers/USB/Class/Common/HIDParser.c **** 
 300:lib/lufa/LUFA/Drivers/USB/Class/Common/HIDParser.c **** 		if ((HIDReportItem & HID_RI_TYPE_MASK) == HID_RI_TYPE_MAIN)
 301:lib/lufa/LUFA/Drivers/USB/Class/Common/HIDParser.c **** 		{
 302:lib/lufa/LUFA/Drivers/USB/Class/Common/HIDParser.c **** 			UsageMinMax.Minimum = 0;
 303:lib/lufa/LUFA/Drivers/USB/Class/Common/HIDParser.c **** 			UsageMinMax.Maximum = 0;
 304:lib/lufa/LUFA/Drivers/USB/Class/Common/HIDParser.c **** 			UsageListSize       = 0;
 305:lib/lufa/LUFA/Drivers/USB/Class/Common/HIDParser.c **** 		}
 306:lib/lufa/LUFA/Drivers/USB/Class/Common/HIDParser.c **** 	}
 307:lib/lufa/LUFA/Drivers/USB/Class/Common/HIDParser.c **** 
 308:lib/lufa/LUFA/Drivers/USB/Class/Common/HIDParser.c **** 	if (!(ParserData->TotalReportItems))
 240               		.loc 1 308 2 view .LVU27
 241               		.loc 1 308 5 is_stmt 0 view .LVU28
 242 00e8 D601      		movw r26,r12
 243 00ea 8C91      		ld r24,X
 244 00ec 8111      		cpse r24,__zero_reg__
 245 00ee 00C0      		rjmp .L70
 309:lib/lufa/LUFA/Drivers/USB/Class/Common/HIDParser.c **** 	  return HID_PARSE_NoUnfilteredReportItems;
 246               		.loc 1 309 11 view .LVU29
 247 00f0 88E0      		ldi r24,lo8(8)
 248 00f2 00C0      		rjmp .L1
 249               	.L57:
 250               	.LBB20:
  55:lib/lufa/LUFA/Drivers/USB/Class/Common/HIDParser.c **** 		uint32_t ReportItemData;
 251               		.loc 1 55 3 is_stmt 1 view .LVU30
  55:lib/lufa/LUFA/Drivers/USB/Class/Common/HIDParser.c **** 		uint32_t ReportItemData;
 252               		.loc 1 55 12 is_stmt 0 view .LVU31
 253 00f4 D101      		movw r26,r2
 254 00f6 BC91      		ld r27,X
 255 00f8 EF96      		adiw r28,126-63
 256 00fa BFAF      		std Y+63,r27
 257 00fc EF97      		sbiw r28,126-63
 258               	.LVL6:
  56:lib/lufa/LUFA/Drivers/USB/Class/Common/HIDParser.c **** 
 259               		.loc 1 56 3 is_stmt 1 view .LVU32
  58:lib/lufa/LUFA/Drivers/USB/Class/Common/HIDParser.c **** 		ReportSize--;
 260               		.loc 1 58 3 view .LVU33
  59:lib/lufa/LUFA/Drivers/USB/Class/Common/HIDParser.c **** 
 261               		.loc 1 59 3 view .LVU34
  61:lib/lufa/LUFA/Drivers/USB/Class/Common/HIDParser.c **** 		{
 262               		.loc 1 61 3 view .LVU35
 263 00fe 8B2F      		mov r24,r27
 264 0100 8370      		andi r24,lo8(3)
 265 0102 8230      		cpi r24,lo8(2)
 266 0104 01F4      		brne .+2
 267 0106 00C0      		rjmp .L3
 268               	.LVL7:
  61:lib/lufa/LUFA/Drivers/USB/Class/Common/HIDParser.c **** 		{
 269               		.loc 1 61 3 is_stmt 0 view .LVU36
 270 0108 8330      		cpi r24,lo8(3)
 271 010a 01F0      		breq .L4
 272 010c 8130      		cpi r24,lo8(1)
 273 010e 01F4      		brne .+2
 274 0110 00C0      		rjmp .L5
  58:lib/lufa/LUFA/Drivers/USB/Class/Common/HIDParser.c **** 		ReportSize--;
 275               		.loc 1 58 13 view .LVU37
 276 0112 EFEF      		ldi r30,-1
 277 0114 2E1A      		sub r2,r30
 278 0116 3E0A      		sbc r3,r30
 279               	.LVL8:
  59:lib/lufa/LUFA/Drivers/USB/Class/Common/HIDParser.c **** 
 280               		.loc 1 59 13 view .LVU38
 281 0118 E796      		adiw r28,117-62
 282 011a 2EAD      		ldd r18,Y+62
 283 011c 3FAD      		ldd r19,Y+63
 284 011e E797      		sbiw r28,117-62
 285 0120 2150      		subi r18,1
 286 0122 3109      		sbc r19,__zero_reg__
 287               	.LVL9:
  59:lib/lufa/LUFA/Drivers/USB/Class/Common/HIDParser.c **** 
 288               		.loc 1 59 13 view .LVU39
 289 0124 E796      		adiw r28,117-62
 290 0126 3FAF      		std Y+63,r19
 291 0128 2EAF      		std Y+62,r18
 292 012a E797      		sbiw r28,117-62
  83:lib/lufa/LUFA/Drivers/USB/Class/Common/HIDParser.c **** 				break;
 293               		.loc 1 83 21 view .LVU40
 294 012c 812C      		mov r8,__zero_reg__
 295 012e 912C      		mov r9,__zero_reg__
 296 0130 5401      		movw r10,r8
 297               	.LVL10:
 298               	.L6:
  87:lib/lufa/LUFA/Drivers/USB/Class/Common/HIDParser.c **** 		{
 299               		.loc 1 87 3 is_stmt 1 view .LVU41
 300 0132 EF96      		adiw r28,126-63
 301 0134 1FAD      		ldd r17,Y+63
 302 0136 EF97      		sbiw r28,126-63
 303 0138 1C7F      		andi r17,lo8(-4)
 304 013a 1436      		cpi r17,lo8(100)
 305 013c 01F4      		brne .+2
 306 013e 00C0      		rjmp .L7
  87:lib/lufa/LUFA/Drivers/USB/Class/Common/HIDParser.c **** 		{
 307               		.loc 1 87 3 is_stmt 0 view .LVU42
 308 0140 00F0      		brlo .+2
 309 0142 00C0      		rjmp .L8
 310 0144 1432      		cpi r17,lo8(36)
 311 0146 01F4      		brne .+2
 312 0148 00C0      		rjmp .L9
 313 014a 00F0      		brlo .+2
 314 014c 00C0      		rjmp .L10
 315 014e 1431      		cpi r17,lo8(20)
 316 0150 01F4      		brne .+2
 317 0152 00C0      		rjmp .L11
 318 0154 00F0      		brlo .+2
 319 0156 00C0      		rjmp .L12
 320 0158 1430      		cpi r17,lo8(4)
 321 015a 01F4      		brne .+2
 322 015c 00C0      		rjmp .L13
 323 015e 1830      		cpi r17,lo8(8)
 324 0160 01F4      		brne .+2
 325 0162 00C0      		rjmp .L14
 326               	.LVL11:
 327               	.L15:
 300:lib/lufa/LUFA/Drivers/USB/Class/Common/HIDParser.c **** 		{
 328               		.loc 1 300 3 is_stmt 1 view .LVU43
 329 0164 EF96      		adiw r28,126-63
 330 0166 8FAD      		ldd r24,Y+63
 331 0168 EF97      		sbiw r28,126-63
 332 016a 8C70      		andi r24,lo8(12)
 300:lib/lufa/LUFA/Drivers/USB/Class/Common/HIDParser.c **** 		{
 333               		.loc 1 300 6 is_stmt 0 view .LVU44
 334 016c 01F0      		breq .+2
 335 016e 00C0      		rjmp .L2
 304:lib/lufa/LUFA/Drivers/USB/Class/Common/HIDParser.c **** 		}
 336               		.loc 1 304 24 view .LVU45
 337 0170 00E0      		ldi r16,0
 338               	.LVL12:
 303:lib/lufa/LUFA/Drivers/USB/Class/Common/HIDParser.c **** 			UsageListSize       = 0;
 339               		.loc 1 303 24 view .LVU46
 340 0172 EE96      		adiw r28,122-60
 341 0174 1CAE      		std Y+60,__zero_reg__
 342 0176 1DAE      		std Y+61,__zero_reg__
 343 0178 1EAE      		std Y+62,__zero_reg__
 344 017a 1FAE      		std Y+63,__zero_reg__
 345 017c EE97      		sbiw r28,122-60
 346               	.LVL13:
 302:lib/lufa/LUFA/Drivers/USB/Class/Common/HIDParser.c **** 			UsageMinMax.Maximum = 0;
 347               		.loc 1 302 24 view .LVU47
 348 017e 412C      		mov r4,__zero_reg__
 349 0180 512C      		mov r5,__zero_reg__
 350 0182 3201      		movw r6,r4
 351               	.LVL14:
 302:lib/lufa/LUFA/Drivers/USB/Class/Common/HIDParser.c **** 			UsageMinMax.Maximum = 0;
 352               		.loc 1 302 24 view .LVU48
 353 0184 00C0      		rjmp .L2
 354               	.LVL15:
 355               	.L4:
  64:lib/lufa/LUFA/Drivers/USB/Class/Common/HIDParser.c **** 			                       ((uint16_t)ReportData[1] << 8)  | ReportData[0]);
 356               		.loc 1 64 5 is_stmt 1 view .LVU49
  64:lib/lufa/LUFA/Drivers/USB/Class/Common/HIDParser.c **** 			                       ((uint16_t)ReportData[1] << 8)  | ReportData[0]);
 357               		.loc 1 64 21 is_stmt 0 view .LVU50
 358 0186 D101      		movw r26,r2
 359 0188 1196      		adiw r26,1
 360 018a 8D90      		ld r8,X+
 361 018c 9D90      		ld r9,X+
 362 018e AD90      		ld r10,X+
 363 0190 BC90      		ld r11,X
 364 0192 1497      		sbiw r26,1+3
 365               	.LVL16:
  66:lib/lufa/LUFA/Drivers/USB/Class/Common/HIDParser.c **** 				ReportData     += 4;
 366               		.loc 1 66 5 is_stmt 1 view .LVU51
  66:lib/lufa/LUFA/Drivers/USB/Class/Common/HIDParser.c **** 				ReportData     += 4;
 367               		.loc 1 66 20 is_stmt 0 view .LVU52
 368 0194 E796      		adiw r28,117-62
 369 0196 EEAD      		ldd r30,Y+62
 370 0198 FFAD      		ldd r31,Y+63
 371 019a E797      		sbiw r28,117-62
 372 019c 3597      		sbiw r30,5
 373 019e E796      		adiw r28,117-62
 374 01a0 FFAF      		std Y+63,r31
 375 01a2 EEAF      		std Y+62,r30
 376 01a4 E797      		sbiw r28,117-62
 377               	.LVL17:
  67:lib/lufa/LUFA/Drivers/USB/Class/Common/HIDParser.c **** 				break;
 378               		.loc 1 67 5 is_stmt 1 view .LVU53
  67:lib/lufa/LUFA/Drivers/USB/Class/Common/HIDParser.c **** 				break;
 379               		.loc 1 67 20 is_stmt 0 view .LVU54
 380 01a6 F5E0      		ldi r31,5
 381 01a8 2F0E      		add r2,r31
 382 01aa 311C      		adc r3,__zero_reg__
 383               	.LVL18:
  68:lib/lufa/LUFA/Drivers/USB/Class/Common/HIDParser.c **** 
 384               		.loc 1 68 5 is_stmt 1 view .LVU55
 385 01ac 00C0      		rjmp .L6
 386               	.LVL19:
 387               	.L3:
  71:lib/lufa/LUFA/Drivers/USB/Class/Common/HIDParser.c **** 				ReportSize     -= 2;
 388               		.loc 1 71 5 view .LVU56
  71:lib/lufa/LUFA/Drivers/USB/Class/Common/HIDParser.c **** 				ReportSize     -= 2;
 389               		.loc 1 71 21 is_stmt 0 view .LVU57
 390 01ae D101      		movw r26,r2
 391 01b0 1196      		adiw r26,1
 392 01b2 8D90      		ld r8,X+
 393 01b4 9C90      		ld r9,X
 394 01b6 B12C      		mov r11,__zero_reg__
 395 01b8 A12C      		mov r10,__zero_reg__
 396               	.LVL20:
  72:lib/lufa/LUFA/Drivers/USB/Class/Common/HIDParser.c **** 				ReportData     += 2;
 397               		.loc 1 72 5 is_stmt 1 view .LVU58
  72:lib/lufa/LUFA/Drivers/USB/Class/Common/HIDParser.c **** 				ReportData     += 2;
 398               		.loc 1 72 20 is_stmt 0 view .LVU59
 399 01ba E796      		adiw r28,117-62
 400 01bc EEAD      		ldd r30,Y+62
 401 01be FFAD      		ldd r31,Y+63
 402 01c0 E797      		sbiw r28,117-62
 403 01c2 3397      		sbiw r30,3
 404 01c4 E796      		adiw r28,117-62
 405 01c6 FFAF      		std Y+63,r31
 406 01c8 EEAF      		std Y+62,r30
 407 01ca E797      		sbiw r28,117-62
 408               	.LVL21:
  73:lib/lufa/LUFA/Drivers/USB/Class/Common/HIDParser.c **** 				break;
 409               		.loc 1 73 5 is_stmt 1 view .LVU60
  73:lib/lufa/LUFA/Drivers/USB/Class/Common/HIDParser.c **** 				break;
 410               		.loc 1 73 20 is_stmt 0 view .LVU61
 411 01cc F3E0      		ldi r31,3
 412 01ce 2F0E      		add r2,r31
 413 01d0 311C      		adc r3,__zero_reg__
 414               	.LVL22:
  74:lib/lufa/LUFA/Drivers/USB/Class/Common/HIDParser.c **** 
 415               		.loc 1 74 5 is_stmt 1 view .LVU62
 416 01d2 00C0      		rjmp .L6
 417               	.LVL23:
 418               	.L5:
  77:lib/lufa/LUFA/Drivers/USB/Class/Common/HIDParser.c **** 				ReportSize     -= 1;
 419               		.loc 1 77 5 view .LVU63
  77:lib/lufa/LUFA/Drivers/USB/Class/Common/HIDParser.c **** 				ReportSize     -= 1;
 420               		.loc 1 77 21 is_stmt 0 view .LVU64
 421 01d4 D101      		movw r26,r2
 422 01d6 1196      		adiw r26,1
 423 01d8 8C90      		ld r8,X
 424 01da 912C      		mov r9,__zero_reg__
 425 01dc B12C      		mov r11,__zero_reg__
 426 01de A12C      		mov r10,__zero_reg__
 427               	.LVL24:
  78:lib/lufa/LUFA/Drivers/USB/Class/Common/HIDParser.c **** 				ReportData     += 1;
 428               		.loc 1 78 5 is_stmt 1 view .LVU65
  78:lib/lufa/LUFA/Drivers/USB/Class/Common/HIDParser.c **** 				ReportData     += 1;
 429               		.loc 1 78 20 is_stmt 0 view .LVU66
 430 01e0 E796      		adiw r28,117-62
 431 01e2 EEAD      		ldd r30,Y+62
 432 01e4 FFAD      		ldd r31,Y+63
 433 01e6 E797      		sbiw r28,117-62
 434 01e8 3297      		sbiw r30,2
 435 01ea E796      		adiw r28,117-62
 436 01ec FFAF      		std Y+63,r31
 437 01ee EEAF      		std Y+62,r30
 438 01f0 E797      		sbiw r28,117-62
 439               	.LVL25:
  79:lib/lufa/LUFA/Drivers/USB/Class/Common/HIDParser.c **** 				break;
 440               		.loc 1 79 5 is_stmt 1 view .LVU67
  79:lib/lufa/LUFA/Drivers/USB/Class/Common/HIDParser.c **** 				break;
 441               		.loc 1 79 20 is_stmt 0 view .LVU68
 442 01f2 F2E0      		ldi r31,2
 443 01f4 2F0E      		add r2,r31
 444 01f6 311C      		adc r3,__zero_reg__
 445               	.LVL26:
  80:lib/lufa/LUFA/Drivers/USB/Class/Common/HIDParser.c **** 
 446               		.loc 1 80 5 is_stmt 1 view .LVU69
 447 01f8 00C0      		rjmp .L6
 448               	.LVL27:
 449               	.L12:
  87:lib/lufa/LUFA/Drivers/USB/Class/Common/HIDParser.c **** 		{
 450               		.loc 1 87 3 is_stmt 0 view .LVU70
 451 01fa 1831      		cpi r17,lo8(24)
 452 01fc 01F0      		breq .+2
 453 01fe 00C0      		rjmp .L15
 454 0200 2401      		movw r4,r8
 455               	.LVL28:
  87:lib/lufa/LUFA/Drivers/USB/Class/Common/HIDParser.c **** 		{
 456               		.loc 1 87 3 view .LVU71
 457 0202 3501      		movw r6,r10
 458 0204 00C0      		rjmp .L15
 459               	.LVL29:
 460               	.L10:
  87:lib/lufa/LUFA/Drivers/USB/Class/Common/HIDParser.c **** 		{
 461               		.loc 1 87 3 view .LVU72
 462 0206 1434      		cpi r17,lo8(68)
 463 0208 01F4      		brne .+2
 464 020a 00C0      		rjmp .L16
 465 020c 00F4      		brsh .L17
 466 020e 1832      		cpi r17,lo8(40)
 467 0210 01F4      		brne .+2
 468 0212 00C0      		rjmp .L59
 469 0214 1433      		cpi r17,lo8(52)
 470 0216 01F0      		breq .+2
 471 0218 00C0      		rjmp .L15
 123:lib/lufa/LUFA/Drivers/USB/Class/Common/HIDParser.c **** 				break;
 472               		.loc 1 123 5 is_stmt 1 view .LVU73
 123:lib/lufa/LUFA/Drivers/USB/Class/Common/HIDParser.c **** 				break;
 473               		.loc 1 123 49 is_stmt 0 view .LVU74
 474 021a F701      		movw r30,r14
 475 021c 828A      		std Z+18,r8
 476 021e 938A      		std Z+19,r9
 477 0220 A48A      		std Z+20,r10
 478 0222 B58A      		std Z+21,r11
 124:lib/lufa/LUFA/Drivers/USB/Class/Common/HIDParser.c **** 
 479               		.loc 1 124 5 is_stmt 1 view .LVU75
 480 0224 00C0      		rjmp .L15
 481               	.L17:
  87:lib/lufa/LUFA/Drivers/USB/Class/Common/HIDParser.c **** 		{
 482               		.loc 1 87 3 is_stmt 0 view .LVU76
 483 0226 1435      		cpi r17,lo8(84)
 484 0228 01F0      		breq .+2
 485 022a 00C0      		rjmp .L15
 131:lib/lufa/LUFA/Drivers/USB/Class/Common/HIDParser.c **** 				break;
 486               		.loc 1 131 5 is_stmt 1 view .LVU77
 131:lib/lufa/LUFA/Drivers/USB/Class/Common/HIDParser.c **** 				break;
 487               		.loc 1 131 49 is_stmt 0 view .LVU78
 488 022c F701      		movw r30,r14
 489 022e 8186      		std Z+9,r8
 132:lib/lufa/LUFA/Drivers/USB/Class/Common/HIDParser.c **** 
 490               		.loc 1 132 5 is_stmt 1 view .LVU79
 491 0230 00C0      		rjmp .L15
 492               	.L8:
  87:lib/lufa/LUFA/Drivers/USB/Class/Common/HIDParser.c **** 		{
 493               		.loc 1 87 3 is_stmt 0 view .LVU80
 494 0232 103A      		cpi r17,lo8(-96)
 495 0234 01F4      		brne .+2
 496 0236 00C0      		rjmp .L20
 497 0238 00F4      		brsh .L21
 498 023a 1438      		cpi r17,lo8(-124)
 499 023c 01F4      		brne .+2
 500 023e 00C0      		rjmp .L22
 501 0240 00F4      		brsh .L23
 502 0242 1437      		cpi r17,lo8(116)
 503 0244 01F4      		brne .+2
 504 0246 00C0      		rjmp .L24
 505 0248 1038      		cpi r17,lo8(-128)
 506 024a 01F0      		breq .+2
 507 024c 00C0      		rjmp .L15
 508               	.L62:
 509 024e EA96      		adiw r28,121-63
 510 0250 1FAE      		std Y+63,__zero_reg__
 511 0252 EA97      		sbiw r28,121-63
 512               	.LBB11:
 513               	.LBB7:
 290:lib/lufa/LUFA/Drivers/USB/Class/Common/HIDParser.c **** 					  ParserData->TotalReportItems++;
 514               		.loc 1 290 27 view .LVU81
 515 0254 A501      		movw r20,r10
 516 0256 9401      		movw r18,r8
 517 0258 2170      		andi r18,1
 518 025a 3327      		clr r19
 519 025c 4427      		clr r20
 520 025e 5527      		clr r21
 521 0260 CB57      		subi r28,lo8(-133)
 522 0262 DF4F      		sbci r29,hi8(-133)
 523 0264 2883      		st Y,r18
 524 0266 3983      		std Y+1,r19
 525 0268 4A83      		std Y+2,r20
 526 026a 5B83      		std Y+3,r21
 527 026c C558      		subi r28,lo8(133)
 528 026e D040      		sbci r29,hi8(133)
 529 0270 00C0      		rjmp .L54
 530               	.L23:
 531               	.LBE7:
 532               	.LBE11:
  87:lib/lufa/LUFA/Drivers/USB/Class/Common/HIDParser.c **** 		{
 533               		.loc 1 87 3 view .LVU82
 534 0272 1039      		cpi r17,lo8(-112)
 535 0274 01F0      		breq .L62
 536 0276 1439      		cpi r17,lo8(-108)
 537 0278 01F0      		breq .+2
 538 027a 00C0      		rjmp .L15
 143:lib/lufa/LUFA/Drivers/USB/Class/Common/HIDParser.c **** 				break;
 539               		.loc 1 143 5 is_stmt 1 view .LVU83
 143:lib/lufa/LUFA/Drivers/USB/Class/Common/HIDParser.c **** 				break;
 540               		.loc 1 143 49 is_stmt 0 view .LVU84
 541 027c D701      		movw r26,r14
 542 027e 5A96      		adiw r26,26
 543 0280 8C92      		st X,r8
 144:lib/lufa/LUFA/Drivers/USB/Class/Common/HIDParser.c **** 
 544               		.loc 1 144 5 is_stmt 1 view .LVU85
 545 0282 00C0      		rjmp .L15
 546               	.L21:
  87:lib/lufa/LUFA/Drivers/USB/Class/Common/HIDParser.c **** 		{
 547               		.loc 1 87 3 is_stmt 0 view .LVU86
 548 0284 143B      		cpi r17,lo8(-76)
 549 0286 01F0      		breq .L27
 550 0288 00F4      		brsh .L28
 551 028a 143A      		cpi r17,lo8(-92)
 552 028c 01F0      		breq .L29
 553 028e 103B      		cpi r17,lo8(-80)
 554 0290 01F0      		breq .L62
 555 0292 00C0      		rjmp .L15
 556               	.L28:
 557 0294 103C      		cpi r17,lo8(-64)
 558 0296 01F0      		breq .+2
 559 0298 00C0      		rjmp .L15
 234:lib/lufa/LUFA/Drivers/USB/Class/Common/HIDParser.c **** 				  return HID_PARSE_UnexpectedEndCollection;
 560               		.loc 1 234 5 is_stmt 1 view .LVU87
 234:lib/lufa/LUFA/Drivers/USB/Class/Common/HIDParser.c **** 				  return HID_PARSE_UnexpectedEndCollection;
 561               		.loc 1 234 8 is_stmt 0 view .LVU88
 562 029a E596      		adiw r28,115-62
 563 029c EEAD      		ldd r30,Y+62
 564 029e FFAD      		ldd r31,Y+63
 565 02a0 E597      		sbiw r28,115-62
 566 02a2 3097      		sbiw r30,0
 567 02a4 01F4      		brne .+2
 568 02a6 00C0      		rjmp .L69
 237:lib/lufa/LUFA/Drivers/USB/Class/Common/HIDParser.c **** 				break;
 569               		.loc 1 237 5 is_stmt 1 view .LVU89
 237:lib/lufa/LUFA/Drivers/USB/Class/Common/HIDParser.c **** 				break;
 570               		.loc 1 237 24 is_stmt 0 view .LVU90
 571 02a8 2581      		ldd r18,Z+5
 572 02aa 3681      		ldd r19,Z+6
 573 02ac E596      		adiw r28,115-62
 574 02ae 3FAF      		std Y+63,r19
 575 02b0 2EAF      		std Y+62,r18
 576 02b2 E597      		sbiw r28,115-62
 577               	.LVL30:
 238:lib/lufa/LUFA/Drivers/USB/Class/Common/HIDParser.c **** 
 578               		.loc 1 238 5 is_stmt 1 view .LVU91
 579 02b4 00C0      		rjmp .L15
 580               	.LVL31:
 581               	.L29:
  90:lib/lufa/LUFA/Drivers/USB/Class/Common/HIDParser.c **** 				  return HID_PARSE_HIDStackOverflow;
 582               		.loc 1 90 5 view .LVU92
  90:lib/lufa/LUFA/Drivers/USB/Class/Common/HIDParser.c **** 				  return HID_PARSE_HIDStackOverflow;
 583               		.loc 1 90 8 is_stmt 0 view .LVU93
 584 02b6 CE01      		movw r24,r28
 585 02b8 4D96      		adiw r24,29
 586 02ba E816      		cp r14,r24
 587 02bc F906      		cpc r15,r25
 588 02be 01F4      		brne .+2
 589 02c0 00C0      		rjmp .L63
  93:lib/lufa/LUFA/Drivers/USB/Class/Common/HIDParser.c **** 				       CurrStateTable,
 590               		.loc 1 93 5 is_stmt 1 view .LVU94
  93:lib/lufa/LUFA/Drivers/USB/Class/Common/HIDParser.c **** 				       CurrStateTable,
 591               		.loc 1 93 28 is_stmt 0 view .LVU95
 592 02c2 5701      		movw r10,r14
 593 02c4 2CE1      		ldi r18,28
 594 02c6 A20E      		add r10,r18
 595 02c8 B11C      		adc r11,__zero_reg__
  93:lib/lufa/LUFA/Drivers/USB/Class/Common/HIDParser.c **** 				       CurrStateTable,
 596               		.loc 1 93 5 view .LVU96
 597 02ca 4AE2      		ldi r20,lo8(42)
 598 02cc 50E0      		ldi r21,0
 599 02ce B701      		movw r22,r14
 600 02d0 C501      		movw r24,r10
 601 02d2 0E94 0000 		call memmove
 602               	.LVL32:
  97:lib/lufa/LUFA/Drivers/USB/Class/Common/HIDParser.c **** 				break;
 603               		.loc 1 97 5 is_stmt 1 view .LVU97
  98:lib/lufa/LUFA/Drivers/USB/Class/Common/HIDParser.c **** 
 604               		.loc 1 98 5 view .LVU98
  97:lib/lufa/LUFA/Drivers/USB/Class/Common/HIDParser.c **** 				break;
 605               		.loc 1 97 19 is_stmt 0 view .LVU99
 606 02d6 7501      		movw r14,r10
  98:lib/lufa/LUFA/Drivers/USB/Class/Common/HIDParser.c **** 
 607               		.loc 1 98 5 view .LVU100
 608 02d8 00C0      		rjmp .L15
 609               	.LVL33:
 610               	.L27:
 101:lib/lufa/LUFA/Drivers/USB/Class/Common/HIDParser.c **** 				  return HID_PARSE_HIDStackUnderflow;
 611               		.loc 1 101 5 is_stmt 1 view .LVU101
 101:lib/lufa/LUFA/Drivers/USB/Class/Common/HIDParser.c **** 				  return HID_PARSE_HIDStackUnderflow;
 612               		.loc 1 101 8 is_stmt 0 view .LVU102
 613 02da CE01      		movw r24,r28
 614 02dc 0196      		adiw r24,1
 615 02de 8E15      		cp r24,r14
 616 02e0 9F05      		cpc r25,r15
 617 02e2 01F4      		brne .+2
 618 02e4 00C0      		rjmp .L64
 104:lib/lufa/LUFA/Drivers/USB/Class/Common/HIDParser.c **** 				break;
 619               		.loc 1 104 5 is_stmt 1 view .LVU103
 104:lib/lufa/LUFA/Drivers/USB/Class/Common/HIDParser.c **** 				break;
 620               		.loc 1 104 19 is_stmt 0 view .LVU104
 621 02e6 3CE1      		ldi r19,28
 622 02e8 E31A      		sub r14,r19
 623 02ea F108      		sbc r15,__zero_reg__
 624               	.LVL34:
 105:lib/lufa/LUFA/Drivers/USB/Class/Common/HIDParser.c **** 
 625               		.loc 1 105 5 is_stmt 1 view .LVU105
 626 02ec 00C0      		rjmp .L15
 627               	.L13:
 108:lib/lufa/LUFA/Drivers/USB/Class/Common/HIDParser.c **** 				  CurrStateTable->Attributes.Usage.Page = (ReportItemData >> 16);
 628               		.loc 1 108 5 view .LVU106
 111:lib/lufa/LUFA/Drivers/USB/Class/Common/HIDParser.c **** 				break;
 629               		.loc 1 111 5 view .LVU107
 111:lib/lufa/LUFA/Drivers/USB/Class/Common/HIDParser.c **** 				break;
 630               		.loc 1 111 49 is_stmt 0 view .LVU108
 631 02ee D701      		movw r26,r14
 632 02f0 1296      		adiw r26,1+1
 633 02f2 9C92      		st X,r9
 634 02f4 8E92      		st -X,r8
 635 02f6 1197      		sbiw r26,1
 112:lib/lufa/LUFA/Drivers/USB/Class/Common/HIDParser.c **** 
 636               		.loc 1 112 5 is_stmt 1 view .LVU109
 637 02f8 00C0      		rjmp .L15
 638               	.L11:
 115:lib/lufa/LUFA/Drivers/USB/Class/Common/HIDParser.c **** 				break;
 639               		.loc 1 115 5 view .LVU110
 115:lib/lufa/LUFA/Drivers/USB/Class/Common/HIDParser.c **** 				break;
 640               		.loc 1 115 49 is_stmt 0 view .LVU111
 641 02fa F701      		movw r30,r14
 642 02fc 8286      		std Z+10,r8
 643 02fe 9386      		std Z+11,r9
 644 0300 A486      		std Z+12,r10
 645 0302 B586      		std Z+13,r11
 116:lib/lufa/LUFA/Drivers/USB/Class/Common/HIDParser.c **** 
 646               		.loc 1 116 5 is_stmt 1 view .LVU112
 647 0304 00C0      		rjmp .L15
 648               	.L9:
 119:lib/lufa/LUFA/Drivers/USB/Class/Common/HIDParser.c **** 				break;
 649               		.loc 1 119 5 view .LVU113
 119:lib/lufa/LUFA/Drivers/USB/Class/Common/HIDParser.c **** 				break;
 650               		.loc 1 119 49 is_stmt 0 view .LVU114
 651 0306 D701      		movw r26,r14
 652 0308 1E96      		adiw r26,14
 653 030a 8D92      		st X+,r8
 654 030c 9D92      		st X+,r9
 655 030e AD92      		st X+,r10
 656 0310 BC92      		st X,r11
 657 0312 5197      		sbiw r26,14+3
 120:lib/lufa/LUFA/Drivers/USB/Class/Common/HIDParser.c **** 
 658               		.loc 1 120 5 is_stmt 1 view .LVU115
 659 0314 00C0      		rjmp .L15
 660               	.L16:
 127:lib/lufa/LUFA/Drivers/USB/Class/Common/HIDParser.c **** 				break;
 661               		.loc 1 127 5 view .LVU116
 127:lib/lufa/LUFA/Drivers/USB/Class/Common/HIDParser.c **** 				break;
 662               		.loc 1 127 49 is_stmt 0 view .LVU117
 663 0316 D701      		movw r26,r14
 664 0318 5696      		adiw r26,22
 665 031a 8D92      		st X+,r8
 666 031c 9D92      		st X+,r9
 667 031e AD92      		st X+,r10
 668 0320 BC92      		st X,r11
 669 0322 5997      		sbiw r26,22+3
 128:lib/lufa/LUFA/Drivers/USB/Class/Common/HIDParser.c **** 
 670               		.loc 1 128 5 is_stmt 1 view .LVU118
 671 0324 00C0      		rjmp .L15
 672               	.L7:
 135:lib/lufa/LUFA/Drivers/USB/Class/Common/HIDParser.c **** 				break;
 673               		.loc 1 135 5 view .LVU119
 135:lib/lufa/LUFA/Drivers/USB/Class/Common/HIDParser.c **** 				break;
 674               		.loc 1 135 49 is_stmt 0 view .LVU120
 675 0326 D701      		movw r26,r14
 676 0328 1596      		adiw r26,5
 677 032a 8D92      		st X+,r8
 678 032c 9D92      		st X+,r9
 679 032e AD92      		st X+,r10
 680 0330 BC92      		st X,r11
 681 0332 1897      		sbiw r26,5+3
 136:lib/lufa/LUFA/Drivers/USB/Class/Common/HIDParser.c **** 
 682               		.loc 1 136 5 is_stmt 1 view .LVU121
 683 0334 00C0      		rjmp .L15
 684               	.L24:
 139:lib/lufa/LUFA/Drivers/USB/Class/Common/HIDParser.c **** 				break;
 685               		.loc 1 139 5 view .LVU122
 139:lib/lufa/LUFA/Drivers/USB/Class/Common/HIDParser.c **** 				break;
 686               		.loc 1 139 49 is_stmt 0 view .LVU123
 687 0336 F701      		movw r30,r14
 688 0338 8082      		st Z,r8
 140:lib/lufa/LUFA/Drivers/USB/Class/Common/HIDParser.c **** 
 689               		.loc 1 140 5 is_stmt 1 view .LVU124
 690 033a 00C0      		rjmp .L15
 691               	.L22:
 147:lib/lufa/LUFA/Drivers/USB/Class/Common/HIDParser.c **** 
 692               		.loc 1 147 5 view .LVU125
 147:lib/lufa/LUFA/Drivers/USB/Class/Common/HIDParser.c **** 
 693               		.loc 1 147 49 is_stmt 0 view .LVU126
 694 033c 982D      		mov r25,r8
 695 033e F701      		movw r30,r14
 696 0340 838E      		std Z+27,r8
 149:lib/lufa/LUFA/Drivers/USB/Class/Common/HIDParser.c **** 				{
 697               		.loc 1 149 5 is_stmt 1 view .LVU127
 149:lib/lufa/LUFA/Drivers/USB/Class/Common/HIDParser.c **** 				{
 698               		.loc 1 149 8 is_stmt 0 view .LVU128
 699 0342 CD57      		subi r28,lo8(-131)
 700 0344 DF4F      		sbci r29,hi8(-131)
 701 0346 A881      		ld r26,Y
 702 0348 B981      		ldd r27,Y+1
 703 034a C358      		subi r28,lo8(131)
 704 034c D040      		sbci r29,hi8(131)
 705 034e 8C91      		ld r24,X
 706 0350 8823      		tst r24
 707 0352 01F4      		brne .+2
 708 0354 00C0      		rjmp .L32
 709               	.LBB12:
 153:lib/lufa/LUFA/Drivers/USB/Class/Common/HIDParser.c **** 					{
 710               		.loc 1 153 40 view .LVU129
 711 0356 C757      		subi r28,lo8(-137)
 712 0358 DF4F      		sbci r29,hi8(-137)
 713 035a E881      		ld r30,Y
 714 035c F981      		ldd r31,Y+1
 715 035e C958      		subi r28,lo8(137)
 716 0360 D040      		sbci r29,hi8(137)
 717 0362 8081      		ld r24,Z
 718 0364 F601      		movw r30,r12
 719 0366 E057      		subi r30,112
 720 0368 FC4F      		sbci r31,-4
 721 036a 30E0      		ldi r19,0
 722 036c 20E0      		ldi r18,0
 723               	.LVL35:
 724               	.L33:
 153:lib/lufa/LUFA/Drivers/USB/Class/Common/HIDParser.c **** 					{
 725               		.loc 1 153 26 is_stmt 1 discriminator 1 view .LVU130
 153:lib/lufa/LUFA/Drivers/USB/Class/Common/HIDParser.c **** 					{
 726               		.loc 1 153 6 is_stmt 0 discriminator 1 view .LVU131
 727 036e 2817      		cp r18,r24
 728 0370 00F0      		brlo .L34
 729               	.LBE12:
 164:lib/lufa/LUFA/Drivers/USB/Class/Common/HIDParser.c **** 						  return HID_PARSE_InsufficientReportIDItems;
 730               		.loc 1 164 7 is_stmt 1 view .LVU132
 164:lib/lufa/LUFA/Drivers/USB/Class/Common/HIDParser.c **** 						  return HID_PARSE_InsufficientReportIDItems;
 731               		.loc 1 164 10 is_stmt 0 view .LVU133
 732 0372 8A30      		cpi r24,lo8(10)
 733 0374 01F4      		brne .+2
 734 0376 00C0      		rjmp .L66
 167:lib/lufa/LUFA/Drivers/USB/Class/Common/HIDParser.c **** 						memset(CurrReportIDInfo, 0x00, sizeof(HID_ReportSizeInfo_t));
 735               		.loc 1 167 7 is_stmt 1 view .LVU134
 167:lib/lufa/LUFA/Drivers/USB/Class/Common/HIDParser.c **** 						memset(CurrReportIDInfo, 0x00, sizeof(HID_ReportSizeInfo_t));
 736               		.loc 1 167 83 is_stmt 0 view .LVU135
 737 0378 91E0      		ldi r25,lo8(1)
 738 037a 980F      		add r25,r24
 739 037c C158      		subi r28,lo8(-127)
 740 037e DF4F      		sbci r29,hi8(-127)
 741 0380 A881      		ld r26,Y
 742 0382 B981      		ldd r27,Y+1
 743 0384 CF57      		subi r28,lo8(127)
 744 0386 D040      		sbci r29,hi8(127)
 745 0388 9C93      		st X,r25
 167:lib/lufa/LUFA/Drivers/USB/Class/Common/HIDParser.c **** 						memset(CurrReportIDInfo, 0x00, sizeof(HID_ReportSizeInfo_t));
 746               		.loc 1 167 24 view .LVU136
 747 038a 97E0      		ldi r25,lo8(7)
 748 038c 9601      		movw r18,r12
 749               	.LVL36:
 167:lib/lufa/LUFA/Drivers/USB/Class/Common/HIDParser.c **** 						memset(CurrReportIDInfo, 0x00, sizeof(HID_ReportSizeInfo_t));
 750               		.loc 1 167 24 view .LVU137
 751 038e 899F      		mul r24,r25
 752 0390 200D      		add r18,r0
 753 0392 311D      		adc r19,r1
 754 0394 1124      		clr __zero_reg__
 755 0396 F901      		movw r30,r18
 756 0398 E057      		subi r30,112
 757 039a FC4F      		sbci r31,-4
 758 039c E996      		adiw r28,119-62
 759 039e FFAF      		std Y+63,r31
 760 03a0 EEAF      		std Y+62,r30
 761 03a2 E997      		sbiw r28,119-62
 762               	.LVL37:
 168:lib/lufa/LUFA/Drivers/USB/Class/Common/HIDParser.c **** 					}
 763               		.loc 1 168 7 is_stmt 1 view .LVU138
 764               		0:
 765 03a4 1192      		st Z+,__zero_reg__
 766 03a6 9A95      		dec r25
 767 03a8 01F4      		brne 0b
 768               	.LVL38:
 168:lib/lufa/LUFA/Drivers/USB/Class/Common/HIDParser.c **** 					}
 769               		.loc 1 168 7 is_stmt 0 view .LVU139
 770 03aa 00C0      		rjmp .L32
 771               	.LVL39:
 772               	.L34:
 773               	.LBB13:
 155:lib/lufa/LUFA/Drivers/USB/Class/Common/HIDParser.c **** 						{
 774               		.loc 1 155 7 is_stmt 1 view .LVU140
 155:lib/lufa/LUFA/Drivers/USB/Class/Common/HIDParser.c **** 						{
 775               		.loc 1 155 39 is_stmt 0 view .LVU141
 776 03ac 6081      		ld r22,Z
 777 03ae A901      		movw r20,r18
 778 03b0 4F5F      		subi r20,-1
 779 03b2 5F4F      		sbci r21,-1
 780 03b4 3796      		adiw r30,7
 155:lib/lufa/LUFA/Drivers/USB/Class/Common/HIDParser.c **** 						{
 781               		.loc 1 155 10 view .LVU142
 782 03b6 9613      		cpse r25,r22
 783 03b8 00C0      		rjmp .L65
 157:lib/lufa/LUFA/Drivers/USB/Class/Common/HIDParser.c **** 							break;
 784               		.loc 1 157 8 is_stmt 1 view .LVU143
 157:lib/lufa/LUFA/Drivers/USB/Class/Common/HIDParser.c **** 							break;
 785               		.loc 1 157 25 is_stmt 0 view .LVU144
 786 03ba 47E0      		ldi r20,lo8(7)
 787 03bc 429F      		mul r20,r18
 788 03be C001      		movw r24,r0
 789 03c0 439F      		mul r20,r19
 790 03c2 900D      		add r25,r0
 791 03c4 1124      		clr __zero_reg__
 792 03c6 8057      		subi r24,112
 793 03c8 9C4F      		sbci r25,-4
 794 03ca 9601      		movw r18,r12
 795               	.LVL40:
 157:lib/lufa/LUFA/Drivers/USB/Class/Common/HIDParser.c **** 							break;
 796               		.loc 1 157 25 view .LVU145
 797 03cc 280F      		add r18,r24
 798 03ce 391F      		adc r19,r25
 799 03d0 E996      		adiw r28,119-62
 800 03d2 3FAF      		std Y+63,r19
 801 03d4 2EAF      		std Y+62,r18
 802 03d6 E997      		sbiw r28,119-62
 803               	.LVL41:
 158:lib/lufa/LUFA/Drivers/USB/Class/Common/HIDParser.c **** 						}
 804               		.loc 1 158 8 is_stmt 1 view .LVU146
 158:lib/lufa/LUFA/Drivers/USB/Class/Common/HIDParser.c **** 						}
 805               		.loc 1 158 8 is_stmt 0 view .LVU147
 806               	.LBE13:
 162:lib/lufa/LUFA/Drivers/USB/Class/Common/HIDParser.c **** 					{
 807               		.loc 1 162 6 is_stmt 1 view .LVU148
 808               	.L32:
 172:lib/lufa/LUFA/Drivers/USB/Class/Common/HIDParser.c **** 
 809               		.loc 1 172 5 view .LVU149
 172:lib/lufa/LUFA/Drivers/USB/Class/Common/HIDParser.c **** 
 810               		.loc 1 172 32 is_stmt 0 view .LVU150
 811 03d8 81E0      		ldi r24,lo8(1)
 812 03da CD57      		subi r28,lo8(-131)
 813 03dc DF4F      		sbci r29,hi8(-131)
 814 03de A881      		ld r26,Y
 815 03e0 B981      		ldd r27,Y+1
 816 03e2 C358      		subi r28,lo8(131)
 817 03e4 D040      		sbci r29,hi8(131)
 818 03e6 8C93      		st X,r24
 174:lib/lufa/LUFA/Drivers/USB/Class/Common/HIDParser.c **** 				break;
 819               		.loc 1 174 5 is_stmt 1 view .LVU151
 174:lib/lufa/LUFA/Drivers/USB/Class/Common/HIDParser.c **** 				break;
 820               		.loc 1 174 48 is_stmt 0 view .LVU152
 821 03e8 F701      		movw r30,r14
 822 03ea 838D      		ldd r24,Z+27
 174:lib/lufa/LUFA/Drivers/USB/Class/Common/HIDParser.c **** 				break;
 823               		.loc 1 174 32 view .LVU153
 824 03ec E996      		adiw r28,119-62
 825 03ee AEAD      		ldd r26,Y+62
 826 03f0 BFAD      		ldd r27,Y+63
 827 03f2 E997      		sbiw r28,119-62
 828 03f4 8C93      		st X,r24
 175:lib/lufa/LUFA/Drivers/USB/Class/Common/HIDParser.c **** 
 829               		.loc 1 175 5 is_stmt 1 view .LVU154
 830 03f6 00C0      		rjmp .L15
 831               	.LVL42:
 832               	.L65:
 833               	.LBB14:
 175:lib/lufa/LUFA/Drivers/USB/Class/Common/HIDParser.c **** 
 834               		.loc 1 175 5 is_stmt 0 view .LVU155
 835 03f8 9A01      		movw r18,r20
 836               	.LVL43:
 175:lib/lufa/LUFA/Drivers/USB/Class/Common/HIDParser.c **** 
 837               		.loc 1 175 5 view .LVU156
 838 03fa 00C0      		rjmp .L33
 839               	.LVL44:
 840               	.L14:
 175:lib/lufa/LUFA/Drivers/USB/Class/Common/HIDParser.c **** 
 841               		.loc 1 175 5 view .LVU157
 842               	.LBE14:
 178:lib/lufa/LUFA/Drivers/USB/Class/Common/HIDParser.c **** 				  return HID_PARSE_UsageListOverflow;
 843               		.loc 1 178 5 is_stmt 1 view .LVU158
 178:lib/lufa/LUFA/Drivers/USB/Class/Common/HIDParser.c **** 				  return HID_PARSE_UsageListOverflow;
 844               		.loc 1 178 8 is_stmt 0 view .LVU159
 845 03fc 0830      		cpi r16,lo8(8)
 846 03fe 01F4      		brne .+2
 847 0400 00C0      		rjmp .L67
 181:lib/lufa/LUFA/Drivers/USB/Class/Common/HIDParser.c **** 				break;
 848               		.loc 1 181 5 is_stmt 1 view .LVU160
 849               	.LVL45:
 181:lib/lufa/LUFA/Drivers/USB/Class/Common/HIDParser.c **** 				break;
 850               		.loc 1 181 28 is_stmt 0 view .LVU161
 851 0402 E02F      		mov r30,r16
 852 0404 F0E0      		ldi r31,0
 181:lib/lufa/LUFA/Drivers/USB/Class/Common/HIDParser.c **** 				break;
 853               		.loc 1 181 32 view .LVU162
 854 0406 EE0F      		lsl r30
 855 0408 FF1F      		rol r31
 856 040a 23E6      		ldi r18,lo8(99)
 857 040c 30E0      		ldi r19,0
 858 040e 2C0F      		add r18,r28
 859 0410 3D1F      		adc r19,r29
 860 0412 E20F      		add r30,r18
 861 0414 F31F      		adc r31,r19
 862 0416 9182      		std Z+1,r9
 863 0418 8082      		st Z,r8
 182:lib/lufa/LUFA/Drivers/USB/Class/Common/HIDParser.c **** 
 864               		.loc 1 182 5 is_stmt 1 view .LVU163
 181:lib/lufa/LUFA/Drivers/USB/Class/Common/HIDParser.c **** 				break;
 865               		.loc 1 181 28 is_stmt 0 view .LVU164
 866 041a 0F5F      		subi r16,lo8(-(1))
 867               	.LVL46:
 182:lib/lufa/LUFA/Drivers/USB/Class/Common/HIDParser.c **** 
 868               		.loc 1 182 5 view .LVU165
 869 041c 00C0      		rjmp .L15
 870               	.L20:
 193:lib/lufa/LUFA/Drivers/USB/Class/Common/HIDParser.c **** 				{
 871               		.loc 1 193 5 is_stmt 1 view .LVU166
 193:lib/lufa/LUFA/Drivers/USB/Class/Common/HIDParser.c **** 				{
 872               		.loc 1 193 8 is_stmt 0 view .LVU167
 873 041e E596      		adiw r28,115-62
 874 0420 4EAD      		ldd r20,Y+62
 875 0422 5FAD      		ldd r21,Y+63
 876 0424 E597      		sbiw r28,115-62
 877 0426 452B      		or r20,r21
 878 0428 01F4      		brne .L35
 195:lib/lufa/LUFA/Drivers/USB/Class/Common/HIDParser.c **** 				}
 879               		.loc 1 195 6 is_stmt 1 view .LVU168
 195:lib/lufa/LUFA/Drivers/USB/Class/Common/HIDParser.c **** 				}
 880               		.loc 1 195 25 is_stmt 0 view .LVU169
 881 042a C601      		movw r24,r12
 882 042c 875B      		subi r24,-73
 883 042e 9C4F      		sbci r25,-4
 884 0430 E596      		adiw r28,115-62
 885 0432 9FAF      		std Y+63,r25
 886 0434 8EAF      		std Y+62,r24
 887 0436 E597      		sbiw r28,115-62
 888               	.LVL47:
 889               	.L36:
 214:lib/lufa/LUFA/Drivers/USB/Class/Common/HIDParser.c **** 				CurrCollectionPath->Usage.Page = CurrStateTable->Attributes.Usage.Page;
 890               		.loc 1 214 5 is_stmt 1 view .LVU170
 214:lib/lufa/LUFA/Drivers/USB/Class/Common/HIDParser.c **** 				CurrCollectionPath->Usage.Page = CurrStateTable->Attributes.Usage.Page;
 891               		.loc 1 214 36 is_stmt 0 view .LVU171
 892 0438 E596      		adiw r28,115-62
 893 043a EEAD      		ldd r30,Y+62
 894 043c FFAD      		ldd r31,Y+63
 895 043e E597      		sbiw r28,115-62
 896 0440 8082      		st Z,r8
 215:lib/lufa/LUFA/Drivers/USB/Class/Common/HIDParser.c **** 
 897               		.loc 1 215 5 is_stmt 1 view .LVU172
 215:lib/lufa/LUFA/Drivers/USB/Class/Common/HIDParser.c **** 
 898               		.loc 1 215 70 is_stmt 0 view .LVU173
 899 0442 D701      		movw r26,r14
 900 0444 1196      		adiw r26,1
 901 0446 8D91      		ld r24,X+
 902 0448 9C91      		ld r25,X
 215:lib/lufa/LUFA/Drivers/USB/Class/Common/HIDParser.c **** 
 903               		.loc 1 215 36 view .LVU174
 904 044a 9283      		std Z+2,r25
 905 044c 8183      		std Z+1,r24
 217:lib/lufa/LUFA/Drivers/USB/Class/Common/HIDParser.c **** 				{
 906               		.loc 1 217 5 is_stmt 1 view .LVU175
 217:lib/lufa/LUFA/Drivers/USB/Class/Common/HIDParser.c **** 				{
 907               		.loc 1 217 8 is_stmt 0 view .LVU176
 908 044e 0023      		tst r16
 909 0450 01F0      		breq .L39
 219:lib/lufa/LUFA/Drivers/USB/Class/Common/HIDParser.c **** 
 910               		.loc 1 219 6 is_stmt 1 view .LVU177
 219:lib/lufa/LUFA/Drivers/USB/Class/Common/HIDParser.c **** 
 911               		.loc 1 219 38 is_stmt 0 view .LVU178
 912 0452 A596      		adiw r28,99-62
 913 0454 8EAD      		ldd r24,Y+62
 914 0456 9FAD      		ldd r25,Y+63
 915 0458 A597      		sbiw r28,99-62
 916 045a 9483      		std Z+4,r25
 917 045c 8383      		std Z+3,r24
 221:lib/lufa/LUFA/Drivers/USB/Class/Common/HIDParser.c **** 					  UsageList[i - 1] = UsageList[i];
 918               		.loc 1 221 6 is_stmt 1 view .LVU179
 919               	.LBB15:
 221:lib/lufa/LUFA/Drivers/USB/Class/Common/HIDParser.c **** 					  UsageList[i - 1] = UsageList[i];
 920               		.loc 1 221 11 view .LVU180
 921               	.LVL48:
 221:lib/lufa/LUFA/Drivers/USB/Class/Common/HIDParser.c **** 					  UsageList[i - 1] = UsageList[i];
 922               		.loc 1 221 11 is_stmt 0 view .LVU181
 923 045e FE01      		movw r30,r28
 924 0460 ED59      		subi r30,-99
 925 0462 FF4F      		sbci r31,-1
 221:lib/lufa/LUFA/Drivers/USB/Class/Common/HIDParser.c **** 					  UsageList[i - 1] = UsageList[i];
 926               		.loc 1 221 19 view .LVU182
 927 0464 81E0      		ldi r24,lo8(1)
 928               	.LVL49:
 929               	.L40:
 221:lib/lufa/LUFA/Drivers/USB/Class/Common/HIDParser.c **** 					  UsageList[i - 1] = UsageList[i];
 930               		.loc 1 221 26 is_stmt 1 discriminator 1 view .LVU183
 221:lib/lufa/LUFA/Drivers/USB/Class/Common/HIDParser.c **** 					  UsageList[i - 1] = UsageList[i];
 931               		.loc 1 221 6 is_stmt 0 discriminator 1 view .LVU184
 932 0466 0813      		cpse r16,r24
 933 0468 00C0      		rjmp .L41
 934               	.LBE15:
 224:lib/lufa/LUFA/Drivers/USB/Class/Common/HIDParser.c **** 				}
 935               		.loc 1 224 6 is_stmt 1 view .LVU185
 224:lib/lufa/LUFA/Drivers/USB/Class/Common/HIDParser.c **** 				}
 936               		.loc 1 224 19 is_stmt 0 view .LVU186
 937 046a 0150      		subi r16,lo8(-(-1))
 938               	.LVL50:
 224:lib/lufa/LUFA/Drivers/USB/Class/Common/HIDParser.c **** 				}
 939               		.loc 1 224 19 view .LVU187
 940 046c 00C0      		rjmp .L15
 941               	.LVL51:
 942               	.L35:
 943               	.LBB16:
 199:lib/lufa/LUFA/Drivers/USB/Class/Common/HIDParser.c **** 
 944               		.loc 1 199 6 is_stmt 1 view .LVU188
 201:lib/lufa/LUFA/Drivers/USB/Class/Common/HIDParser.c **** 
 945               		.loc 1 201 6 view .LVU189
 201:lib/lufa/LUFA/Drivers/USB/Class/Common/HIDParser.c **** 
 946               		.loc 1 201 25 is_stmt 0 view .LVU190
 947 046e F601      		movw r30,r12
 948 0470 E05B      		subi r30,-80
 949 0472 FC4F      		sbci r31,-4
 950               	.LVL52:
 203:lib/lufa/LUFA/Drivers/USB/Class/Common/HIDParser.c **** 					{
 951               		.loc 1 203 6 is_stmt 1 view .LVU191
 952 0474 9601      		movw r18,r12
 953 0476 2857      		subi r18,120
 954 0478 3C4F      		sbci r19,-4
 955               	.L37:
 203:lib/lufa/LUFA/Drivers/USB/Class/Common/HIDParser.c **** 					{
 956               		.loc 1 203 12 view .LVU192
 957 047a 8581      		ldd r24,Z+5
 958 047c 9681      		ldd r25,Z+6
 959 047e 892B      		or r24,r25
 960 0480 01F4      		brne .L38
 211:lib/lufa/LUFA/Drivers/USB/Class/Common/HIDParser.c **** 				}
 961               		.loc 1 211 6 view .LVU193
 211:lib/lufa/LUFA/Drivers/USB/Class/Common/HIDParser.c **** 				}
 962               		.loc 1 211 33 is_stmt 0 view .LVU194
 963 0482 E596      		adiw r28,115-62
 964 0484 AEAD      		ldd r26,Y+62
 965 0486 BFAD      		ldd r27,Y+63
 966 0488 E597      		sbiw r28,115-62
 967 048a B683      		std Z+6,r27
 968 048c A583      		std Z+5,r26
 969 048e E596      		adiw r28,115-62
 970 0490 FFAF      		std Y+63,r31
 971 0492 EEAF      		std Y+62,r30
 972 0494 E597      		sbiw r28,115-62
 973               	.LVL53:
 211:lib/lufa/LUFA/Drivers/USB/Class/Common/HIDParser.c **** 				}
 974               		.loc 1 211 33 view .LVU195
 975 0496 00C0      		rjmp .L36
 976               	.LVL54:
 977               	.L38:
 205:lib/lufa/LUFA/Drivers/USB/Class/Common/HIDParser.c **** 						  return HID_PARSE_InsufficientCollectionPaths;
 978               		.loc 1 205 7 is_stmt 1 view .LVU196
 205:lib/lufa/LUFA/Drivers/USB/Class/Common/HIDParser.c **** 						  return HID_PARSE_InsufficientCollectionPaths;
 979               		.loc 1 205 10 is_stmt 0 view .LVU197
 980 0498 E217      		cp r30,r18
 981 049a F307      		cpc r31,r19
 982 049c 01F4      		brne .+2
 983 049e 00C0      		rjmp .L68
 208:lib/lufa/LUFA/Drivers/USB/Class/Common/HIDParser.c **** 					}
 984               		.loc 1 208 7 is_stmt 1 view .LVU198
 208:lib/lufa/LUFA/Drivers/USB/Class/Common/HIDParser.c **** 					}
 985               		.loc 1 208 25 is_stmt 0 view .LVU199
 986 04a0 3796      		adiw r30,7
 987               	.LVL55:
 208:lib/lufa/LUFA/Drivers/USB/Class/Common/HIDParser.c **** 					}
 988               		.loc 1 208 25 view .LVU200
 989 04a2 00C0      		rjmp .L37
 990               	.LVL56:
 991               	.L41:
 208:lib/lufa/LUFA/Drivers/USB/Class/Common/HIDParser.c **** 					}
 992               		.loc 1 208 25 view .LVU201
 993               	.LBE16:
 994               	.LBB17:
 222:lib/lufa/LUFA/Drivers/USB/Class/Common/HIDParser.c **** 
 995               		.loc 1 222 8 is_stmt 1 discriminator 3 view .LVU202
 222:lib/lufa/LUFA/Drivers/USB/Class/Common/HIDParser.c **** 
 996               		.loc 1 222 25 is_stmt 0 discriminator 3 view .LVU203
 997 04a4 2281      		ldd r18,Z+2
 998 04a6 3381      		ldd r19,Z+3
 999 04a8 2193      		st Z+,r18
 1000 04aa 3193      		st Z+,r19
 221:lib/lufa/LUFA/Drivers/USB/Class/Common/HIDParser.c **** 					  UsageList[i - 1] = UsageList[i];
 1001               		.loc 1 221 45 is_stmt 1 discriminator 3 view .LVU204
 221:lib/lufa/LUFA/Drivers/USB/Class/Common/HIDParser.c **** 					  UsageList[i - 1] = UsageList[i];
 1002               		.loc 1 221 46 is_stmt 0 discriminator 3 view .LVU205
 1003 04ac 8F5F      		subi r24,lo8(-(1))
 1004               	.LVL57:
 221:lib/lufa/LUFA/Drivers/USB/Class/Common/HIDParser.c **** 					  UsageList[i - 1] = UsageList[i];
 1005               		.loc 1 221 46 discriminator 3 view .LVU206
 1006 04ae 00C0      		rjmp .L40
 1007               	.LVL58:
 1008               	.L39:
 221:lib/lufa/LUFA/Drivers/USB/Class/Common/HIDParser.c **** 					  UsageList[i - 1] = UsageList[i];
 1009               		.loc 1 221 46 discriminator 3 view .LVU207
 1010               	.LBE17:
 226:lib/lufa/LUFA/Drivers/USB/Class/Common/HIDParser.c **** 				{
 1011               		.loc 1 226 10 is_stmt 1 view .LVU208
 226:lib/lufa/LUFA/Drivers/USB/Class/Common/HIDParser.c **** 				{
 1012               		.loc 1 226 13 is_stmt 0 view .LVU209
 1013 04b0 EE96      		adiw r28,122-60
 1014 04b2 2CAD      		ldd r18,Y+60
 1015 04b4 3DAD      		ldd r19,Y+61
 1016 04b6 4EAD      		ldd r20,Y+62
 1017 04b8 5FAD      		ldd r21,Y+63
 1018 04ba EE97      		sbiw r28,122-60
 1019 04bc 2415      		cp r18,r4
 1020 04be 3505      		cpc r19,r5
 1021 04c0 4605      		cpc r20,r6
 1022 04c2 5705      		cpc r21,r7
 1023 04c4 00F4      		brsh .+2
 1024 04c6 00C0      		rjmp .L15
 228:lib/lufa/LUFA/Drivers/USB/Class/Common/HIDParser.c **** 				}
 1025               		.loc 1 228 6 is_stmt 1 view .LVU210
 1026               	.LVL59:
 228:lib/lufa/LUFA/Drivers/USB/Class/Common/HIDParser.c **** 				}
 1027               		.loc 1 228 38 is_stmt 0 view .LVU211
 1028 04c8 E596      		adiw r28,115-62
 1029 04ca AEAD      		ldd r26,Y+62
 1030 04cc BFAD      		ldd r27,Y+63
 1031 04ce E597      		sbiw r28,115-62
 1032 04d0 1496      		adiw r26,3+1
 1033 04d2 5C92      		st X,r5
 1034 04d4 4E92      		st -X,r4
 1035 04d6 1397      		sbiw r26,3
 228:lib/lufa/LUFA/Drivers/USB/Class/Common/HIDParser.c **** 				}
 1036               		.loc 1 228 59 view .LVU212
 1037 04d8 BFEF      		ldi r27,-1
 1038 04da 4B1A      		sub r4,r27
 1039 04dc 5B0A      		sbc r5,r27
 1040 04de 6B0A      		sbc r6,r27
 1041 04e0 7B0A      		sbc r7,r27
 1042               	.LVL60:
 228:lib/lufa/LUFA/Drivers/USB/Class/Common/HIDParser.c **** 				}
 1043               		.loc 1 228 59 view .LVU213
 1044 04e2 00C0      		rjmp .L15
 1045               	.LVL61:
 1046               	.L44:
 1047               	.LBB18:
 1048               	.LBB8:
 1049               	.LBB5:
 260:lib/lufa/LUFA/Drivers/USB/Class/Common/HIDParser.c **** 
 1050               		.loc 1 260 9 is_stmt 1 discriminator 3 view .LVU214
 260:lib/lufa/LUFA/Drivers/USB/Class/Common/HIDParser.c **** 
 1051               		.loc 1 260 26 is_stmt 0 discriminator 3 view .LVU215
 1052 04e4 2281      		ldd r18,Z+2
 1053 04e6 3381      		ldd r19,Z+3
 1054 04e8 2193      		st Z+,r18
 1055 04ea 3193      		st Z+,r19
 259:lib/lufa/LUFA/Drivers/USB/Class/Common/HIDParser.c **** 						  UsageList[i - 1] = UsageList[i];
 1056               		.loc 1 259 46 is_stmt 1 discriminator 3 view .LVU216
 259:lib/lufa/LUFA/Drivers/USB/Class/Common/HIDParser.c **** 						  UsageList[i - 1] = UsageList[i];
 1057               		.loc 1 259 47 is_stmt 0 discriminator 3 view .LVU217
 1058 04ec 8F5F      		subi r24,lo8(-(1))
 1059               	.LVL62:
 259:lib/lufa/LUFA/Drivers/USB/Class/Common/HIDParser.c **** 						  UsageList[i - 1] = UsageList[i];
 1060               		.loc 1 259 47 discriminator 3 view .LVU218
 1061 04ee 00C0      		rjmp .L43
 1062               	.LVL63:
 1063               	.L42:
 259:lib/lufa/LUFA/Drivers/USB/Class/Common/HIDParser.c **** 						  UsageList[i - 1] = UsageList[i];
 1064               		.loc 1 259 47 discriminator 3 view .LVU219
 1065               	.LBE5:
 264:lib/lufa/LUFA/Drivers/USB/Class/Common/HIDParser.c **** 					{
 1066               		.loc 1 264 11 is_stmt 1 view .LVU220
 264:lib/lufa/LUFA/Drivers/USB/Class/Common/HIDParser.c **** 					{
 1067               		.loc 1 264 14 is_stmt 0 view .LVU221
 1068 04f0 EE96      		adiw r28,122-60
 1069 04f2 2CAD      		ldd r18,Y+60
 1070 04f4 3DAD      		ldd r19,Y+61
 1071 04f6 4EAD      		ldd r20,Y+62
 1072 04f8 5FAD      		ldd r21,Y+63
 1073 04fa EE97      		sbiw r28,122-60
 1074 04fc 2415      		cp r18,r4
 1075 04fe 3505      		cpc r19,r5
 1076 0500 4605      		cpc r20,r6
 1077 0502 5705      		cpc r21,r7
 1078 0504 00F4      		brsh .+2
 1079 0506 00C0      		rjmp .L45
 266:lib/lufa/LUFA/Drivers/USB/Class/Common/HIDParser.c **** 					}
 1080               		.loc 1 266 7 is_stmt 1 view .LVU222
 1081               	.LVL64:
 266:lib/lufa/LUFA/Drivers/USB/Class/Common/HIDParser.c **** 					}
 1082               		.loc 1 266 44 is_stmt 0 view .LVU223
 1083 0508 2696      		adiw r28,68-62
 1084 050a 5FAE      		std Y+63,r5
 1085 050c 4EAE      		std Y+62,r4
 1086 050e 2697      		sbiw r28,68-62
 266:lib/lufa/LUFA/Drivers/USB/Class/Common/HIDParser.c **** 					}
 1087               		.loc 1 266 65 view .LVU224
 1088 0510 3FEF      		ldi r19,-1
 1089 0512 431A      		sub r4,r19
 1090 0514 530A      		sbc r5,r19
 1091 0516 630A      		sbc r6,r19
 1092 0518 730A      		sbc r7,r19
 1093               	.LVL65:
 266:lib/lufa/LUFA/Drivers/USB/Class/Common/HIDParser.c **** 					}
 1094               		.loc 1 266 65 view .LVU225
 1095 051a 00C0      		rjmp .L45
 1096               	.LVL66:
 1097               	.L46:
 273:lib/lufa/LUFA/Drivers/USB/Class/Common/HIDParser.c **** 					  NewReportItem.ItemType = HID_REPORT_ITEM_Out;
 1098               		.loc 1 273 11 is_stmt 1 view .LVU226
 273:lib/lufa/LUFA/Drivers/USB/Class/Common/HIDParser.c **** 					  NewReportItem.ItemType = HID_REPORT_ITEM_Out;
 1099               		.loc 1 273 14 is_stmt 0 view .LVU227
 1100 051c 1039      		cpi r17,lo8(-112)
 1101 051e 01F4      		brne .L48
 274:lib/lufa/LUFA/Drivers/USB/Class/Common/HIDParser.c **** 					else
 1102               		.loc 1 274 8 is_stmt 1 view .LVU228
 274:lib/lufa/LUFA/Drivers/USB/Class/Common/HIDParser.c **** 					else
 1103               		.loc 1 274 31 is_stmt 0 view .LVU229
 1104 0520 41E0      		ldi r20,lo8(1)
 1105 0522 4BAF      		std Y+59,r20
 1106 0524 00C0      		rjmp .L47
 1107               	.L48:
 276:lib/lufa/LUFA/Drivers/USB/Class/Common/HIDParser.c **** 
 1108               		.loc 1 276 8 is_stmt 1 view .LVU230
 276:lib/lufa/LUFA/Drivers/USB/Class/Common/HIDParser.c **** 
 1109               		.loc 1 276 31 is_stmt 0 view .LVU231
 1110 0526 52E0      		ldi r21,lo8(2)
 1111 0528 5BAF      		std Y+59,r21
 1112 052a 00C0      		rjmp .L47
 1113               	.L50:
 287:lib/lufa/LUFA/Drivers/USB/Class/Common/HIDParser.c **** 					       &NewReportItem, sizeof(HID_ReportItem_t));
 1114               		.loc 1 287 6 is_stmt 1 view .LVU232
 1115 052c EAE2      		ldi r30,lo8(42)
 1116 052e 8E9F      		mul r24,r30
 1117 0530 A00D      		add r26,r0
 1118 0532 B11D      		adc r27,r1
 1119 0534 1124      		clr __zero_reg__
 1120 0536 1196      		adiw r26,1
 1121 0538 FE01      		movw r30,r28
 1122 053a F996      		adiw r30,57
 1123 053c 8AE2      		ldi r24,lo8(42)
 1124               		0:
 1125 053e 0190      		ld r0,Z+
 1126 0540 0D92      		st X+,r0
 1127 0542 8A95      		dec r24
 1128 0544 01F4      		brne 0b
 290:lib/lufa/LUFA/Drivers/USB/Class/Common/HIDParser.c **** 					  ParserData->TotalReportItems++;
 1129               		.loc 1 290 6 view .LVU233
 290:lib/lufa/LUFA/Drivers/USB/Class/Common/HIDParser.c **** 					  ParserData->TotalReportItems++;
 1130               		.loc 1 290 9 is_stmt 0 view .LVU234
 1131 0546 CB57      		subi r28,lo8(-133)
 1132 0548 DF4F      		sbci r29,hi8(-133)
 1133 054a 2881      		ld r18,Y
 1134 054c 3981      		ldd r19,Y+1
 1135 054e 4A81      		ldd r20,Y+2
 1136 0550 5B81      		ldd r21,Y+3
 1137 0552 C558      		subi r28,lo8(133)
 1138 0554 D040      		sbci r29,hi8(133)
 1139 0556 232B      		or r18,r19
 1140 0558 242B      		or r18,r20
 1141 055a 252B      		or r18,r21
 1142 055c 01F4      		brne .L52
 290:lib/lufa/LUFA/Drivers/USB/Class/Common/HIDParser.c **** 					  ParserData->TotalReportItems++;
 1143               		.loc 1 290 50 discriminator 1 view .LVU235
 1144 055e CE01      		movw r24,r28
 1145 0560 C996      		adiw r24,57
 1146 0562 0E94 0000 		call CALLBACK_HIDParser_FilterHIDReportItem
 1147               	.LVL67:
 290:lib/lufa/LUFA/Drivers/USB/Class/Common/HIDParser.c **** 					  ParserData->TotalReportItems++;
 1148               		.loc 1 290 47 discriminator 1 view .LVU236
 1149 0566 8823      		tst r24
 1150 0568 01F0      		breq .L52
 291:lib/lufa/LUFA/Drivers/USB/Class/Common/HIDParser.c **** 				}
 1151               		.loc 1 291 8 is_stmt 1 view .LVU237
 291:lib/lufa/LUFA/Drivers/USB/Class/Common/HIDParser.c **** 				}
 1152               		.loc 1 291 36 is_stmt 0 view .LVU238
 1153 056a D601      		movw r26,r12
 1154 056c 8C91      		ld r24,X
 1155 056e 8F5F      		subi r24,lo8(-(1))
 1156 0570 8C93      		st X,r24
 1157               	.L52:
 291:lib/lufa/LUFA/Drivers/USB/Class/Common/HIDParser.c **** 				}
 1158               		.loc 1 291 36 view .LVU239
 1159               	.LBE8:
 243:lib/lufa/LUFA/Drivers/USB/Class/Common/HIDParser.c **** 				{
 1160               		.loc 1 243 82 is_stmt 1 view .LVU240
 243:lib/lufa/LUFA/Drivers/USB/Class/Common/HIDParser.c **** 				{
 1161               		.loc 1 243 95 is_stmt 0 view .LVU241
 1162 0572 EA96      		adiw r28,121-63
 1163 0574 BFAD      		ldd r27,Y+63
 1164 0576 EA97      		sbiw r28,121-63
 1165 0578 BF5F      		subi r27,lo8(-(1))
 1166 057a EA96      		adiw r28,121-63
 1167 057c BFAF      		std Y+63,r27
 1168 057e EA97      		sbiw r28,121-63
 1169               	.LVL68:
 1170               	.L54:
 243:lib/lufa/LUFA/Drivers/USB/Class/Common/HIDParser.c **** 				{
 1171               		.loc 1 243 37 is_stmt 1 discriminator 1 view .LVU242
 243:lib/lufa/LUFA/Drivers/USB/Class/Common/HIDParser.c **** 				{
 1172               		.loc 1 243 5 is_stmt 0 discriminator 1 view .LVU243
 1173 0580 D701      		movw r26,r14
 1174 0582 5A96      		adiw r26,26
 1175 0584 8C91      		ld r24,X
 1176 0586 EA96      		adiw r28,121-63
 1177 0588 BFAD      		ldd r27,Y+63
 1178 058a EA97      		sbiw r28,121-63
 1179 058c B817      		cp r27,r24
 1180 058e 00F0      		brlo .+2
 1181 0590 00C0      		rjmp .L15
 1182               	.LBB9:
 245:lib/lufa/LUFA/Drivers/USB/Class/Common/HIDParser.c **** 
 1183               		.loc 1 245 6 is_stmt 1 view .LVU244
 247:lib/lufa/LUFA/Drivers/USB/Class/Common/HIDParser.c **** 					       &CurrStateTable->Attributes,
 1184               		.loc 1 247 6 view .LVU245
 1185 0592 8AE1      		ldi r24,lo8(26)
 1186 0594 F701      		movw r30,r14
 1187 0596 DE01      		movw r26,r28
 1188 0598 AF5B      		subi r26,-65
 1189 059a BF4F      		sbci r27,-1
 1190               		0:
 1191 059c 0190      		ld r0,Z+
 1192 059e 0D92      		st X+,r0
 1193 05a0 8A95      		dec r24
 1194 05a2 01F4      		brne 0b
 251:lib/lufa/LUFA/Drivers/USB/Class/Common/HIDParser.c **** 					NewReportItem.CollectionPath = CurrCollectionPath;
 1195               		.loc 1 251 6 view .LVU246
 251:lib/lufa/LUFA/Drivers/USB/Class/Common/HIDParser.c **** 					NewReportItem.CollectionPath = CurrCollectionPath;
 1196               		.loc 1 251 35 is_stmt 0 view .LVU247
 1197 05a4 9DAE      		std Y+61,r9
 1198 05a6 8CAE      		std Y+60,r8
 252:lib/lufa/LUFA/Drivers/USB/Class/Common/HIDParser.c **** 					NewReportItem.ReportID       = CurrStateTable->ReportID;
 1199               		.loc 1 252 6 is_stmt 1 view .LVU248
 252:lib/lufa/LUFA/Drivers/USB/Class/Common/HIDParser.c **** 					NewReportItem.ReportID       = CurrStateTable->ReportID;
 1200               		.loc 1 252 35 is_stmt 0 view .LVU249
 1201 05a8 E596      		adiw r28,115-62
 1202 05aa 4EAD      		ldd r20,Y+62
 1203 05ac 5FAD      		ldd r21,Y+63
 1204 05ae E597      		sbiw r28,115-62
 1205 05b0 2196      		adiw r28,63-62
 1206 05b2 5FAF      		std Y+63,r21
 1207 05b4 4EAF      		std Y+62,r20
 1208 05b6 2197      		sbiw r28,63-62
 253:lib/lufa/LUFA/Drivers/USB/Class/Common/HIDParser.c **** 
 1209               		.loc 1 253 6 is_stmt 1 view .LVU250
 253:lib/lufa/LUFA/Drivers/USB/Class/Common/HIDParser.c **** 
 1210               		.loc 1 253 35 is_stmt 0 view .LVU251
 1211 05b8 D701      		movw r26,r14
 1212 05ba 5B96      		adiw r26,27
 1213 05bc 8C91      		ld r24,X
 1214 05be 8EAF      		std Y+62,r24
 255:lib/lufa/LUFA/Drivers/USB/Class/Common/HIDParser.c **** 					{
 1215               		.loc 1 255 6 is_stmt 1 view .LVU252
 255:lib/lufa/LUFA/Drivers/USB/Class/Common/HIDParser.c **** 					{
 1216               		.loc 1 255 9 is_stmt 0 view .LVU253
 1217 05c0 0023      		tst r16
 1218 05c2 01F4      		brne .+2
 1219 05c4 00C0      		rjmp .L42
 257:lib/lufa/LUFA/Drivers/USB/Class/Common/HIDParser.c **** 
 1220               		.loc 1 257 7 is_stmt 1 view .LVU254
 257:lib/lufa/LUFA/Drivers/USB/Class/Common/HIDParser.c **** 
 1221               		.loc 1 257 44 is_stmt 0 view .LVU255
 1222 05c6 A596      		adiw r28,99-62
 1223 05c8 8EAD      		ldd r24,Y+62
 1224 05ca 9FAD      		ldd r25,Y+63
 1225 05cc A597      		sbiw r28,99-62
 1226 05ce 2696      		adiw r28,68-62
 1227 05d0 9FAF      		std Y+63,r25
 1228 05d2 8EAF      		std Y+62,r24
 1229 05d4 2697      		sbiw r28,68-62
 259:lib/lufa/LUFA/Drivers/USB/Class/Common/HIDParser.c **** 						  UsageList[i - 1] = UsageList[i];
 1230               		.loc 1 259 7 is_stmt 1 view .LVU256
 1231               	.LBB6:
 259:lib/lufa/LUFA/Drivers/USB/Class/Common/HIDParser.c **** 						  UsageList[i - 1] = UsageList[i];
 1232               		.loc 1 259 12 view .LVU257
 1233               	.LVL69:
 259:lib/lufa/LUFA/Drivers/USB/Class/Common/HIDParser.c **** 						  UsageList[i - 1] = UsageList[i];
 1234               		.loc 1 259 12 is_stmt 0 view .LVU258
 1235 05d6 FE01      		movw r30,r28
 1236 05d8 ED59      		subi r30,-99
 1237 05da FF4F      		sbci r31,-1
 259:lib/lufa/LUFA/Drivers/USB/Class/Common/HIDParser.c **** 						  UsageList[i - 1] = UsageList[i];
 1238               		.loc 1 259 20 view .LVU259
 1239 05dc 81E0      		ldi r24,lo8(1)
 1240               	.LVL70:
 1241               	.L43:
 259:lib/lufa/LUFA/Drivers/USB/Class/Common/HIDParser.c **** 						  UsageList[i - 1] = UsageList[i];
 1242               		.loc 1 259 27 is_stmt 1 discriminator 1 view .LVU260
 259:lib/lufa/LUFA/Drivers/USB/Class/Common/HIDParser.c **** 						  UsageList[i - 1] = UsageList[i];
 1243               		.loc 1 259 7 is_stmt 0 discriminator 1 view .LVU261
 1244 05de 0813      		cpse r16,r24
 1245 05e0 00C0      		rjmp .L44
 1246               	.LBE6:
 262:lib/lufa/LUFA/Drivers/USB/Class/Common/HIDParser.c **** 					}
 1247               		.loc 1 262 7 is_stmt 1 view .LVU262
 262:lib/lufa/LUFA/Drivers/USB/Class/Common/HIDParser.c **** 					}
 1248               		.loc 1 262 20 is_stmt 0 view .LVU263
 1249 05e2 0150      		subi r16,lo8(-(-1))
 1250               	.LVL71:
 1251               	.L45:
 269:lib/lufa/LUFA/Drivers/USB/Class/Common/HIDParser.c **** 
 1252               		.loc 1 269 6 is_stmt 1 view .LVU264
 271:lib/lufa/LUFA/Drivers/USB/Class/Common/HIDParser.c **** 					  NewReportItem.ItemType = HID_REPORT_ITEM_In;
 1253               		.loc 1 271 6 view .LVU265
 271:lib/lufa/LUFA/Drivers/USB/Class/Common/HIDParser.c **** 					  NewReportItem.ItemType = HID_REPORT_ITEM_In;
 1254               		.loc 1 271 9 is_stmt 0 view .LVU266
 1255 05e4 1038      		cpi r17,lo8(-128)
 1256 05e6 01F0      		breq .+2
 1257 05e8 00C0      		rjmp .L46
 272:lib/lufa/LUFA/Drivers/USB/Class/Common/HIDParser.c **** 					else if (ItemTypeTag == HID_RI_OUTPUT(0))
 1258               		.loc 1 272 8 is_stmt 1 view .LVU267
 272:lib/lufa/LUFA/Drivers/USB/Class/Common/HIDParser.c **** 					else if (ItemTypeTag == HID_RI_OUTPUT(0))
 1259               		.loc 1 272 31 is_stmt 0 view .LVU268
 1260 05ea 1BAE      		std Y+59,__zero_reg__
 1261               	.L47:
 278:lib/lufa/LUFA/Drivers/USB/Class/Common/HIDParser.c **** 
 1262               		.loc 1 278 6 is_stmt 1 view .LVU269
 278:lib/lufa/LUFA/Drivers/USB/Class/Common/HIDParser.c **** 
 1263               		.loc 1 278 78 is_stmt 0 view .LVU270
 1264 05ec EBAD      		ldd r30,Y+59
 1265 05ee F0E0      		ldi r31,0
 278:lib/lufa/LUFA/Drivers/USB/Class/Common/HIDParser.c **** 
 1266               		.loc 1 278 64 view .LVU271
 1267 05f0 EE0F      		lsl r30
 1268 05f2 FF1F      		rol r31
 1269 05f4 E996      		adiw r28,119-62
 1270 05f6 8EAD      		ldd r24,Y+62
 1271 05f8 9FAD      		ldd r25,Y+63
 1272 05fa E997      		sbiw r28,119-62
 1273 05fc E80F      		add r30,r24
 1274 05fe F91F      		adc r31,r25
 1275 0600 8181      		ldd r24,Z+1
 1276 0602 9281      		ldd r25,Z+2
 278:lib/lufa/LUFA/Drivers/USB/Class/Common/HIDParser.c **** 
 1277               		.loc 1 278 30 view .LVU272
 1278 0604 9AAF      		std Y+58,r25
 1279 0606 89AF      		std Y+57,r24
 280:lib/lufa/LUFA/Drivers/USB/Class/Common/HIDParser.c **** 
 1280               		.loc 1 280 6 is_stmt 1 view .LVU273
 280:lib/lufa/LUFA/Drivers/USB/Class/Common/HIDParser.c **** 
 1281               		.loc 1 280 92 is_stmt 0 view .LVU274
 1282 0608 D701      		movw r26,r14
 1283 060a 8C91      		ld r24,X
 280:lib/lufa/LUFA/Drivers/USB/Class/Common/HIDParser.c **** 
 1284               		.loc 1 280 63 view .LVU275
 1285 060c 2181      		ldd r18,Z+1
 1286 060e 3281      		ldd r19,Z+2
 1287 0610 820F      		add r24,r18
 1288 0612 932F      		mov r25,r19
 1289 0614 911D      		adc r25,__zero_reg__
 1290 0616 9283      		std Z+2,r25
 1291 0618 8183      		std Z+1,r24
 282:lib/lufa/LUFA/Drivers/USB/Class/Common/HIDParser.c **** 
 1292               		.loc 1 282 6 is_stmt 1 view .LVU276
 282:lib/lufa/LUFA/Drivers/USB/Class/Common/HIDParser.c **** 
 1293               		.loc 1 282 42 is_stmt 0 view .LVU277
 1294 061a EBAD      		ldd r30,Y+59
 1295 061c F0E0      		ldi r31,0
 1296 061e EE0F      		lsl r30
 1297 0620 FF1F      		rol r31
 1298 0622 E996      		adiw r28,119-62
 1299 0624 2EAD      		ldd r18,Y+62
 1300 0626 3FAD      		ldd r19,Y+63
 1301 0628 E997      		sbiw r28,119-62
 1302 062a E20F      		add r30,r18
 1303 062c F31F      		adc r31,r19
 1304 062e CF57      		subi r28,lo8(-129)
 1305 0630 DF4F      		sbci r29,hi8(-129)
 1306 0632 A881      		ld r26,Y
 1307 0634 B981      		ldd r27,Y+1
 1308 0636 C158      		subi r28,lo8(129)
 1309 0638 D040      		sbci r29,hi8(129)
 1310 063a 2D91      		ld r18,X+
 1311 063c 3C91      		ld r19,X
 1312 063e 8181      		ldd r24,Z+1
 1313 0640 9281      		ldd r25,Z+2
 1314 0642 8217      		cp r24,r18
 1315 0644 9307      		cpc r25,r19
 1316 0646 00F4      		brsh .L49
 1317 0648 C901      		movw r24,r18
 1318               	.L49:
 282:lib/lufa/LUFA/Drivers/USB/Class/Common/HIDParser.c **** 
 1319               		.loc 1 282 40 view .LVU278
 1320 064a CF57      		subi r28,lo8(-129)
 1321 064c DF4F      		sbci r29,hi8(-129)
 1322 064e E881      		ld r30,Y
 1323 0650 F981      		ldd r31,Y+1
 1324 0652 C158      		subi r28,lo8(129)
 1325 0654 D040      		sbci r29,hi8(129)
 1326 0656 9183      		std Z+1,r25
 1327 0658 8083      		st Z,r24
 284:lib/lufa/LUFA/Drivers/USB/Class/Common/HIDParser.c **** 					  return HID_PARSE_InsufficientReportItems;
 1328               		.loc 1 284 6 is_stmt 1 view .LVU279
 284:lib/lufa/LUFA/Drivers/USB/Class/Common/HIDParser.c **** 					  return HID_PARSE_InsufficientReportItems;
 1329               		.loc 1 284 20 is_stmt 0 view .LVU280
 1330 065a D601      		movw r26,r12
 1331 065c 8C91      		ld r24,X
 284:lib/lufa/LUFA/Drivers/USB/Class/Common/HIDParser.c **** 					  return HID_PARSE_InsufficientReportItems;
 1332               		.loc 1 284 9 view .LVU281
 1333 065e 8431      		cpi r24,lo8(20)
 1334 0660 01F0      		breq .+2
 1335 0662 00C0      		rjmp .L50
 285:lib/lufa/LUFA/Drivers/USB/Class/Common/HIDParser.c **** 
 1336               		.loc 1 285 8 is_stmt 1 view .LVU282
 285:lib/lufa/LUFA/Drivers/USB/Class/Common/HIDParser.c **** 
 1337               		.loc 1 285 15 is_stmt 0 view .LVU283
 1338 0664 83E0      		ldi r24,lo8(3)
 1339               	.LVL72:
 1340               	.L1:
 1341               	/* epilogue start */
 285:lib/lufa/LUFA/Drivers/USB/Class/Common/HIDParser.c **** 
 1342               		.loc 1 285 15 view .LVU284
 1343               	.LBE9:
 1344               	.LBE18:
 1345               	.LBE20:
 310:lib/lufa/LUFA/Drivers/USB/Class/Common/HIDParser.c **** 
 311:lib/lufa/LUFA/Drivers/USB/Class/Common/HIDParser.c **** 	return HID_PARSE_Successful;
 312:lib/lufa/LUFA/Drivers/USB/Class/Common/HIDParser.c **** }
 1346               		.loc 1 312 1 view .LVU285
 1347 0666 C657      		subi r28,118
 1348 0668 DF4F      		sbci r29,-1
 1349 066a 0FB6      		in __tmp_reg__,__SREG__
 1350 066c F894      		cli
 1351 066e DEBF      		out __SP_H__,r29
 1352 0670 0FBE      		out __SREG__,__tmp_reg__
 1353 0672 CDBF      		out __SP_L__,r28
 1354 0674 DF91      		pop r29
 1355 0676 CF91      		pop r28
 1356 0678 1F91      		pop r17
 1357 067a 0F91      		pop r16
 1358               	.LVL73:
 1359               		.loc 1 312 1 view .LVU286
 1360 067c FF90      		pop r15
 1361 067e EF90      		pop r14
 1362               	.LVL74:
 1363               		.loc 1 312 1 view .LVU287
 1364 0680 DF90      		pop r13
 1365 0682 CF90      		pop r12
 1366               	.LVL75:
 1367               		.loc 1 312 1 view .LVU288
 1368 0684 BF90      		pop r11
 1369 0686 AF90      		pop r10
 1370 0688 9F90      		pop r9
 1371 068a 8F90      		pop r8
 1372 068c 7F90      		pop r7
 1373 068e 6F90      		pop r6
 1374 0690 5F90      		pop r5
 1375 0692 4F90      		pop r4
 1376               	.LVL76:
 1377               		.loc 1 312 1 view .LVU289
 1378 0694 3F90      		pop r3
 1379 0696 2F90      		pop r2
 1380               	.LVL77:
 1381               		.loc 1 312 1 view .LVU290
 1382 0698 0895      		ret
 1383               	.LVL78:
 1384               	.L59:
 1385               	.LBB21:
 189:lib/lufa/LUFA/Drivers/USB/Class/Common/HIDParser.c **** 				break;
 1386               		.loc 1 189 25 view .LVU291
 1387 069a EE96      		adiw r28,122-60
 1388 069c 8CAE      		std Y+60,r8
 1389 069e 9DAE      		std Y+61,r9
 1390 06a0 AEAE      		std Y+62,r10
 1391 06a2 BFAE      		std Y+63,r11
 1392 06a4 EE97      		sbiw r28,122-60
 1393               	.LVL79:
 189:lib/lufa/LUFA/Drivers/USB/Class/Common/HIDParser.c **** 				break;
 1394               		.loc 1 189 25 view .LVU292
 1395 06a6 00C0      		rjmp .L15
 1396               	.LVL80:
 1397               	.L63:
  91:lib/lufa/LUFA/Drivers/USB/Class/Common/HIDParser.c **** 
 1398               		.loc 1 91 14 view .LVU293
 1399 06a8 81E0      		ldi r24,lo8(1)
 1400 06aa 00C0      		rjmp .L1
 1401               	.L64:
 102:lib/lufa/LUFA/Drivers/USB/Class/Common/HIDParser.c **** 
 1402               		.loc 1 102 14 view .LVU294
 1403 06ac 82E0      		ldi r24,lo8(2)
 1404 06ae 00C0      		rjmp .L1
 1405               	.LVL81:
 1406               	.L66:
 165:lib/lufa/LUFA/Drivers/USB/Class/Common/HIDParser.c **** 
 1407               		.loc 1 165 16 view .LVU295
 1408 06b0 87E0      		ldi r24,lo8(7)
 1409 06b2 00C0      		rjmp .L1
 1410               	.LVL82:
 1411               	.L67:
 179:lib/lufa/LUFA/Drivers/USB/Class/Common/HIDParser.c **** 
 1412               		.loc 1 179 14 view .LVU296
 1413 06b4 86E0      		ldi r24,lo8(6)
 1414 06b6 00C0      		rjmp .L1
 1415               	.LVL83:
 1416               	.L68:
 1417               	.LBB19:
 206:lib/lufa/LUFA/Drivers/USB/Class/Common/HIDParser.c **** 
 1418               		.loc 1 206 16 view .LVU297
 1419 06b8 85E0      		ldi r24,lo8(5)
 1420 06ba 00C0      		rjmp .L1
 1421               	.LVL84:
 1422               	.L69:
 206:lib/lufa/LUFA/Drivers/USB/Class/Common/HIDParser.c **** 
 1423               		.loc 1 206 16 view .LVU298
 1424               	.LBE19:
 235:lib/lufa/LUFA/Drivers/USB/Class/Common/HIDParser.c **** 
 1425               		.loc 1 235 14 view .LVU299
 1426 06bc 84E0      		ldi r24,lo8(4)
 1427 06be 00C0      		rjmp .L1
 1428               	.LVL85:
 1429               	.L70:
 235:lib/lufa/LUFA/Drivers/USB/Class/Common/HIDParser.c **** 
 1430               		.loc 1 235 14 view .LVU300
 1431               	.LBE21:
 311:lib/lufa/LUFA/Drivers/USB/Class/Common/HIDParser.c **** }
 1432               		.loc 1 311 9 view .LVU301
 1433 06c0 80E0      		ldi r24,0
 1434 06c2 00C0      		rjmp .L1
 1435               		.cfi_endproc
 1436               	.LFE16:
 1438               		.section	.text.USB_GetHIDReportItemInfo,"ax",@progbits
 1439               	.global	USB_GetHIDReportItemInfo
 1441               	USB_GetHIDReportItemInfo:
 1442               	.LVL86:
 1443               	.LFB17:
 313:lib/lufa/LUFA/Drivers/USB/Class/Common/HIDParser.c **** 
 314:lib/lufa/LUFA/Drivers/USB/Class/Common/HIDParser.c **** bool USB_GetHIDReportItemInfo(const uint8_t* ReportData,
 315:lib/lufa/LUFA/Drivers/USB/Class/Common/HIDParser.c ****                               HID_ReportItem_t* const ReportItem)
 316:lib/lufa/LUFA/Drivers/USB/Class/Common/HIDParser.c **** {
 1444               		.loc 1 316 1 is_stmt 1 view -0
 1445               		.cfi_startproc
 1446               		.loc 1 316 1 is_stmt 0 view .LVU303
 1447 0000 CF92      		push r12
 1448               	.LCFI20:
 1449               		.cfi_def_cfa_offset 3
 1450               		.cfi_offset 12, -2
 1451 0002 DF92      		push r13
 1452               	.LCFI21:
 1453               		.cfi_def_cfa_offset 4
 1454               		.cfi_offset 13, -3
 1455 0004 EF92      		push r14
 1456               	.LCFI22:
 1457               		.cfi_def_cfa_offset 5
 1458               		.cfi_offset 14, -4
 1459 0006 FF92      		push r15
 1460               	.LCFI23:
 1461               		.cfi_def_cfa_offset 6
 1462               		.cfi_offset 15, -5
 1463 0008 CF93      		push r28
 1464               	.LCFI24:
 1465               		.cfi_def_cfa_offset 7
 1466               		.cfi_offset 28, -6
 1467 000a DF93      		push r29
 1468               	.LCFI25:
 1469               		.cfi_def_cfa_offset 8
 1470               		.cfi_offset 29, -7
 1471               	/* prologue: function */
 1472               	/* frame size = 0 */
 1473               	/* stack size = 6 */
 1474               	.L__stack_usage = 6
 1475 000c DC01      		movw r26,r24
 1476 000e FB01      		movw r30,r22
 317:lib/lufa/LUFA/Drivers/USB/Class/Common/HIDParser.c **** 	if (ReportItem == NULL)
 1477               		.loc 1 317 2 is_stmt 1 view .LVU304
 1478               		.loc 1 317 5 is_stmt 0 view .LVU305
 1479 0010 3097      		sbiw r30,0
 1480 0012 01F4      		brne .+2
 1481 0014 00C0      		rjmp .L84
 318:lib/lufa/LUFA/Drivers/USB/Class/Common/HIDParser.c **** 	  return false;
 319:lib/lufa/LUFA/Drivers/USB/Class/Common/HIDParser.c **** 
 320:lib/lufa/LUFA/Drivers/USB/Class/Common/HIDParser.c **** 	uint16_t DataBitsRem  = ReportItem->Attributes.BitSize;
 1482               		.loc 1 320 2 is_stmt 1 view .LVU306
 1483               		.loc 1 320 11 is_stmt 0 view .LVU307
 1484 0016 2085      		ldd r18,Z+8
 1485 0018 30E0      		ldi r19,0
 1486               	.LVL87:
 321:lib/lufa/LUFA/Drivers/USB/Class/Common/HIDParser.c **** 	uint16_t CurrentBit   = ReportItem->BitOffset;
 1487               		.loc 1 321 2 is_stmt 1 view .LVU308
 322:lib/lufa/LUFA/Drivers/USB/Class/Common/HIDParser.c **** 	uint32_t BitMask      = (1 << 0);
 1488               		.loc 1 322 2 view .LVU309
 323:lib/lufa/LUFA/Drivers/USB/Class/Common/HIDParser.c **** 
 324:lib/lufa/LUFA/Drivers/USB/Class/Common/HIDParser.c **** 	if (ReportItem->ReportID)
 1489               		.loc 1 324 2 view .LVU310
 1490               		.loc 1 324 16 is_stmt 0 view .LVU311
 1491 001a 8581      		ldd r24,Z+5
 1492               	.LVL88:
 1493               		.loc 1 324 5 view .LVU312
 1494 001c 8823      		tst r24
 1495 001e 01F0      		breq .L79
 325:lib/lufa/LUFA/Drivers/USB/Class/Common/HIDParser.c **** 	{
 326:lib/lufa/LUFA/Drivers/USB/Class/Common/HIDParser.c **** 		if (ReportItem->ReportID != ReportData[0])
 1496               		.loc 1 326 3 is_stmt 1 view .LVU313
 1497               		.loc 1 326 6 is_stmt 0 view .LVU314
 1498 0020 9C91      		ld r25,X
 1499 0022 8913      		cpse r24,r25
 1500 0024 00C0      		rjmp .L84
 327:lib/lufa/LUFA/Drivers/USB/Class/Common/HIDParser.c **** 		  return false;
 328:lib/lufa/LUFA/Drivers/USB/Class/Common/HIDParser.c **** 
 329:lib/lufa/LUFA/Drivers/USB/Class/Common/HIDParser.c **** 		ReportData++;
 1501               		.loc 1 329 3 is_stmt 1 view .LVU315
 1502               		.loc 1 329 13 is_stmt 0 view .LVU316
 1503 0026 1196      		adiw r26,1
 1504               	.LVL89:
 1505               	.L79:
 321:lib/lufa/LUFA/Drivers/USB/Class/Common/HIDParser.c **** 	uint32_t BitMask      = (1 << 0);
 1506               		.loc 1 321 11 view .LVU317
 1507 0028 8081      		ld r24,Z
 1508 002a 9181      		ldd r25,Z+1
 330:lib/lufa/LUFA/Drivers/USB/Class/Common/HIDParser.c **** 	}
 331:lib/lufa/LUFA/Drivers/USB/Class/Common/HIDParser.c **** 
 332:lib/lufa/LUFA/Drivers/USB/Class/Common/HIDParser.c **** 	ReportItem->PreviousValue = ReportItem->Value;
 1509               		.loc 1 332 2 is_stmt 1 view .LVU318
 1510               		.loc 1 332 28 is_stmt 0 view .LVU319
 1511 002c 42A1      		ldd r20,Z+34
 1512 002e 53A1      		ldd r21,Z+35
 1513 0030 64A1      		ldd r22,Z+36
 1514 0032 75A1      		ldd r23,Z+37
 1515 0034 46A3      		std Z+38,r20
 1516 0036 57A3      		std Z+39,r21
 1517 0038 60A7      		std Z+40,r22
 1518 003a 71A7      		std Z+41,r23
 333:lib/lufa/LUFA/Drivers/USB/Class/Common/HIDParser.c **** 	ReportItem->Value = 0;
 1519               		.loc 1 333 2 is_stmt 1 view .LVU320
 1520               		.loc 1 333 20 is_stmt 0 view .LVU321
 1521 003c 12A2      		std Z+34,__zero_reg__
 1522 003e 13A2      		std Z+35,__zero_reg__
 1523 0040 14A2      		std Z+36,__zero_reg__
 1524 0042 15A2      		std Z+37,__zero_reg__
 334:lib/lufa/LUFA/Drivers/USB/Class/Common/HIDParser.c **** 
 335:lib/lufa/LUFA/Drivers/USB/Class/Common/HIDParser.c **** 	while (DataBitsRem--)
 1525               		.loc 1 335 2 is_stmt 1 view .LVU322
 1526 0044 280F      		add r18,r24
 1527 0046 391F      		adc r19,r25
 1528               	.LVL90:
 322:lib/lufa/LUFA/Drivers/USB/Class/Common/HIDParser.c **** 
 1529               		.loc 1 322 11 is_stmt 0 view .LVU323
 1530 0048 C12C      		mov r12,__zero_reg__
 1531 004a D12C      		mov r13,__zero_reg__
 1532 004c 7601      		movw r14,r12
 1533 004e C394      		inc r12
 1534               	.LVL91:
 1535               	.L80:
 1536               		.loc 1 335 8 is_stmt 1 view .LVU324
 1537               		.loc 1 335 8 is_stmt 0 view .LVU325
 1538 0050 8217      		cp r24,r18
 1539 0052 9307      		cpc r25,r19
 1540 0054 01F4      		brne .L82
 336:lib/lufa/LUFA/Drivers/USB/Class/Common/HIDParser.c **** 	{
 337:lib/lufa/LUFA/Drivers/USB/Class/Common/HIDParser.c **** 		if (ReportData[CurrentBit / 8] & (1 << (CurrentBit % 8)))
 338:lib/lufa/LUFA/Drivers/USB/Class/Common/HIDParser.c **** 		  ReportItem->Value |= BitMask;
 339:lib/lufa/LUFA/Drivers/USB/Class/Common/HIDParser.c **** 
 340:lib/lufa/LUFA/Drivers/USB/Class/Common/HIDParser.c **** 		CurrentBit++;
 341:lib/lufa/LUFA/Drivers/USB/Class/Common/HIDParser.c **** 		BitMask <<= 1;
 342:lib/lufa/LUFA/Drivers/USB/Class/Common/HIDParser.c **** 	}
 343:lib/lufa/LUFA/Drivers/USB/Class/Common/HIDParser.c **** 
 344:lib/lufa/LUFA/Drivers/USB/Class/Common/HIDParser.c **** 	return true;
 1541               		.loc 1 344 9 view .LVU326
 1542 0056 81E0      		ldi r24,lo8(1)
 1543               	.LVL92:
 1544               	.L77:
 1545               	/* epilogue start */
 345:lib/lufa/LUFA/Drivers/USB/Class/Common/HIDParser.c **** }
 1546               		.loc 1 345 1 view .LVU327
 1547 0058 DF91      		pop r29
 1548 005a CF91      		pop r28
 1549 005c FF90      		pop r15
 1550 005e EF90      		pop r14
 1551 0060 DF90      		pop r13
 1552 0062 CF90      		pop r12
 1553 0064 0895      		ret
 1554               	.LVL93:
 1555               	.L82:
 337:lib/lufa/LUFA/Drivers/USB/Class/Common/HIDParser.c **** 		  ReportItem->Value |= BitMask;
 1556               		.loc 1 337 3 is_stmt 1 view .LVU328
 337:lib/lufa/LUFA/Drivers/USB/Class/Common/HIDParser.c **** 		  ReportItem->Value |= BitMask;
 1557               		.loc 1 337 29 is_stmt 0 view .LVU329
 1558 0066 EC01      		movw r28,r24
 1559 0068 53E0      		ldi r21,3
 1560               		1:
 1561 006a D695      		lsr r29
 1562 006c C795      		ror r28
 1563 006e 5A95      		dec r21
 1564 0070 01F4      		brne 1b
 337:lib/lufa/LUFA/Drivers/USB/Class/Common/HIDParser.c **** 		  ReportItem->Value |= BitMask;
 1565               		.loc 1 337 17 view .LVU330
 1566 0072 CA0F      		add r28,r26
 1567 0074 DB1F      		adc r29,r27
 1568 0076 4881      		ld r20,Y
 1569 0078 50E0      		ldi r21,0
 337:lib/lufa/LUFA/Drivers/USB/Class/Common/HIDParser.c **** 		  ReportItem->Value |= BitMask;
 1570               		.loc 1 337 54 view .LVU331
 1571 007a BC01      		movw r22,r24
 1572 007c 6770      		andi r22,7
 1573 007e 7727      		clr r23
 337:lib/lufa/LUFA/Drivers/USB/Class/Common/HIDParser.c **** 		  ReportItem->Value |= BitMask;
 1574               		.loc 1 337 7 view .LVU332
 1575 0080 00C0      		rjmp 2f
 1576               		1:
 1577 0082 5595      		asr r21
 1578 0084 4795      		ror r20
 1579               		2:
 1580 0086 6A95      		dec r22
 1581 0088 02F4      		brpl 1b
 337:lib/lufa/LUFA/Drivers/USB/Class/Common/HIDParser.c **** 		  ReportItem->Value |= BitMask;
 1582               		.loc 1 337 6 view .LVU333
 1583 008a 40FF      		sbrs r20,0
 1584 008c 00C0      		rjmp .L81
 338:lib/lufa/LUFA/Drivers/USB/Class/Common/HIDParser.c **** 
 1585               		.loc 1 338 5 is_stmt 1 view .LVU334
 338:lib/lufa/LUFA/Drivers/USB/Class/Common/HIDParser.c **** 
 1586               		.loc 1 338 23 is_stmt 0 view .LVU335
 1587 008e 42A1      		ldd r20,Z+34
 1588 0090 53A1      		ldd r21,Z+35
 1589 0092 64A1      		ldd r22,Z+36
 1590 0094 75A1      		ldd r23,Z+37
 1591 0096 4C29      		or r20,r12
 1592 0098 5D29      		or r21,r13
 1593 009a 6E29      		or r22,r14
 1594 009c 7F29      		or r23,r15
 1595 009e 42A3      		std Z+34,r20
 1596 00a0 53A3      		std Z+35,r21
 1597 00a2 64A3      		std Z+36,r22
 1598 00a4 75A3      		std Z+37,r23
 1599               	.L81:
 340:lib/lufa/LUFA/Drivers/USB/Class/Common/HIDParser.c **** 		BitMask <<= 1;
 1600               		.loc 1 340 3 is_stmt 1 view .LVU336
 340:lib/lufa/LUFA/Drivers/USB/Class/Common/HIDParser.c **** 		BitMask <<= 1;
 1601               		.loc 1 340 13 is_stmt 0 view .LVU337
 1602 00a6 0196      		adiw r24,1
 1603               	.LVL94:
 341:lib/lufa/LUFA/Drivers/USB/Class/Common/HIDParser.c **** 	}
 1604               		.loc 1 341 3 is_stmt 1 view .LVU338
 341:lib/lufa/LUFA/Drivers/USB/Class/Common/HIDParser.c **** 	}
 1605               		.loc 1 341 11 is_stmt 0 view .LVU339
 1606 00a8 CC0C      		lsl r12
 1607 00aa DD1C      		rol r13
 1608 00ac EE1C      		rol r14
 1609 00ae FF1C      		rol r15
 1610               	.LVL95:
 341:lib/lufa/LUFA/Drivers/USB/Class/Common/HIDParser.c **** 	}
 1611               		.loc 1 341 11 view .LVU340
 1612 00b0 00C0      		rjmp .L80
 1613               	.LVL96:
 1614               	.L84:
 318:lib/lufa/LUFA/Drivers/USB/Class/Common/HIDParser.c **** 
 1615               		.loc 1 318 11 view .LVU341
 1616 00b2 80E0      		ldi r24,0
 1617 00b4 00C0      		rjmp .L77
 1618               		.cfi_endproc
 1619               	.LFE17:
 1621               		.section	.text.USB_SetHIDReportItemInfo,"ax",@progbits
 1622               	.global	USB_SetHIDReportItemInfo
 1624               	USB_SetHIDReportItemInfo:
 1625               	.LVL97:
 1626               	.LFB18:
 346:lib/lufa/LUFA/Drivers/USB/Class/Common/HIDParser.c **** 
 347:lib/lufa/LUFA/Drivers/USB/Class/Common/HIDParser.c **** void USB_SetHIDReportItemInfo(uint8_t* ReportData,
 348:lib/lufa/LUFA/Drivers/USB/Class/Common/HIDParser.c ****                               HID_ReportItem_t* const ReportItem)
 349:lib/lufa/LUFA/Drivers/USB/Class/Common/HIDParser.c **** {
 1627               		.loc 1 349 1 is_stmt 1 view -0
 1628               		.cfi_startproc
 1629               		.loc 1 349 1 is_stmt 0 view .LVU343
 1630 0000 8F92      		push r8
 1631               	.LCFI26:
 1632               		.cfi_def_cfa_offset 3
 1633               		.cfi_offset 8, -2
 1634 0002 9F92      		push r9
 1635               	.LCFI27:
 1636               		.cfi_def_cfa_offset 4
 1637               		.cfi_offset 9, -3
 1638 0004 AF92      		push r10
 1639               	.LCFI28:
 1640               		.cfi_def_cfa_offset 5
 1641               		.cfi_offset 10, -4
 1642 0006 BF92      		push r11
 1643               	.LCFI29:
 1644               		.cfi_def_cfa_offset 6
 1645               		.cfi_offset 11, -5
 1646 0008 EF92      		push r14
 1647               	.LCFI30:
 1648               		.cfi_def_cfa_offset 7
 1649               		.cfi_offset 14, -6
 1650 000a FF92      		push r15
 1651               	.LCFI31:
 1652               		.cfi_def_cfa_offset 8
 1653               		.cfi_offset 15, -7
 1654 000c 0F93      		push r16
 1655               	.LCFI32:
 1656               		.cfi_def_cfa_offset 9
 1657               		.cfi_offset 16, -8
 1658 000e 1F93      		push r17
 1659               	.LCFI33:
 1660               		.cfi_def_cfa_offset 10
 1661               		.cfi_offset 17, -9
 1662 0010 CF93      		push r28
 1663               	.LCFI34:
 1664               		.cfi_def_cfa_offset 11
 1665               		.cfi_offset 28, -10
 1666 0012 DF93      		push r29
 1667               	.LCFI35:
 1668               		.cfi_def_cfa_offset 12
 1669               		.cfi_offset 29, -11
 1670               	/* prologue: function */
 1671               	/* frame size = 0 */
 1672               	/* stack size = 10 */
 1673               	.L__stack_usage = 10
 1674 0014 DC01      		movw r26,r24
 1675 0016 FB01      		movw r30,r22
 350:lib/lufa/LUFA/Drivers/USB/Class/Common/HIDParser.c **** 	if (ReportItem == NULL)
 1676               		.loc 1 350 2 is_stmt 1 view .LVU344
 1677               		.loc 1 350 5 is_stmt 0 view .LVU345
 1678 0018 3097      		sbiw r30,0
 1679 001a 01F0      		breq .L91
 351:lib/lufa/LUFA/Drivers/USB/Class/Common/HIDParser.c **** 	  return;
 352:lib/lufa/LUFA/Drivers/USB/Class/Common/HIDParser.c **** 
 353:lib/lufa/LUFA/Drivers/USB/Class/Common/HIDParser.c **** 	uint16_t DataBitsRem  = ReportItem->Attributes.BitSize;
 1680               		.loc 1 353 2 is_stmt 1 view .LVU346
 1681               		.loc 1 353 11 is_stmt 0 view .LVU347
 1682 001c 2085      		ldd r18,Z+8
 1683 001e 30E0      		ldi r19,0
 1684               	.LVL98:
 354:lib/lufa/LUFA/Drivers/USB/Class/Common/HIDParser.c **** 	uint16_t CurrentBit   = ReportItem->BitOffset;
 1685               		.loc 1 354 2 is_stmt 1 view .LVU348
 1686               		.loc 1 354 11 is_stmt 0 view .LVU349
 1687 0020 8081      		ld r24,Z
 1688 0022 9181      		ldd r25,Z+1
 1689               	.LVL99:
 355:lib/lufa/LUFA/Drivers/USB/Class/Common/HIDParser.c **** 	uint32_t BitMask      = (1 << 0);
 1690               		.loc 1 355 2 is_stmt 1 view .LVU350
 356:lib/lufa/LUFA/Drivers/USB/Class/Common/HIDParser.c **** 
 357:lib/lufa/LUFA/Drivers/USB/Class/Common/HIDParser.c **** 	if (ReportItem->ReportID)
 1691               		.loc 1 357 2 view .LVU351
 1692               		.loc 1 357 16 is_stmt 0 view .LVU352
 1693 0024 4581      		ldd r20,Z+5
 1694               		.loc 1 357 5 view .LVU353
 1695 0026 4111      		cpse r20,__zero_reg__
 358:lib/lufa/LUFA/Drivers/USB/Class/Common/HIDParser.c **** 	{
 359:lib/lufa/LUFA/Drivers/USB/Class/Common/HIDParser.c **** 		ReportData[0] = ReportItem->ReportID;
 1696               		.loc 1 359 3 is_stmt 1 view .LVU354
 1697               		.loc 1 359 17 is_stmt 0 view .LVU355
 1698 0028 4D93      		st X+,r20
 1699               	.LVL100:
 360:lib/lufa/LUFA/Drivers/USB/Class/Common/HIDParser.c **** 		ReportData++;
 1700               		.loc 1 360 3 is_stmt 1 view .LVU356
 1701               	.L93:
 361:lib/lufa/LUFA/Drivers/USB/Class/Common/HIDParser.c **** 	}
 362:lib/lufa/LUFA/Drivers/USB/Class/Common/HIDParser.c **** 
 363:lib/lufa/LUFA/Drivers/USB/Class/Common/HIDParser.c **** 	ReportItem->PreviousValue = ReportItem->Value;
 1702               		.loc 1 363 2 view .LVU357
 1703               		.loc 1 363 28 is_stmt 0 view .LVU358
 1704 002a 42A1      		ldd r20,Z+34
 1705 002c 53A1      		ldd r21,Z+35
 1706 002e 64A1      		ldd r22,Z+36
 1707 0030 75A1      		ldd r23,Z+37
 1708 0032 46A3      		std Z+38,r20
 1709 0034 57A3      		std Z+39,r21
 1710 0036 60A7      		std Z+40,r22
 1711 0038 71A7      		std Z+41,r23
 364:lib/lufa/LUFA/Drivers/USB/Class/Common/HIDParser.c **** 
 365:lib/lufa/LUFA/Drivers/USB/Class/Common/HIDParser.c **** 	while (DataBitsRem--)
 1712               		.loc 1 365 2 is_stmt 1 view .LVU359
 1713 003a 280F      		add r18,r24
 1714 003c 391F      		adc r19,r25
 1715               	.LVL101:
 355:lib/lufa/LUFA/Drivers/USB/Class/Common/HIDParser.c **** 
 1716               		.loc 1 355 11 is_stmt 0 view .LVU360
 1717 003e 41E0      		ldi r20,lo8(1)
 1718 0040 50E0      		ldi r21,0
 1719 0042 60E0      		ldi r22,0
 1720 0044 70E0      		ldi r23,0
 366:lib/lufa/LUFA/Drivers/USB/Class/Common/HIDParser.c **** 	{
 367:lib/lufa/LUFA/Drivers/USB/Class/Common/HIDParser.c **** 		if (ReportItem->Value & BitMask)
 368:lib/lufa/LUFA/Drivers/USB/Class/Common/HIDParser.c **** 		  ReportData[CurrentBit / 8] |= (1 << (CurrentBit % 8));
 1721               		.loc 1 368 38 view .LVU361
 1722 0046 EE24      		clr r14
 1723 0048 E394      		inc r14
 1724 004a F12C      		mov r15,__zero_reg__
 1725               	.LVL102:
 1726               	.L94:
 365:lib/lufa/LUFA/Drivers/USB/Class/Common/HIDParser.c **** 	{
 1727               		.loc 1 365 8 is_stmt 1 view .LVU362
 365:lib/lufa/LUFA/Drivers/USB/Class/Common/HIDParser.c **** 	{
 1728               		.loc 1 365 8 is_stmt 0 view .LVU363
 1729 004c 8217      		cp r24,r18
 1730 004e 9307      		cpc r25,r19
 1731 0050 01F4      		brne .L96
 1732               	.LVL103:
 1733               	.L91:
 1734               	/* epilogue start */
 369:lib/lufa/LUFA/Drivers/USB/Class/Common/HIDParser.c **** 
 370:lib/lufa/LUFA/Drivers/USB/Class/Common/HIDParser.c **** 		CurrentBit++;
 371:lib/lufa/LUFA/Drivers/USB/Class/Common/HIDParser.c **** 		BitMask <<= 1;
 372:lib/lufa/LUFA/Drivers/USB/Class/Common/HIDParser.c **** 	}
 373:lib/lufa/LUFA/Drivers/USB/Class/Common/HIDParser.c **** }
 1735               		.loc 1 373 1 view .LVU364
 1736 0052 DF91      		pop r29
 1737 0054 CF91      		pop r28
 1738 0056 1F91      		pop r17
 1739 0058 0F91      		pop r16
 1740 005a FF90      		pop r15
 1741 005c EF90      		pop r14
 1742 005e BF90      		pop r11
 1743 0060 AF90      		pop r10
 1744 0062 9F90      		pop r9
 1745 0064 8F90      		pop r8
 1746 0066 0895      		ret
 1747               	.LVL104:
 1748               	.L96:
 367:lib/lufa/LUFA/Drivers/USB/Class/Common/HIDParser.c **** 		  ReportData[CurrentBit / 8] |= (1 << (CurrentBit % 8));
 1749               		.loc 1 367 3 is_stmt 1 view .LVU365
 367:lib/lufa/LUFA/Drivers/USB/Class/Common/HIDParser.c **** 		  ReportData[CurrentBit / 8] |= (1 << (CurrentBit % 8));
 1750               		.loc 1 367 25 is_stmt 0 view .LVU366
 1751 0068 82A0      		ldd r8,Z+34
 1752 006a 93A0      		ldd r9,Z+35
 1753 006c A4A0      		ldd r10,Z+36
 1754 006e B5A0      		ldd r11,Z+37
 1755 0070 8422      		and r8,r20
 1756 0072 9522      		and r9,r21
 1757 0074 A622      		and r10,r22
 1758 0076 B722      		and r11,r23
 367:lib/lufa/LUFA/Drivers/USB/Class/Common/HIDParser.c **** 		  ReportData[CurrentBit / 8] |= (1 << (CurrentBit % 8));
 1759               		.loc 1 367 6 view .LVU367
 1760 0078 8928      		or r8,r9
 1761 007a 8A28      		or r8,r10
 1762 007c 8B28      		or r8,r11
 1763 007e 01F0      		breq .L95
 368:lib/lufa/LUFA/Drivers/USB/Class/Common/HIDParser.c **** 
 1764               		.loc 1 368 5 is_stmt 1 view .LVU368
 368:lib/lufa/LUFA/Drivers/USB/Class/Common/HIDParser.c **** 
 1765               		.loc 1 368 27 is_stmt 0 view .LVU369
 1766 0080 EC01      		movw r28,r24
 1767 0082 13E0      		ldi r17,3
 1768               		1:
 1769 0084 D695      		lsr r29
 1770 0086 C795      		ror r28
 1771 0088 1A95      		dec r17
 1772 008a 01F4      		brne 1b
 368:lib/lufa/LUFA/Drivers/USB/Class/Common/HIDParser.c **** 
 1773               		.loc 1 368 32 view .LVU370
 1774 008c CA0F      		add r28,r26
 1775 008e DB1F      		adc r29,r27
 368:lib/lufa/LUFA/Drivers/USB/Class/Common/HIDParser.c **** 
 1776               		.loc 1 368 53 view .LVU371
 1777 0090 5C01      		movw r10,r24
 1778 0092 07E0      		ldi r16,7
 1779 0094 A022      		and r10,r16
 1780 0096 BB24      		clr r11
 368:lib/lufa/LUFA/Drivers/USB/Class/Common/HIDParser.c **** 
 1781               		.loc 1 368 38 view .LVU372
 1782 0098 8701      		movw r16,r14
 1783 009a 00C0      		rjmp 2f
 1784               		1:
 1785 009c 000F      		lsl r16
 1786 009e 111F      		rol r17
 1787               		2:
 1788 00a0 AA94      		dec r10
 1789 00a2 02F4      		brpl 1b
 1790 00a4 5801      		movw r10,r16
 368:lib/lufa/LUFA/Drivers/USB/Class/Common/HIDParser.c **** 
 1791               		.loc 1 368 32 view .LVU373
 1792 00a6 1881      		ld r17,Y
 1793 00a8 1A29      		or r17,r10
 1794 00aa 1883      		st Y,r17
 1795               	.L95:
 370:lib/lufa/LUFA/Drivers/USB/Class/Common/HIDParser.c **** 		BitMask <<= 1;
 1796               		.loc 1 370 3 is_stmt 1 view .LVU374
 370:lib/lufa/LUFA/Drivers/USB/Class/Common/HIDParser.c **** 		BitMask <<= 1;
 1797               		.loc 1 370 13 is_stmt 0 view .LVU375
 1798 00ac 0196      		adiw r24,1
 1799               	.LVL105:
 371:lib/lufa/LUFA/Drivers/USB/Class/Common/HIDParser.c **** 	}
 1800               		.loc 1 371 3 is_stmt 1 view .LVU376
 371:lib/lufa/LUFA/Drivers/USB/Class/Common/HIDParser.c **** 	}
 1801               		.loc 1 371 11 is_stmt 0 view .LVU377
 1802 00ae 440F      		lsl r20
 1803 00b0 551F      		rol r21
 1804 00b2 661F      		rol r22
 1805 00b4 771F      		rol r23
 1806               	.LVL106:
 371:lib/lufa/LUFA/Drivers/USB/Class/Common/HIDParser.c **** 	}
 1807               		.loc 1 371 11 view .LVU378
 1808 00b6 00C0      		rjmp .L94
 1809               		.cfi_endproc
 1810               	.LFE18:
 1812               		.section	.text.USB_GetHIDReportSize,"ax",@progbits
 1813               	.global	USB_GetHIDReportSize
 1815               	USB_GetHIDReportSize:
 1816               	.LVL107:
 1817               	.LFB19:
 374:lib/lufa/LUFA/Drivers/USB/Class/Common/HIDParser.c **** 
 375:lib/lufa/LUFA/Drivers/USB/Class/Common/HIDParser.c **** uint16_t USB_GetHIDReportSize(HID_ReportInfo_t* const ParserData,
 376:lib/lufa/LUFA/Drivers/USB/Class/Common/HIDParser.c ****                               const uint8_t ReportID,
 377:lib/lufa/LUFA/Drivers/USB/Class/Common/HIDParser.c ****                               const uint8_t ReportType)
 378:lib/lufa/LUFA/Drivers/USB/Class/Common/HIDParser.c **** {
 1818               		.loc 1 378 1 is_stmt 1 view -0
 1819               		.cfi_startproc
 1820               	/* prologue: function */
 1821               	/* frame size = 0 */
 1822               	/* stack size = 0 */
 1823               	.L__stack_usage = 0
 1824               		.loc 1 378 1 is_stmt 0 view .LVU380
 1825 0000 9C01      		movw r18,r24
 379:lib/lufa/LUFA/Drivers/USB/Class/Common/HIDParser.c **** 	for (uint8_t i = 0; i < HID_MAX_REPORT_IDS; i++)
 1826               		.loc 1 379 2 is_stmt 1 view .LVU381
 1827               	.LBB22:
 1828               		.loc 1 379 7 view .LVU382
 1829               	.LVL108:
 1830               		.loc 1 379 22 view .LVU383
 1831 0002 FC01      		movw r30,r24
 1832 0004 E057      		subi r30,112
 1833 0006 FC4F      		sbci r31,-4
 1834 0008 2A52      		subi r18,42
 1835 000a 3C4F      		sbci r19,-4
 1836 000c 50E0      		ldi r21,0
 1837 000e 440F      		lsl r20
 1838 0010 551F      		rol r21
 1839               	.LVL109:
 1840               	.L108:
 1841               	.LBB23:
 380:lib/lufa/LUFA/Drivers/USB/Class/Common/HIDParser.c **** 	{
 381:lib/lufa/LUFA/Drivers/USB/Class/Common/HIDParser.c **** 		uint16_t ReportSizeBits = ParserData->ReportIDSizes[i].ReportSizeBits[ReportType];
 1842               		.loc 1 381 3 view .LVU384
 1843               		.loc 1 381 12 is_stmt 0 view .LVU385
 1844 0012 DF01      		movw r26,r30
 1845 0014 A40F      		add r26,r20
 1846 0016 B51F      		adc r27,r21
 1847 0018 1196      		adiw r26,1
 1848 001a 0D90      		ld __tmp_reg__,X+
 1849 001c BC91      		ld r27,X
 1850 001e A02D      		mov r26,__tmp_reg__
 1851               	.LVL110:
 382:lib/lufa/LUFA/Drivers/USB/Class/Common/HIDParser.c **** 
 383:lib/lufa/LUFA/Drivers/USB/Class/Common/HIDParser.c **** 		if (ParserData->ReportIDSizes[i].ReportID == ReportID)
 1852               		.loc 1 383 3 is_stmt 1 view .LVU386
 1853               		.loc 1 383 6 is_stmt 0 view .LVU387
 1854 0020 8081      		ld r24,Z
 1855 0022 8613      		cpse r24,r22
 1856 0024 00C0      		rjmp .L105
 384:lib/lufa/LUFA/Drivers/USB/Class/Common/HIDParser.c **** 		  return (ReportSizeBits / 8) + ((ReportSizeBits % 8) ? 1 : 0);
 1857               		.loc 1 384 5 is_stmt 1 view .LVU388
 1858               		.loc 1 384 61 is_stmt 0 view .LVU389
 1859 0026 81E0      		ldi r24,lo8(1)
 1860 0028 90E0      		ldi r25,0
 1861 002a 9D01      		movw r18,r26
 1862               	.LVL111:
 1863               		.loc 1 384 61 view .LVU390
 1864 002c 2770      		andi r18,7
 1865 002e 3327      		clr r19
 1866 0030 232B      		or r18,r19
 1867 0032 01F4      		brne .L106
 1868 0034 90E0      		ldi r25,0
 1869 0036 80E0      		ldi r24,0
 1870               	.L106:
 1871               		.loc 1 384 28 view .LVU391
 1872 0038 23E0      		ldi r18,3
 1873               		1:
 1874 003a B695      		lsr r27
 1875 003c A795      		ror r26
 1876 003e 2A95      		dec r18
 1877 0040 01F4      		brne 1b
 1878               	.LVL112:
 1879               		.loc 1 384 33 view .LVU392
 1880 0042 8A0F      		add r24,r26
 1881 0044 9B1F      		adc r25,r27
 1882 0046 0895      		ret
 1883               	.LVL113:
 1884               	.L105:
 1885               		.loc 1 384 33 view .LVU393
 1886               	.LBE23:
 379:lib/lufa/LUFA/Drivers/USB/Class/Common/HIDParser.c **** 	{
 1887               		.loc 1 379 46 is_stmt 1 discriminator 2 view .LVU394
 379:lib/lufa/LUFA/Drivers/USB/Class/Common/HIDParser.c **** 	{
 1888               		.loc 1 379 22 discriminator 2 view .LVU395
 1889 0048 3796      		adiw r30,7
 379:lib/lufa/LUFA/Drivers/USB/Class/Common/HIDParser.c **** 	{
 1890               		.loc 1 379 2 is_stmt 0 discriminator 2 view .LVU396
 1891 004a E217      		cp r30,r18
 1892 004c F307      		cpc r31,r19
 1893 004e 01F4      		brne .L108
 1894               	.LBE22:
 385:lib/lufa/LUFA/Drivers/USB/Class/Common/HIDParser.c **** 	}
 386:lib/lufa/LUFA/Drivers/USB/Class/Common/HIDParser.c **** 
 387:lib/lufa/LUFA/Drivers/USB/Class/Common/HIDParser.c **** 	return 0;
 1895               		.loc 1 387 9 view .LVU397
 1896 0050 90E0      		ldi r25,0
 1897 0052 80E0      		ldi r24,0
 1898               	/* epilogue start */
 388:lib/lufa/LUFA/Drivers/USB/Class/Common/HIDParser.c **** }
 1899               		.loc 1 388 1 view .LVU398
 1900 0054 0895      		ret
 1901               		.cfi_endproc
 1902               	.LFE19:
 1904               		.text
 1905               	.Letext0:
 1906               		.file 2 "/usr/local/Cellar/avr-gcc@9/9.3.0_3/avr/include/stdint.h"
 1907               		.file 3 "lib/lufa/LUFA/Drivers/USB/Class/Common/HIDClassCommon.h"
 1908               		.file 4 "lib/lufa/LUFA/Drivers/USB/Class/Common/HIDParser.h"
 1909               		.file 5 "/usr/local/Cellar/avr-gcc@9/9.3.0_3/avr/include/string.h"