   1               		.file	"keymap_common.c"
   2               	__SP_H__ = 0x3e
   3               	__SP_L__ = 0x3d
   4               	__SREG__ = 0x3f
   5               	__tmp_reg__ = 0
   6               	__zero_reg__ = 1
   7               		.text
   8               	.Ltext0:
   9               		.cfi_sections	.debug_frame
  10               		.section	.text.rgblight_toggle,"ax",@progbits
  11               		.weak	rgblight_toggle
  13               	rgblight_toggle:
  14               	.LFB11:
  15               		.file 1 "quantum/rgb.h"
   1:quantum/rgb.h **** /* Copyright 2017 Jack Humbert
   2:quantum/rgb.h ****  *
   3:quantum/rgb.h ****  * This program is free software: you can redistribute it and/or modify
   4:quantum/rgb.h ****  * it under the terms of the GNU General Public License as published by
   5:quantum/rgb.h ****  * the Free Software Foundation, either version 2 of the License, or
   6:quantum/rgb.h ****  * (at your option) any later version.
   7:quantum/rgb.h ****  *
   8:quantum/rgb.h ****  * This program is distributed in the hope that it will be useful,
   9:quantum/rgb.h ****  * but WITHOUT ANY WARRANTY; without even the implied warranty of
  10:quantum/rgb.h ****  * MERCHANTABILITY or FITNESS FOR A PARTICULAR PURPOSE.  See the
  11:quantum/rgb.h ****  * GNU General Public License for more details.
  12:quantum/rgb.h ****  *
  13:quantum/rgb.h ****  * You should have received a copy of the GNU General Public License
  14:quantum/rgb.h ****  * along with this program.  If not, see <http://www.gnu.org/licenses/>.
  15:quantum/rgb.h ****  */
  16:quantum/rgb.h **** 
  17:quantum/rgb.h **** #ifndef RGB_H
  18:quantum/rgb.h **** #define RGB_H
  19:quantum/rgb.h **** 
  20:quantum/rgb.h **** __attribute__((weak))
  21:quantum/rgb.h **** void rgblight_toggle(void) {};
  16               		.loc 1 21 28 view -0
  17               		.cfi_startproc
  18               	/* prologue: function */
  19               	/* frame size = 0 */
  20               	/* stack size = 0 */
  21               	.L__stack_usage = 0
  22               		.loc 1 21 29 view .LVU1
  23               	/* epilogue start */
  24               		.loc 1 21 1 is_stmt 0 view .LVU2
  25 0000 0895      		ret
  26               		.cfi_endproc
  27               	.LFE11:
  29               		.section	.text.rgblight_step,"ax",@progbits
  30               		.weak	rgblight_step
  32               	rgblight_step:
  33               	.LFB35:
  34               		.cfi_startproc
  35               	/* prologue: function */
  36               	/* frame size = 0 */
  37               	/* stack size = 0 */
  38               	.L__stack_usage = 0
  39               	/* epilogue start */
  40 0000 0895      		ret
  41               		.cfi_endproc
  42               	.LFE35:
  44               		.section	.text.rgblight_step_reverse,"ax",@progbits
  45               		.weak	rgblight_step_reverse
  47               	rgblight_step_reverse:
  48               	.LFB37:
  49               		.cfi_startproc
  50               	/* prologue: function */
  51               	/* frame size = 0 */
  52               	/* stack size = 0 */
  53               	.L__stack_usage = 0
  54               	/* epilogue start */
  55 0000 0895      		ret
  56               		.cfi_endproc
  57               	.LFE37:
  59               		.section	.text.rgblight_increase_hue,"ax",@progbits
  60               		.weak	rgblight_increase_hue
  62               	rgblight_increase_hue:
  63               	.LFB39:
  64               		.cfi_startproc
  65               	/* prologue: function */
  66               	/* frame size = 0 */
  67               	/* stack size = 0 */
  68               	.L__stack_usage = 0
  69               	/* epilogue start */
  70 0000 0895      		ret
  71               		.cfi_endproc
  72               	.LFE39:
  74               		.section	.text.rgblight_decrease_hue,"ax",@progbits
  75               		.weak	rgblight_decrease_hue
  77               	rgblight_decrease_hue:
  78               	.LFB41:
  79               		.cfi_startproc
  80               	/* prologue: function */
  81               	/* frame size = 0 */
  82               	/* stack size = 0 */
  83               	.L__stack_usage = 0
  84               	/* epilogue start */
  85 0000 0895      		ret
  86               		.cfi_endproc
  87               	.LFE41:
  89               		.section	.text.rgblight_increase_sat,"ax",@progbits
  90               		.weak	rgblight_increase_sat
  92               	rgblight_increase_sat:
  93               	.LFB43:
  94               		.cfi_startproc
  95               	/* prologue: function */
  96               	/* frame size = 0 */
  97               	/* stack size = 0 */
  98               	.L__stack_usage = 0
  99               	/* epilogue start */
 100 0000 0895      		ret
 101               		.cfi_endproc
 102               	.LFE43:
 104               		.section	.text.rgblight_decrease_sat,"ax",@progbits
 105               		.weak	rgblight_decrease_sat
 107               	rgblight_decrease_sat:
 108               	.LFB45:
 109               		.cfi_startproc
 110               	/* prologue: function */
 111               	/* frame size = 0 */
 112               	/* stack size = 0 */
 113               	.L__stack_usage = 0
 114               	/* epilogue start */
 115 0000 0895      		ret
 116               		.cfi_endproc
 117               	.LFE45:
 119               		.section	.text.rgblight_increase_val,"ax",@progbits
 120               		.weak	rgblight_increase_val
 122               	rgblight_increase_val:
 123               	.LFB47:
 124               		.cfi_startproc
 125               	/* prologue: function */
 126               	/* frame size = 0 */
 127               	/* stack size = 0 */
 128               	.L__stack_usage = 0
 129               	/* epilogue start */
 130 0000 0895      		ret
 131               		.cfi_endproc
 132               	.LFE47:
 134               		.section	.text.rgblight_decrease_val,"ax",@progbits
 135               		.weak	rgblight_decrease_val
 137               	rgblight_decrease_val:
 138               	.LFB49:
 139               		.cfi_startproc
 140               	/* prologue: function */
 141               	/* frame size = 0 */
 142               	/* stack size = 0 */
 143               	.L__stack_usage = 0
 144               	/* epilogue start */
 145 0000 0895      		ret
 146               		.cfi_endproc
 147               	.LFE49:
 149               		.section	.text.rgblight_increase_speed,"ax",@progbits
 150               		.weak	rgblight_increase_speed
 152               	rgblight_increase_speed:
 153               	.LFB51:
 154               		.cfi_startproc
 155               	/* prologue: function */
 156               	/* frame size = 0 */
 157               	/* stack size = 0 */
 158               	.L__stack_usage = 0
 159               	/* epilogue start */
 160 0000 0895      		ret
 161               		.cfi_endproc
 162               	.LFE51:
 164               		.section	.text.rgblight_decrease_speed,"ax",@progbits
 165               		.weak	rgblight_decrease_speed
 167               	rgblight_decrease_speed:
 168               	.LFB53:
 169               		.cfi_startproc
 170               	/* prologue: function */
 171               	/* frame size = 0 */
 172               	/* stack size = 0 */
 173               	.L__stack_usage = 0
 174               	/* epilogue start */
 175 0000 0895      		ret
 176               		.cfi_endproc
 177               	.LFE53:
 179               		.section	.text.action_get_macro,"ax",@progbits
 180               		.weak	action_get_macro
 182               	action_get_macro:
 183               	.LVL0:
 184               	.LFB30:
 185               		.file 2 "quantum/keymap_common.c"
   1:quantum/keymap_common.c **** /*
   2:quantum/keymap_common.c **** Copyright 2012-2017 Jun Wako <wakojun@gmail.com>
   3:quantum/keymap_common.c **** 
   4:quantum/keymap_common.c **** This program is free software: you can redistribute it and/or modify
   5:quantum/keymap_common.c **** it under the terms of the GNU General Public License as published by
   6:quantum/keymap_common.c **** the Free Software Foundation, either version 2 of the License, or
   7:quantum/keymap_common.c **** (at your option) any later version.
   8:quantum/keymap_common.c **** 
   9:quantum/keymap_common.c **** This program is distributed in the hope that it will be useful,
  10:quantum/keymap_common.c **** but WITHOUT ANY WARRANTY; without even the implied warranty of
  11:quantum/keymap_common.c **** MERCHANTABILITY or FITNESS FOR A PARTICULAR PURPOSE.  See the
  12:quantum/keymap_common.c **** GNU General Public License for more details.
  13:quantum/keymap_common.c **** 
  14:quantum/keymap_common.c **** You should have received a copy of the GNU General Public License
  15:quantum/keymap_common.c **** along with this program.  If not, see <http://www.gnu.org/licenses/>.
  16:quantum/keymap_common.c **** */
  17:quantum/keymap_common.c **** 
  18:quantum/keymap_common.c **** #include "keymap.h"
  19:quantum/keymap_common.c **** #include "report.h"
  20:quantum/keymap_common.c **** #include "keycode.h"
  21:quantum/keymap_common.c **** #include "action_layer.h"
  22:quantum/keymap_common.c **** #if defined(__AVR__)
  23:quantum/keymap_common.c **** #include <util/delay.h>
  24:quantum/keymap_common.c **** #include <stdio.h>
  25:quantum/keymap_common.c **** #endif
  26:quantum/keymap_common.c **** #include "action.h"
  27:quantum/keymap_common.c **** #include "action_macro.h"
  28:quantum/keymap_common.c **** #include "debug.h"
  29:quantum/keymap_common.c **** #include "backlight.h"
  30:quantum/keymap_common.c **** #include "quantum.h"
  31:quantum/keymap_common.c **** 
  32:quantum/keymap_common.c **** #ifdef MIDI_ENABLE
  33:quantum/keymap_common.c **** 	#include "process_midi.h"
  34:quantum/keymap_common.c **** #endif
  35:quantum/keymap_common.c **** 
  36:quantum/keymap_common.c **** extern keymap_config_t keymap_config;
  37:quantum/keymap_common.c **** 
  38:quantum/keymap_common.c **** #include <inttypes.h>
  39:quantum/keymap_common.c **** 
  40:quantum/keymap_common.c **** /* converts key to action */
  41:quantum/keymap_common.c **** action_t action_for_key(uint8_t layer, keypos_t key)
  42:quantum/keymap_common.c **** {
  43:quantum/keymap_common.c ****     // 16bit keycodes - important
  44:quantum/keymap_common.c ****     uint16_t keycode = keymap_key_to_keycode(layer, key);
  45:quantum/keymap_common.c **** 
  46:quantum/keymap_common.c ****     // keycode remapping
  47:quantum/keymap_common.c ****     keycode = keycode_config(keycode);
  48:quantum/keymap_common.c **** 
  49:quantum/keymap_common.c ****     action_t action;
  50:quantum/keymap_common.c ****     uint8_t action_layer, when, mod;
  51:quantum/keymap_common.c **** 
  52:quantum/keymap_common.c ****     switch (keycode) {
  53:quantum/keymap_common.c ****         case KC_FN0 ... KC_FN31:
  54:quantum/keymap_common.c ****             action.code = keymap_function_id_to_action(FN_INDEX(keycode));
  55:quantum/keymap_common.c ****             break;
  56:quantum/keymap_common.c ****         case KC_A ... KC_EXSEL:
  57:quantum/keymap_common.c ****         case KC_LCTRL ... KC_RGUI:
  58:quantum/keymap_common.c ****             action.code = ACTION_KEY(keycode);
  59:quantum/keymap_common.c ****             break;
  60:quantum/keymap_common.c ****         case KC_SYSTEM_POWER ... KC_SYSTEM_WAKE:
  61:quantum/keymap_common.c ****             action.code = ACTION_USAGE_SYSTEM(KEYCODE2SYSTEM(keycode));
  62:quantum/keymap_common.c ****             break;
  63:quantum/keymap_common.c ****         case KC_AUDIO_MUTE ... KC_MEDIA_REWIND:
  64:quantum/keymap_common.c ****             action.code = ACTION_USAGE_CONSUMER(KEYCODE2CONSUMER(keycode));
  65:quantum/keymap_common.c ****             break;
  66:quantum/keymap_common.c ****         case KC_MS_UP ... KC_MS_ACCEL2:
  67:quantum/keymap_common.c ****             action.code = ACTION_MOUSEKEY(keycode);
  68:quantum/keymap_common.c ****             break;
  69:quantum/keymap_common.c ****         case KC_TRNS:
  70:quantum/keymap_common.c ****             action.code = ACTION_TRANSPARENT;
  71:quantum/keymap_common.c ****             break;
  72:quantum/keymap_common.c ****         case QK_MODS ... QK_MODS_MAX: ;
  73:quantum/keymap_common.c ****             // Has a modifier
  74:quantum/keymap_common.c ****             // Split it up
  75:quantum/keymap_common.c ****             action.code = ACTION_MODS_KEY(keycode >> 8, keycode & 0xFF); // adds modifier to key
  76:quantum/keymap_common.c ****             break;
  77:quantum/keymap_common.c ****         case QK_FUNCTION ... QK_FUNCTION_MAX: ;
  78:quantum/keymap_common.c ****             // Is a shortcut for function action_layer, pull last 12bits
  79:quantum/keymap_common.c ****             // This means we have 4,096 FN macros at our disposal
  80:quantum/keymap_common.c ****             action.code = keymap_function_id_to_action( (int)keycode & 0xFFF );
  81:quantum/keymap_common.c ****             break;
  82:quantum/keymap_common.c ****         case QK_MACRO ... QK_MACRO_MAX:
  83:quantum/keymap_common.c ****             if (keycode & 0x800) // tap macros have upper bit set
  84:quantum/keymap_common.c ****                 action.code = ACTION_MACRO_TAP(keycode & 0xFF);
  85:quantum/keymap_common.c ****             else
  86:quantum/keymap_common.c ****                 action.code = ACTION_MACRO(keycode & 0xFF);
  87:quantum/keymap_common.c ****             break;
  88:quantum/keymap_common.c ****         case QK_LAYER_TAP ... QK_LAYER_TAP_MAX:
  89:quantum/keymap_common.c ****             action.code = ACTION_LAYER_TAP_KEY((keycode >> 0x8) & 0xF, keycode & 0xFF);
  90:quantum/keymap_common.c ****             break;
  91:quantum/keymap_common.c ****         case QK_TO ... QK_TO_MAX: ;
  92:quantum/keymap_common.c ****             // Layer set "GOTO"
  93:quantum/keymap_common.c ****             when = (keycode >> 0x4) & 0x3;
  94:quantum/keymap_common.c ****             action_layer = keycode & 0xF;
  95:quantum/keymap_common.c ****             action.code = ACTION_LAYER_SET(action_layer, when);
  96:quantum/keymap_common.c ****             break;
  97:quantum/keymap_common.c ****         case QK_MOMENTARY ... QK_MOMENTARY_MAX: ;
  98:quantum/keymap_common.c ****             // Momentary action_layer
  99:quantum/keymap_common.c ****             action_layer = keycode & 0xFF;
 100:quantum/keymap_common.c ****             action.code = ACTION_LAYER_MOMENTARY(action_layer);
 101:quantum/keymap_common.c ****             break;
 102:quantum/keymap_common.c ****         case QK_DEF_LAYER ... QK_DEF_LAYER_MAX: ;
 103:quantum/keymap_common.c ****             // Set default action_layer
 104:quantum/keymap_common.c ****             action_layer = keycode & 0xFF;
 105:quantum/keymap_common.c ****             action.code = ACTION_DEFAULT_LAYER_SET(action_layer);
 106:quantum/keymap_common.c ****             break;
 107:quantum/keymap_common.c ****         case QK_TOGGLE_LAYER ... QK_TOGGLE_LAYER_MAX: ;
 108:quantum/keymap_common.c ****             // Set toggle
 109:quantum/keymap_common.c ****             action_layer = keycode & 0xFF;
 110:quantum/keymap_common.c ****             action.code = ACTION_LAYER_TOGGLE(action_layer);
 111:quantum/keymap_common.c ****             break;
 112:quantum/keymap_common.c ****         case QK_ONE_SHOT_LAYER ... QK_ONE_SHOT_LAYER_MAX: ;
 113:quantum/keymap_common.c ****             // OSL(action_layer) - One-shot action_layer
 114:quantum/keymap_common.c ****             action_layer = keycode & 0xFF;
 115:quantum/keymap_common.c ****             action.code = ACTION_LAYER_ONESHOT(action_layer);
 116:quantum/keymap_common.c ****             break;
 117:quantum/keymap_common.c ****         case QK_ONE_SHOT_MOD ... QK_ONE_SHOT_MOD_MAX: ;
 118:quantum/keymap_common.c ****             // OSM(mod) - One-shot mod
 119:quantum/keymap_common.c ****             mod = keycode & 0xFF;
 120:quantum/keymap_common.c ****             action.code = ACTION_MODS_ONESHOT(mod);
 121:quantum/keymap_common.c ****             break;
 122:quantum/keymap_common.c ****         case QK_LAYER_TAP_TOGGLE ... QK_LAYER_TAP_TOGGLE_MAX:
 123:quantum/keymap_common.c ****             action.code = ACTION_LAYER_TAP_TOGGLE(keycode & 0xFF);
 124:quantum/keymap_common.c ****             break;
 125:quantum/keymap_common.c ****         case QK_LAYER_MOD ... QK_LAYER_MOD_MAX:
 126:quantum/keymap_common.c ****             mod = keycode & 0xF;
 127:quantum/keymap_common.c ****             action_layer = (keycode >> 4) & 0xF;
 128:quantum/keymap_common.c ****             action.code = ACTION_LAYER_MODS(action_layer, mod);
 129:quantum/keymap_common.c ****             break;
 130:quantum/keymap_common.c ****         case QK_MOD_TAP ... QK_MOD_TAP_MAX:
 131:quantum/keymap_common.c ****             mod = mod_config((keycode >> 0x8) & 0x1F);
 132:quantum/keymap_common.c ****             action.code = ACTION_MODS_TAP_KEY(mod, keycode & 0xFF);
 133:quantum/keymap_common.c ****             break;
 134:quantum/keymap_common.c ****     #ifdef BACKLIGHT_ENABLE
 135:quantum/keymap_common.c ****         case BL_ON:
 136:quantum/keymap_common.c ****             action.code = ACTION_BACKLIGHT_ON();
 137:quantum/keymap_common.c ****             break;
 138:quantum/keymap_common.c ****         case BL_OFF:
 139:quantum/keymap_common.c ****             action.code = ACTION_BACKLIGHT_OFF();
 140:quantum/keymap_common.c ****             break;
 141:quantum/keymap_common.c ****         case BL_DEC:
 142:quantum/keymap_common.c ****             action.code = ACTION_BACKLIGHT_DECREASE();
 143:quantum/keymap_common.c ****             break;
 144:quantum/keymap_common.c ****         case BL_INC:
 145:quantum/keymap_common.c ****             action.code = ACTION_BACKLIGHT_INCREASE();
 146:quantum/keymap_common.c ****             break;
 147:quantum/keymap_common.c ****         case BL_TOGG:
 148:quantum/keymap_common.c ****             action.code = ACTION_BACKLIGHT_TOGGLE();
 149:quantum/keymap_common.c ****             break;
 150:quantum/keymap_common.c ****         case BL_STEP:
 151:quantum/keymap_common.c ****             action.code = ACTION_BACKLIGHT_STEP();
 152:quantum/keymap_common.c ****             break;
 153:quantum/keymap_common.c ****     #endif
 154:quantum/keymap_common.c ****     #ifdef SWAP_HANDS_ENABLE
 155:quantum/keymap_common.c ****         case QK_SWAP_HANDS ... QK_SWAP_HANDS_MAX:
 156:quantum/keymap_common.c ****             action.code = ACTION(ACT_SWAP_HANDS, keycode & 0xff);
 157:quantum/keymap_common.c ****             break;
 158:quantum/keymap_common.c ****     #endif
 159:quantum/keymap_common.c **** 
 160:quantum/keymap_common.c ****         default:
 161:quantum/keymap_common.c ****             action.code = ACTION_NO;
 162:quantum/keymap_common.c ****             break;
 163:quantum/keymap_common.c ****     }
 164:quantum/keymap_common.c ****     return action;
 165:quantum/keymap_common.c **** }
 166:quantum/keymap_common.c **** 
 167:quantum/keymap_common.c **** __attribute__ ((weak))
 168:quantum/keymap_common.c **** const uint16_t PROGMEM fn_actions[] = {
 169:quantum/keymap_common.c **** 
 170:quantum/keymap_common.c **** };
 171:quantum/keymap_common.c **** 
 172:quantum/keymap_common.c **** /* Macro */
 173:quantum/keymap_common.c **** __attribute__ ((weak))
 174:quantum/keymap_common.c **** const macro_t *action_get_macro(keyrecord_t *record, uint8_t id, uint8_t opt)
 175:quantum/keymap_common.c **** {
 186               		.loc 2 175 1 is_stmt 1 view -0
 187               		.cfi_startproc
 188               	/* prologue: function */
 189               	/* frame size = 0 */
 190               	/* stack size = 0 */
 191               	.L__stack_usage = 0
 176:quantum/keymap_common.c ****     return MACRO_NONE;
 192               		.loc 2 176 5 view .LVU4
 177:quantum/keymap_common.c **** }
 193               		.loc 2 177 1 is_stmt 0 view .LVU5
 194 0000 90E0      		ldi r25,0
 195 0002 80E0      		ldi r24,0
 196               	.LVL1:
 197               	/* epilogue start */
 198               		.loc 2 177 1 view .LVU6
 199 0004 0895      		ret
 200               		.cfi_endproc
 201               	.LFE30:
 203               		.section	.text.action_function,"ax",@progbits
 204               		.weak	action_function
 206               	action_function:
 207               	.LVL2:
 208               	.LFB31:
 178:quantum/keymap_common.c **** 
 179:quantum/keymap_common.c **** /* Function */
 180:quantum/keymap_common.c **** __attribute__ ((weak))
 181:quantum/keymap_common.c **** void action_function(keyrecord_t *record, uint8_t id, uint8_t opt)
 182:quantum/keymap_common.c **** {
 209               		.loc 2 182 1 is_stmt 1 view -0
 210               		.cfi_startproc
 211               	/* prologue: function */
 212               	/* frame size = 0 */
 213               	/* stack size = 0 */
 214               	.L__stack_usage = 0
 183:quantum/keymap_common.c **** }
 215               		.loc 2 183 1 view .LVU8
 216               	/* epilogue start */
 217 0000 0895      		ret
 218               		.cfi_endproc
 219               	.LFE31:
 221               		.section	.text.keymap_key_to_keycode,"ax",@progbits
 222               		.weak	keymap_key_to_keycode
 224               	keymap_key_to_keycode:
 225               	.LVL3:
 226               	.LFB32:
 184:quantum/keymap_common.c **** 
 185:quantum/keymap_common.c **** // translates key to keycode
 186:quantum/keymap_common.c **** __attribute__ ((weak))
 187:quantum/keymap_common.c **** uint16_t keymap_key_to_keycode(uint8_t layer, keypos_t key)
 188:quantum/keymap_common.c **** {
 227               		.loc 2 188 1 view -0
 228               		.cfi_startproc
 229               	/* prologue: function */
 230               	/* frame size = 0 */
 231               	/* stack size = 0 */
 232               	.L__stack_usage = 0
 233               		.loc 2 188 1 is_stmt 0 view .LVU10
 234 0000 972F      		mov r25,r23
 189:quantum/keymap_common.c ****     // Read entire word (16bits)
 190:quantum/keymap_common.c ****     return pgm_read_word(&keymaps[(layer)][(key.row)][(key.col)]);
 235               		.loc 2 190 5 is_stmt 1 view .LVU11
 236               	.LBB2:
 237               		.loc 2 190 12 view .LVU12
 238 0002 70E0      		ldi r23,0
 239               		.loc 2 190 12 is_stmt 0 view .LVU13
 240 0004 26E0      		ldi r18,lo8(6)
 241 0006 929F      		mul r25,r18
 242 0008 600D      		add r22,r0
 243 000a 711D      		adc r23,r1
 244 000c 1124      		clr __zero_reg__
 245               	.LVL4:
 246               		.loc 2 190 12 view .LVU14
 247 000e FB01      		movw r30,r22
 248 0010 94E5      		ldi r25,lo8(84)
 249 0012 899F      		mul r24,r25
 250 0014 E00D      		add r30,r0
 251 0016 F11D      		adc r31,r1
 252 0018 1124      		clr __zero_reg__
 253 001a EE0F      		lsl r30
 254 001c FF1F      		rol r31
 255               	.LVL5:
 256               		.loc 2 190 12 view .LVU15
 257 001e E050      		subi r30,lo8(-(keymaps))
 258 0020 F040      		sbci r31,hi8(-(keymaps))
 259               	.LVL6:
 260               		.loc 2 190 12 is_stmt 1 view .LVU16
 261               		.loc 2 190 12 view .LVU17
 262               	/* #APP */
 263               	 ;  190 "quantum/keymap_common.c" 1
 264 0022 8591      		lpm r24, Z+
 265 0024 9491      		lpm r25, Z
 266               		
 267               	 ;  0 "" 2
 268               	.LVL7:
 269               		.loc 2 190 12 view .LVU18
 270               	/* #NOAPP */
 271               	/* epilogue start */
 272               	.LBE2:
 191:quantum/keymap_common.c **** }
 273               		.loc 2 191 1 is_stmt 0 view .LVU19
 274 0026 0895      		ret
 275               		.cfi_endproc
 276               	.LFE32:
 278               		.section	.text.keymap_function_id_to_action,"ax",@progbits
 279               		.weak	keymap_function_id_to_action
 281               	keymap_function_id_to_action:
 282               	.LVL8:
 283               	.LFB33:
 192:quantum/keymap_common.c **** 
 193:quantum/keymap_common.c **** // translates function id to action
 194:quantum/keymap_common.c **** __attribute__ ((weak))
 195:quantum/keymap_common.c **** uint16_t keymap_function_id_to_action( uint16_t function_id )
 196:quantum/keymap_common.c **** {
 284               		.loc 2 196 1 is_stmt 1 view -0
 285               		.cfi_startproc
 286               	/* prologue: function */
 287               	/* frame size = 0 */
 288               	/* stack size = 0 */
 289               	.L__stack_usage = 0
 197:quantum/keymap_common.c ****     // The compiler sees the empty (weak) fn_actions and generates a warning
 198:quantum/keymap_common.c ****     // This function should not be called in that case, so the warning is too strict
 199:quantum/keymap_common.c ****     // If this function is called however, the keymap should have overridden fn_actions, and then t
 200:quantum/keymap_common.c ****     // is comparing against the wrong array
 201:quantum/keymap_common.c ****     #pragma GCC diagnostic push
 202:quantum/keymap_common.c ****     #pragma GCC diagnostic ignored "-Warray-bounds"
 203:quantum/keymap_common.c **** 	return pgm_read_word(&fn_actions[function_id]);
 290               		.loc 2 203 2 view .LVU21
 291               	.LBB3:
 292               		.loc 2 203 9 view .LVU22
 293 0000 FC01      		movw r30,r24
 294 0002 EE0F      		lsl r30
 295 0004 FF1F      		rol r31
 296               	.LVL9:
 297               		.loc 2 203 9 is_stmt 0 view .LVU23
 298 0006 E050      		subi r30,lo8(-(fn_actions))
 299 0008 F040      		sbci r31,hi8(-(fn_actions))
 300               	.LVL10:
 301               		.loc 2 203 9 is_stmt 1 view .LVU24
 302               		.loc 2 203 9 view .LVU25
 303               	/* #APP */
 304               	 ;  203 "quantum/keymap_common.c" 1
 305 000a 8591      		lpm r24, Z+
 306 000c 9491      		lpm r25, Z
 307               		
 308               	 ;  0 "" 2
 309               	.LVL11:
 310               		.loc 2 203 9 view .LVU26
 311               	/* #NOAPP */
 312               	/* epilogue start */
 313               	.LBE3:
 204:quantum/keymap_common.c ****     #pragma GCC diagnostic pop
 205:quantum/keymap_common.c **** }
 314               		.loc 2 205 1 is_stmt 0 view .LVU27
 315 000e 0895      		ret
 316               		.cfi_endproc
 317               	.LFE33:
 319               		.section	.text.action_for_key,"ax",@progbits
 320               	.global	action_for_key
 322               	action_for_key:
 323               	.LVL12:
 324               	.LFB29:
  42:quantum/keymap_common.c ****     // 16bit keycodes - important
 325               		.loc 2 42 1 is_stmt 1 view -0
 326               		.cfi_startproc
  42:quantum/keymap_common.c ****     // 16bit keycodes - important
 327               		.loc 2 42 1 is_stmt 0 view .LVU29
 328 0000 CF93      		push r28
 329               	.LCFI0:
 330               		.cfi_def_cfa_offset 3
 331               		.cfi_offset 28, -2
 332 0002 DF93      		push r29
 333               	.LCFI1:
 334               		.cfi_def_cfa_offset 4
 335               		.cfi_offset 29, -3
 336               	/* prologue: function */
 337               	/* frame size = 0 */
 338               	/* stack size = 2 */
 339               	.L__stack_usage = 2
  44:quantum/keymap_common.c **** 
 340               		.loc 2 44 5 is_stmt 1 view .LVU30
  44:quantum/keymap_common.c **** 
 341               		.loc 2 44 24 is_stmt 0 view .LVU31
 342 0004 0E94 0000 		call keymap_key_to_keycode
 343               	.LVL13:
  47:quantum/keymap_common.c **** 
 344               		.loc 2 47 5 is_stmt 1 view .LVU32
  47:quantum/keymap_common.c **** 
 345               		.loc 2 47 15 is_stmt 0 view .LVU33
 346 0008 0E94 0000 		call keycode_config
 347               	.LVL14:
  47:quantum/keymap_common.c **** 
 348               		.loc 2 47 15 view .LVU34
 349 000c EC01      		movw r28,r24
 350               	.LVL15:
  49:quantum/keymap_common.c ****     uint8_t action_layer, when, mod;
 351               		.loc 2 49 5 is_stmt 1 view .LVU35
  50:quantum/keymap_common.c **** 
 352               		.loc 2 50 5 view .LVU36
  52:quantum/keymap_common.c ****         case KC_FN0 ... KC_FN31:
 353               		.loc 2 52 5 view .LVU37
 354 000e 8115      		cp r24,__zero_reg__
 355 0010 20E5      		ldi r18,80
 356 0012 9207      		cpc r25,r18
 357 0014 00F0      		brlo .+2
 358 0016 00C0      		rjmp .L17
 359 0018 8115      		cp r24,__zero_reg__
 360 001a 30E4      		ldi r19,64
 361 001c 9307      		cpc r25,r19
 362 001e 00F0      		brlo .+2
 363 0020 00C0      		rjmp .L18
 364 0022 803E      		cpi r24,-32
 365 0024 9105      		cpc r25,__zero_reg__
 366 0026 00F0      		brlo .+2
 367 0028 00C0      		rjmp .L19
 368 002a 803C      		cpi r24,-64
 369 002c 9105      		cpc r25,__zero_reg__
 370 002e 00F0      		brlo .+2
 371 0030 00C0      		rjmp .L20
 372 0032 883A      		cpi r24,-88
 373 0034 9105      		cpc r25,__zero_reg__
 374 0036 00F4      		brsh .L21
 375 0038 853A      		cpi r24,-91
 376 003a 9105      		cpc r25,__zero_reg__
 377 003c 00F0      		brlo .+2
 378 003e 00C0      		rjmp .L22
 379 0040 8130      		cpi r24,1
 380 0042 9105      		cpc r25,__zero_reg__
 381 0044 01F4      		brne .+2
 382 0046 00C0      		rjmp .L23
 383 0048 0497      		sbiw r24,4
 384               	.LVL16:
  52:quantum/keymap_common.c ****         case KC_FN0 ... KC_FN31:
 385               		.loc 2 52 5 is_stmt 0 view .LVU38
 386 004a 813A      		cpi r24,-95
 387 004c 9105      		cpc r25,__zero_reg__
 388 004e 00F4      		brsh .+2
 389 0050 00C0      		rjmp .L23
 390               	.LVL17:
 391               	.L43:
 161:quantum/keymap_common.c ****             break;
 392               		.loc 2 161 25 view .LVU39
 393 0052 D0E0      		ldi r29,0
 394 0054 C0E0      		ldi r28,0
 395 0056 00C0      		rjmp .L23
 396               	.LVL18:
 397               	.L21:
  52:quantum/keymap_common.c ****         case KC_FN0 ... KC_FN31:
 398               		.loc 2 52 5 view .LVU40
 399 0058 885A      		subi r24,-88
 400 005a 9109      		sbc r25,__zero_reg__
 401               	.LVL19:
  52:quantum/keymap_common.c ****         case KC_FN0 ... KC_FN31:
 402               		.loc 2 52 5 view .LVU41
 403 005c 4597      		sbiw r24,21
 404 005e 00F4      		brsh .L43
  64:quantum/keymap_common.c ****             break;
 405               		.loc 2 64 13 is_stmt 1 view .LVU42
  64:quantum/keymap_common.c ****             break;
 406               		.loc 2 64 27 is_stmt 0 view .LVU43
 407 0060 C83A      		cpi r28,-88
 408 0062 D105      		cpc r29,__zero_reg__
 409 0064 01F4      		brne .+2
 410 0066 00C0      		rjmp .L46
  64:quantum/keymap_common.c ****             break;
 411               		.loc 2 64 27 discriminator 1 view .LVU44
 412 0068 C93A      		cpi r28,-87
 413 006a D105      		cpc r29,__zero_reg__
 414 006c 01F4      		brne .+2
 415 006e 00C0      		rjmp .L47
  64:quantum/keymap_common.c ****             break;
 416               		.loc 2 64 27 discriminator 3 view .LVU45
 417 0070 CA3A      		cpi r28,-86
 418 0072 D105      		cpc r29,__zero_reg__
 419 0074 01F4      		brne .+2
 420 0076 00C0      		rjmp .L48
  64:quantum/keymap_common.c ****             break;
 421               		.loc 2 64 27 discriminator 5 view .LVU46
 422 0078 CB3A      		cpi r28,-85
 423 007a D105      		cpc r29,__zero_reg__
 424 007c 01F4      		brne .+2
 425 007e 00C0      		rjmp .L49
  64:quantum/keymap_common.c ****             break;
 426               		.loc 2 64 27 discriminator 7 view .LVU47
 427 0080 CC3A      		cpi r28,-84
 428 0082 D105      		cpc r29,__zero_reg__
 429 0084 01F4      		brne .+2
 430 0086 00C0      		rjmp .L50
  64:quantum/keymap_common.c ****             break;
 431               		.loc 2 64 27 discriminator 9 view .LVU48
 432 0088 CB3B      		cpi r28,-69
 433 008a D105      		cpc r29,__zero_reg__
 434 008c 01F4      		brne .+2
 435 008e 00C0      		rjmp .L51
  64:quantum/keymap_common.c ****             break;
 436               		.loc 2 64 27 discriminator 11 view .LVU49
 437 0090 CC3B      		cpi r28,-68
 438 0092 D105      		cpc r29,__zero_reg__
 439 0094 01F4      		brne .+2
 440 0096 00C0      		rjmp .L52
  64:quantum/keymap_common.c ****             break;
 441               		.loc 2 64 27 discriminator 13 view .LVU50
 442 0098 CD3A      		cpi r28,-83
 443 009a D105      		cpc r29,__zero_reg__
 444 009c 01F4      		brne .+2
 445 009e 00C0      		rjmp .L53
  64:quantum/keymap_common.c ****             break;
 446               		.loc 2 64 27 discriminator 15 view .LVU51
 447 00a0 C03B      		cpi r28,-80
 448 00a2 D105      		cpc r29,__zero_reg__
 449 00a4 01F4      		brne .+2
 450 00a6 00C0      		rjmp .L54
  64:quantum/keymap_common.c ****             break;
 451               		.loc 2 64 27 discriminator 17 view .LVU52
 452 00a8 CE3A      		cpi r28,-82
 453 00aa D105      		cpc r29,__zero_reg__
 454 00ac 01F4      		brne .+2
 455 00ae 00C0      		rjmp .L55
  64:quantum/keymap_common.c ****             break;
 456               		.loc 2 64 27 discriminator 19 view .LVU53
 457 00b0 CF3A      		cpi r28,-81
 458 00b2 D105      		cpc r29,__zero_reg__
 459 00b4 01F4      		brne .+2
 460 00b6 00C0      		rjmp .L56
  64:quantum/keymap_common.c ****             break;
 461               		.loc 2 64 27 discriminator 21 view .LVU54
 462 00b8 C13B      		cpi r28,-79
 463 00ba D105      		cpc r29,__zero_reg__
 464 00bc 01F4      		brne .+2
 465 00be 00C0      		rjmp .L57
  64:quantum/keymap_common.c ****             break;
 466               		.loc 2 64 27 discriminator 23 view .LVU55
 467 00c0 C23B      		cpi r28,-78
 468 00c2 D105      		cpc r29,__zero_reg__
 469 00c4 01F4      		brne .+2
 470 00c6 00C0      		rjmp .L58
  64:quantum/keymap_common.c ****             break;
 471               		.loc 2 64 27 discriminator 25 view .LVU56
 472 00c8 C33B      		cpi r28,-77
 473 00ca D105      		cpc r29,__zero_reg__
 474 00cc 01F4      		brne .+2
 475 00ce 00C0      		rjmp .L59
  64:quantum/keymap_common.c ****             break;
 476               		.loc 2 64 27 discriminator 27 view .LVU57
 477 00d0 C43B      		cpi r28,-76
 478 00d2 D105      		cpc r29,__zero_reg__
 479 00d4 01F4      		brne .+2
 480 00d6 00C0      		rjmp .L60
  64:quantum/keymap_common.c ****             break;
 481               		.loc 2 64 27 discriminator 29 view .LVU58
 482 00d8 C53B      		cpi r28,-75
 483 00da D105      		cpc r29,__zero_reg__
 484 00dc 01F4      		brne .+2
 485 00de 00C0      		rjmp .L61
  64:quantum/keymap_common.c ****             break;
 486               		.loc 2 64 27 discriminator 31 view .LVU59
 487 00e0 C63B      		cpi r28,-74
 488 00e2 D105      		cpc r29,__zero_reg__
 489 00e4 01F4      		brne .+2
 490 00e6 00C0      		rjmp .L62
  64:quantum/keymap_common.c ****             break;
 491               		.loc 2 64 27 discriminator 33 view .LVU60
 492 00e8 C73B      		cpi r28,-73
 493 00ea D105      		cpc r29,__zero_reg__
 494 00ec 01F4      		brne .+2
 495 00ee 00C0      		rjmp .L63
  64:quantum/keymap_common.c ****             break;
 496               		.loc 2 64 27 discriminator 35 view .LVU61
 497 00f0 C83B      		cpi r28,-72
 498 00f2 D105      		cpc r29,__zero_reg__
 499 00f4 01F4      		brne .+2
 500 00f6 00C0      		rjmp .L64
  64:quantum/keymap_common.c ****             break;
 501               		.loc 2 64 27 discriminator 37 view .LVU62
 502 00f8 C93B      		cpi r28,-71
 503 00fa D105      		cpc r29,__zero_reg__
 504 00fc 01F4      		brne .+2
 505 00fe 00C0      		rjmp .L65
  64:quantum/keymap_common.c ****             break;
 506               		.loc 2 64 27 discriminator 39 view .LVU63
 507 0100 CA3B      		cpi r28,-70
 508 0102 D105      		cpc r29,__zero_reg__
 509 0104 01F4      		brne .+2
 510 0106 00C0      		rjmp .L66
  64:quantum/keymap_common.c ****             break;
 511               		.loc 2 64 27 view .LVU64
 512 0108 C0E0      		ldi r28,0
 513 010a D4E4      		ldi r29,lo8(68)
 514               	.LVL20:
  64:quantum/keymap_common.c ****             break;
 515               		.loc 2 64 27 view .LVU65
 516 010c 00C0      		rjmp .L23
 517               	.LVL21:
 518               	.L19:
  52:quantum/keymap_common.c ****         case KC_FN0 ... KC_FN31:
 519               		.loc 2 52 5 view .LVU66
 520 010e 8115      		cp r24,__zero_reg__
 521 0110 40E2      		ldi r20,32
 522 0112 9407      		cpc r25,r20
 523 0114 00F4      		brsh .L25
 524 0116 8F3F      		cpi r24,-1
 525 0118 9105      		cpc r25,__zero_reg__
 526 011a 01F0      		breq .+2
 527 011c 00F4      		brsh .L23
 528 011e 883E      		cpi r24,-24
 529 0120 9105      		cpc r25,__zero_reg__
 530 0122 00F0      		brlo .L23
 531 0124 805F      		subi r24,-16
 532 0126 9109      		sbc r25,__zero_reg__
 533               	.LVL22:
  67:quantum/keymap_common.c ****             break;
 534               		.loc 2 67 27 view .LVU67
 535 0128 D065      		ori r29,80
 536               	.LVL23:
  52:quantum/keymap_common.c ****         case KC_FN0 ... KC_FN31:
 537               		.loc 2 52 5 view .LVU68
 538 012a 4097      		sbiw r24,16
 539 012c 00F0      		brlo .+2
 540 012e 00C0      		rjmp .L43
 541               	.LVL24:
 542               	.L23:
 164:quantum/keymap_common.c **** }
 543               		.loc 2 164 5 is_stmt 1 view .LVU69
 165:quantum/keymap_common.c **** 
 544               		.loc 2 165 1 is_stmt 0 view .LVU70
 545 0130 CE01      		movw r24,r28
 546               	/* epilogue start */
 547 0132 DF91      		pop r29
 548 0134 CF91      		pop r28
 549 0136 0895      		ret
 550               	.LVL25:
 551               	.L25:
  52:quantum/keymap_common.c ****         case KC_FN0 ... KC_FN31:
 552               		.loc 2 52 5 view .LVU71
 553 0138 C115      		cp r28,__zero_reg__
 554 013a 80E3      		ldi r24,48
 555 013c D807      		cpc r29,r24
 556               	.LVL26:
  52:quantum/keymap_common.c ****         case KC_FN0 ... KC_FN31:
 557               		.loc 2 52 5 view .LVU72
 558 013e 00F4      		brsh .+2
 559 0140 00C0      		rjmp .L27
  83:quantum/keymap_common.c ****                 action.code = ACTION_MACRO_TAP(keycode & 0xFF);
 560               		.loc 2 83 13 is_stmt 1 view .LVU73
 561 0142 CE01      		movw r24,r28
 562 0144 9927      		clr r25
  83:quantum/keymap_common.c ****                 action.code = ACTION_MACRO_TAP(keycode & 0xFF);
 563               		.loc 2 83 16 is_stmt 0 view .LVU74
 564 0146 D3FD      		sbrc r29,3
 565 0148 00C0      		rjmp .L28
  86:quantum/keymap_common.c ****             break;
 566               		.loc 2 86 17 is_stmt 1 view .LVU75
  86:quantum/keymap_common.c ****             break;
 567               		.loc 2 86 31 is_stmt 0 view .LVU76
 568 014a EC01      		movw r28,r24
 569               	.LVL27:
  86:quantum/keymap_common.c ****             break;
 570               		.loc 2 86 31 view .LVU77
 571 014c D06C      		ori r29,192
 572               	.LVL28:
  86:quantum/keymap_common.c ****             break;
 573               		.loc 2 86 31 view .LVU78
 574 014e 00C0      		rjmp .L23
 575               	.LVL29:
 576               	.L17:
  52:quantum/keymap_common.c ****         case KC_FN0 ... KC_FN31:
 577               		.loc 2 52 5 view .LVU79
 578 0150 C115      		cp r28,__zero_reg__
 579 0152 95E5      		ldi r25,85
 580 0154 D907      		cpc r29,r25
 581 0156 00F4      		brsh .L30
 582 0158 C115      		cp r28,__zero_reg__
 583 015a 24E5      		ldi r18,84
 584 015c D207      		cpc r29,r18
 585 015e 00F0      		brlo .+2
 586 0160 00C0      		rjmp .L31
 587 0162 C115      		cp r28,__zero_reg__
 588 0164 33E5      		ldi r19,83
 589 0166 D307      		cpc r29,r19
 590 0168 00F4      		brsh .L32
 591 016a C115      		cp r28,__zero_reg__
 592 016c 42E5      		ldi r20,82
 593 016e D407      		cpc r29,r20
 594 0170 00F0      		brlo .+2
 595 0172 00C0      		rjmp .L33
 596 0174 C115      		cp r28,__zero_reg__
 597 0176 81E5      		ldi r24,81
 598 0178 D807      		cpc r29,r24
 599               	.LVL30:
  52:quantum/keymap_common.c ****         case KC_FN0 ... KC_FN31:
 600               		.loc 2 52 5 view .LVU80
 601 017a 00F4      		brsh .+2
 602 017c 00C0      		rjmp .L34
  97:quantum/keymap_common.c ****             // Momentary action_layer
 603               		.loc 2 97 49 is_stmt 1 view .LVU81
  99:quantum/keymap_common.c ****             action.code = ACTION_LAYER_MOMENTARY(action_layer);
 604               		.loc 2 99 13 view .LVU82
 605               	.LVL31:
 100:quantum/keymap_common.c ****             break;
 606               		.loc 2 100 13 view .LVU83
 100:quantum/keymap_common.c ****             break;
 607               		.loc 2 100 27 is_stmt 0 view .LVU84
 608 017e DC2F      		mov r29,r28
 609 0180 CC27      		clr r28
 610               	.LVL32:
 100:quantum/keymap_common.c ****             break;
 611               		.loc 2 100 27 view .LVU85
 612 0182 C16F      		ori r28,241
 613 0184 D06A      		ori r29,160
 614               	.LVL33:
 101:quantum/keymap_common.c ****         case QK_DEF_LAYER ... QK_DEF_LAYER_MAX: ;
 615               		.loc 2 101 13 is_stmt 1 view .LVU86
 616 0186 00C0      		rjmp .L23
 617               	.LVL34:
 618               	.L32:
 107:quantum/keymap_common.c ****             // Set toggle
 619               		.loc 2 107 55 view .LVU87
 109:quantum/keymap_common.c ****             action.code = ACTION_LAYER_TOGGLE(action_layer);
 620               		.loc 2 109 13 view .LVU88
 110:quantum/keymap_common.c ****             break;
 621               		.loc 2 110 13 view .LVU89
 110:quantum/keymap_common.c ****             break;
 622               		.loc 2 110 27 is_stmt 0 view .LVU90
 623 0188 CE01      		movw r24,r28
 624               	.LVL35:
 110:quantum/keymap_common.c ****             break;
 625               		.loc 2 110 27 view .LVU91
 626 018a 8370      		andi r24,3
 627 018c 9927      		clr r25
 628               	.LVL36:
 110:quantum/keymap_common.c ****             break;
 629               		.loc 2 110 27 view .LVU92
 630 018e 21E0      		ldi r18,lo8(1)
 631 0190 30E0      		ldi r19,0
 632 0192 00C0      		rjmp 2f
 633               		1:
 634 0194 220F      		lsl r18
 635 0196 331F      		rol r19
 636               		2:
 637 0198 8A95      		dec r24
 638 019a 02F4      		brpl 1b
 639 019c C695      		lsr r28
 640 019e C695      		lsr r28
 641               	.LVL37:
 110:quantum/keymap_common.c ****             break;
 642               		.loc 2 110 27 view .LVU93
 643 01a0 90E2      		ldi r25,lo8(32)
 644 01a2 C99F      		mul r28,r25
 645 01a4 E001      		movw r28,r0
 646 01a6 1124      		clr __zero_reg__
 647 01a8 C22B      		or r28,r18
 648 01aa D32B      		or r29,r19
 649 01ac DA68      		ori r29,138
 650               	.LVL38:
 111:quantum/keymap_common.c ****         case QK_ONE_SHOT_LAYER ... QK_ONE_SHOT_LAYER_MAX: ;
 651               		.loc 2 111 13 is_stmt 1 view .LVU94
 652 01ae 00C0      		rjmp .L23
 653               	.LVL39:
 654               	.L30:
  52:quantum/keymap_common.c ****         case KC_FN0 ... KC_FN31:
 655               		.loc 2 52 5 is_stmt 0 view .LVU95
 656 01b0 C115      		cp r28,__zero_reg__
 657 01b2 2AE5      		ldi r18,90
 658 01b4 D207      		cpc r29,r18
 659 01b6 00F4      		brsh .L35
 660 01b8 C115      		cp r28,__zero_reg__
 661 01ba 39E5      		ldi r19,89
 662 01bc D307      		cpc r29,r19
 663 01be 00F0      		brlo .+2
 664 01c0 00C0      		rjmp .L36
 665 01c2 C115      		cp r28,__zero_reg__
 666 01c4 46E5      		ldi r20,86
 667 01c6 D407      		cpc r29,r20
 668 01c8 00F4      		brsh .+2
 669 01ca 00C0      		rjmp .L37
 670 01cc CE01      		movw r24,r28
 671               	.LVL40:
  52:quantum/keymap_common.c ****         case KC_FN0 ... KC_FN31:
 672               		.loc 2 52 5 view .LVU96
 673 01ce 9855      		subi r25,88
 674 01d0 8F3F      		cpi r24,-1
 675 01d2 9105      		cpc r25,__zero_reg__
 676 01d4 01F0      		breq .+4
 677 01d6 00F0      		brlo .+2
 678 01d8 00C0      		rjmp .L43
 123:quantum/keymap_common.c ****             break;
 679               		.loc 2 123 13 is_stmt 1 view .LVU97
 123:quantum/keymap_common.c ****             break;
 680               		.loc 2 123 27 is_stmt 0 view .LVU98
 681 01da DC2F      		mov r29,r28
 682 01dc CC27      		clr r28
 683               	.LVL41:
 123:quantum/keymap_common.c ****             break;
 684               		.loc 2 123 27 view .LVU99
 685 01de C06F      		ori r28,240
 686 01e0 D06A      		ori r29,160
 687               	.LVL42:
 124:quantum/keymap_common.c ****         case QK_LAYER_MOD ... QK_LAYER_MOD_MAX:
 688               		.loc 2 124 13 is_stmt 1 view .LVU100
 689 01e2 00C0      		rjmp .L23
 690               	.LVL43:
 691               	.L35:
  52:quantum/keymap_common.c ****         case KC_FN0 ... KC_FN31:
 692               		.loc 2 52 5 is_stmt 0 view .LVU101
 693 01e4 CE01      		movw r24,r28
 694               	.LVL44:
  52:quantum/keymap_common.c ****         case KC_FN0 ... KC_FN31:
 695               		.loc 2 52 5 view .LVU102
 696 01e6 9056      		subi r25,96
 697 01e8 8115      		cp r24,__zero_reg__
 698 01ea 9042      		sbci r25,32
 699 01ec 00F0      		brlo .+2
 700 01ee 00C0      		rjmp .L43
 131:quantum/keymap_common.c ****             action.code = ACTION_MODS_TAP_KEY(mod, keycode & 0xFF);
 701               		.loc 2 131 13 is_stmt 1 view .LVU103
 131:quantum/keymap_common.c ****             action.code = ACTION_MODS_TAP_KEY(mod, keycode & 0xFF);
 702               		.loc 2 131 19 is_stmt 0 view .LVU104
 703 01f0 8D2F      		mov r24,r29
 704 01f2 8F71      		andi r24,lo8(31)
 705 01f4 0E94 0000 		call mod_config
 706               	.LVL45:
 132:quantum/keymap_common.c ****             break;
 707               		.loc 2 132 13 is_stmt 1 view .LVU105
 132:quantum/keymap_common.c ****             break;
 708               		.loc 2 132 27 is_stmt 0 view .LVU106
 709 01f8 90E0      		ldi r25,0
 710 01fa 982F      		mov r25,r24
 711 01fc 8827      		clr r24
 712               	.LVL46:
 132:quantum/keymap_common.c ****             break;
 713               		.loc 2 132 27 view .LVU107
 714 01fe 8827      		clr r24
 715 0200 9F71      		andi r25,31
 716 0202 9C01      		movw r18,r24
 717 0204 2C2B      		or r18,r28
 718 0206 E901      		movw r28,r18
 719               	.LVL47:
 132:quantum/keymap_common.c ****             break;
 720               		.loc 2 132 27 view .LVU108
 721 0208 00C0      		rjmp .L77
 722               	.LVL48:
 723               	.L20:
  54:quantum/keymap_common.c ****             break;
 724               		.loc 2 54 13 is_stmt 1 view .LVU109
  54:quantum/keymap_common.c ****             break;
 725               		.loc 2 54 27 is_stmt 0 view .LVU110
 726 020a 805C      		subi r24,-64
 727 020c 9109      		sbc r25,__zero_reg__
 728               	.LVL49:
 729               	.L78:
  80:quantum/keymap_common.c ****             break;
 730               		.loc 2 80 27 view .LVU111
 731 020e 0E94 0000 		call keymap_function_id_to_action
 732               	.LVL50:
 733 0212 EC01      		movw r28,r24
 734               	.LVL51:
  81:quantum/keymap_common.c ****         case QK_MACRO ... QK_MACRO_MAX:
 735               		.loc 2 81 13 is_stmt 1 view .LVU112
 736 0214 00C0      		rjmp .L23
 737               	.LVL52:
 738               	.L22:
  61:quantum/keymap_common.c ****             break;
 739               		.loc 2 61 13 view .LVU113
  61:quantum/keymap_common.c ****             break;
 740               		.loc 2 61 27 is_stmt 0 view .LVU114
 741 0216 853A      		cpi r24,-91
 742 0218 9105      		cpc r25,__zero_reg__
 743 021a 01F4      		brne .+2
 744 021c 00C0      		rjmp .L44
  61:quantum/keymap_common.c ****             break;
 745               		.loc 2 61 27 discriminator 1 view .LVU115
 746 021e 863A      		cpi r24,-90
 747 0220 9105      		cpc r25,__zero_reg__
 748 0222 01F0      		breq .+2
 749 0224 00C0      		rjmp .L45
  61:quantum/keymap_common.c ****             break;
 750               		.loc 2 61 27 view .LVU116
 751 0226 C2E8      		ldi r28,lo8(-126)
 752 0228 D0E4      		ldi r29,lo8(64)
 753 022a 00C0      		rjmp .L23
 754               	.LVL53:
 755               	.L27:
  77:quantum/keymap_common.c ****             // Is a shortcut for function action_layer, pull last 12bits
 756               		.loc 2 77 47 is_stmt 1 view .LVU117
  80:quantum/keymap_common.c ****             break;
 757               		.loc 2 80 13 view .LVU118
  80:quantum/keymap_common.c ****             break;
 758               		.loc 2 80 27 is_stmt 0 view .LVU119
 759 022c CE01      		movw r24,r28
 760 022e 9F70      		andi r25,15
 761 0230 00C0      		rjmp .L78
 762               	.L28:
  84:quantum/keymap_common.c ****             else
 763               		.loc 2 84 17 is_stmt 1 view .LVU120
  84:quantum/keymap_common.c ****             else
 764               		.loc 2 84 31 is_stmt 0 view .LVU121
 765 0232 EC01      		movw r28,r24
 766               	.LVL54:
  84:quantum/keymap_common.c ****             else
 767               		.loc 2 84 31 view .LVU122
 768 0234 D86C      		ori r29,200
 769               	.LVL55:
  84:quantum/keymap_common.c ****             else
 770               		.loc 2 84 31 view .LVU123
 771 0236 00C0      		rjmp .L23
 772               	.LVL56:
 773               	.L18:
  89:quantum/keymap_common.c ****             break;
 774               		.loc 2 89 13 is_stmt 1 view .LVU124
  89:quantum/keymap_common.c ****             break;
 775               		.loc 2 89 27 is_stmt 0 view .LVU125
 776 0238 DF70      		andi r29,15
 777               	.LVL57:
 778               	.L75:
 128:quantum/keymap_common.c ****             break;
 779               		.loc 2 128 27 view .LVU126
 780 023a D06A      		ori r29,160
 781               	.LVL58:
 129:quantum/keymap_common.c ****         case QK_MOD_TAP ... QK_MOD_TAP_MAX:
 782               		.loc 2 129 13 is_stmt 1 view .LVU127
 783 023c 00C0      		rjmp .L23
 784               	.LVL59:
 785               	.L34:
  91:quantum/keymap_common.c ****             // Layer set "GOTO"
 786               		.loc 2 91 35 view .LVU128
  93:quantum/keymap_common.c ****             action_layer = keycode & 0xF;
 787               		.loc 2 93 13 view .LVU129
  94:quantum/keymap_common.c ****             action.code = ACTION_LAYER_SET(action_layer, when);
 788               		.loc 2 94 13 view .LVU130
  95:quantum/keymap_common.c ****             break;
 789               		.loc 2 95 13 view .LVU131
  93:quantum/keymap_common.c ****             action_layer = keycode & 0xF;
 790               		.loc 2 93 29 is_stmt 0 view .LVU132
 791 023e CE01      		movw r24,r28
 792 0240 74E0      		ldi r23,4
 793               		1:
 794 0242 9695      		lsr r25
 795 0244 8795      		ror r24
 796 0246 7A95      		dec r23
 797 0248 01F4      		brne 1b
  93:quantum/keymap_common.c ****             action_layer = keycode & 0xF;
 798               		.loc 2 93 18 view .LVU133
 799 024a 8370      		andi r24,lo8(3)
  95:quantum/keymap_common.c ****             break;
 800               		.loc 2 95 27 view .LVU134
 801 024c 2C2F      		mov r18,r28
 802 024e 2695      		lsr r18
 803 0250 2695      		lsr r18
 804 0252 2370      		andi r18,lo8(3)
 805 0254 40E2      		ldi r20,lo8(32)
 806 0256 249F      		mul r18,r20
 807 0258 9001      		movw r18,r0
 808 025a 1124      		clr __zero_reg__
 809 025c 382B      		or r19,r24
 810 025e 8C2F      		mov r24,r28
 811 0260 8370      		andi r24,lo8(3)
 812 0262 C1E0      		ldi r28,lo8(1)
 813 0264 D0E0      		ldi r29,0
 814               	.LVL60:
  95:quantum/keymap_common.c ****             break;
 815               		.loc 2 95 27 view .LVU135
 816 0266 00C0      		rjmp 2f
 817               		1:
 818 0268 CC0F      		lsl r28
 819 026a DD1F      		rol r29
 820               		2:
 821 026c 8A95      		dec r24
 822 026e 02F4      		brpl 1b
 823               	.L76:
 105:quantum/keymap_common.c ****             break;
 824               		.loc 2 105 27 view .LVU136
 825 0270 C22B      		or r28,r18
 826 0272 D32B      		or r29,r19
 827 0274 DC68      		ori r29,140
 828               	.LVL61:
 106:quantum/keymap_common.c ****         case QK_TOGGLE_LAYER ... QK_TOGGLE_LAYER_MAX: ;
 829               		.loc 2 106 13 is_stmt 1 view .LVU137
 830 0276 00C0      		rjmp .L23
 831               	.LVL62:
 832               	.L33:
 102:quantum/keymap_common.c ****             // Set default action_layer
 833               		.loc 2 102 49 view .LVU138
 104:quantum/keymap_common.c ****             action.code = ACTION_DEFAULT_LAYER_SET(action_layer);
 834               		.loc 2 104 13 view .LVU139
 105:quantum/keymap_common.c ****             break;
 835               		.loc 2 105 13 view .LVU140
 105:quantum/keymap_common.c ****             break;
 836               		.loc 2 105 27 is_stmt 0 view .LVU141
 837 0278 CE01      		movw r24,r28
 838               	.LVL63:
 105:quantum/keymap_common.c ****             break;
 839               		.loc 2 105 27 view .LVU142
 840 027a 8370      		andi r24,3
 841 027c 9927      		clr r25
 842               	.LVL64:
 105:quantum/keymap_common.c ****             break;
 843               		.loc 2 105 27 view .LVU143
 844 027e 21E0      		ldi r18,lo8(1)
 845 0280 30E0      		ldi r19,0
 846 0282 00C0      		rjmp 2f
 847               		1:
 848 0284 220F      		lsl r18
 849 0286 331F      		rol r19
 850               		2:
 851 0288 8A95      		dec r24
 852 028a 02F4      		brpl 1b
 853 028c C695      		lsr r28
 854 028e C695      		lsr r28
 855               	.LVL65:
 105:quantum/keymap_common.c ****             break;
 856               		.loc 2 105 27 view .LVU144
 857 0290 80E2      		ldi r24,lo8(32)
 858 0292 C89F      		mul r28,r24
 859 0294 E001      		movw r28,r0
 860 0296 1124      		clr __zero_reg__
 861 0298 00C0      		rjmp .L76
 862               	.LVL66:
 863               	.L31:
 112:quantum/keymap_common.c ****             // OSL(action_layer) - One-shot action_layer
 864               		.loc 2 112 59 is_stmt 1 view .LVU145
 114:quantum/keymap_common.c ****             action.code = ACTION_LAYER_ONESHOT(action_layer);
 865               		.loc 2 114 13 view .LVU146
 115:quantum/keymap_common.c ****             break;
 866               		.loc 2 115 13 view .LVU147
 115:quantum/keymap_common.c ****             break;
 867               		.loc 2 115 27 is_stmt 0 view .LVU148
 868 029a DC2F      		mov r29,r28
 869 029c CC27      		clr r28
 870 029e C46F      		ori r28,244
 871 02a0 D06A      		ori r29,160
 872               	.LVL67:
 116:quantum/keymap_common.c ****         case QK_ONE_SHOT_MOD ... QK_ONE_SHOT_MOD_MAX: ;
 873               		.loc 2 116 13 is_stmt 1 view .LVU149
 874 02a2 00C0      		rjmp .L23
 875               	.LVL68:
 876               	.L37:
 117:quantum/keymap_common.c ****             // OSM(mod) - One-shot mod
 877               		.loc 2 117 55 view .LVU150
 119:quantum/keymap_common.c ****             action.code = ACTION_MODS_ONESHOT(mod);
 878               		.loc 2 119 13 view .LVU151
 120:quantum/keymap_common.c ****             break;
 879               		.loc 2 120 13 view .LVU152
 120:quantum/keymap_common.c ****             break;
 880               		.loc 2 120 27 is_stmt 0 view .LVU153
 881 02a4 DC2F      		mov r29,r28
 882 02a6 CC27      		clr r28
 883 02a8 CC27      		clr r28
 884 02aa DF71      		andi r29,31
 885               	.LVL69:
 886               	.L77:
 132:quantum/keymap_common.c ****             break;
 887               		.loc 2 132 27 view .LVU154
 888 02ac D062      		ori r29,32
 889               	.LVL70:
 133:quantum/keymap_common.c ****     #ifdef BACKLIGHT_ENABLE
 890               		.loc 2 133 13 is_stmt 1 view .LVU155
 891 02ae 00C0      		rjmp .L23
 892               	.LVL71:
 893               	.L36:
 126:quantum/keymap_common.c ****             action_layer = (keycode >> 4) & 0xF;
 894               		.loc 2 126 13 view .LVU156
 127:quantum/keymap_common.c ****             action.code = ACTION_LAYER_MODS(action_layer, mod);
 895               		.loc 2 127 13 view .LVU157
 128:quantum/keymap_common.c ****             break;
 896               		.loc 2 128 13 view .LVU158
 127:quantum/keymap_common.c ****             action.code = ACTION_LAYER_MODS(action_layer, mod);
 897               		.loc 2 127 37 is_stmt 0 view .LVU159
 898 02b0 CE01      		movw r24,r28
 899               	.LVL72:
 127:quantum/keymap_common.c ****             action.code = ACTION_LAYER_MODS(action_layer, mod);
 900               		.loc 2 127 37 view .LVU160
 901 02b2 34E0      		ldi r19,4
 902               		1:
 903 02b4 9695      		lsr r25
 904 02b6 8795      		ror r24
 905 02b8 3A95      		dec r19
 906 02ba 01F4      		brne 1b
 907               	.LVL73:
 127:quantum/keymap_common.c ****             action.code = ACTION_LAYER_MODS(action_layer, mod);
 908               		.loc 2 127 26 view .LVU161
 909 02bc 8F70      		andi r24,lo8(15)
 126:quantum/keymap_common.c ****             action_layer = (keycode >> 4) & 0xF;
 910               		.loc 2 126 17 view .LVU162
 911 02be CF70      		andi r28,lo8(15)
 912               	.LVL74:
 128:quantum/keymap_common.c ****             break;
 913               		.loc 2 128 27 view .LVU163
 914 02c0 C06E      		ori r28,lo8(-32)
 915 02c2 D82F      		mov r29,r24
 916 02c4 00C0      		rjmp .L75
 917               	.LVL75:
 918               	.L44:
  61:quantum/keymap_common.c ****             break;
 919               		.loc 2 61 27 view .LVU164
 920 02c6 C1E8      		ldi r28,lo8(-127)
 921 02c8 D0E4      		ldi r29,lo8(64)
 922 02ca 00C0      		rjmp .L23
 923               	.L45:
  61:quantum/keymap_common.c ****             break;
 924               		.loc 2 61 27 view .LVU165
 925 02cc C3E8      		ldi r28,lo8(-125)
 926 02ce D0E4      		ldi r29,lo8(64)
 927 02d0 00C0      		rjmp .L23
 928               	.LVL76:
 929               	.L46:
  64:quantum/keymap_common.c ****             break;
 930               		.loc 2 64 27 view .LVU166
 931 02d2 C2EE      		ldi r28,lo8(-30)
 932 02d4 D4E4      		ldi r29,lo8(68)
 933               	.LVL77:
  64:quantum/keymap_common.c ****             break;
 934               		.loc 2 64 27 view .LVU167
 935 02d6 00C0      		rjmp .L23
 936               	.LVL78:
 937               	.L47:
  64:quantum/keymap_common.c ****             break;
 938               		.loc 2 64 27 view .LVU168
 939 02d8 C9EE      		ldi r28,lo8(-23)
 940 02da D4E4      		ldi r29,lo8(68)
 941               	.LVL79:
  64:quantum/keymap_common.c ****             break;
 942               		.loc 2 64 27 view .LVU169
 943 02dc 00C0      		rjmp .L23
 944               	.LVL80:
 945               	.L48:
  64:quantum/keymap_common.c ****             break;
 946               		.loc 2 64 27 view .LVU170
 947 02de CAEE      		ldi r28,lo8(-22)
 948 02e0 D4E4      		ldi r29,lo8(68)
 949               	.LVL81:
  64:quantum/keymap_common.c ****             break;
 950               		.loc 2 64 27 view .LVU171
 951 02e2 00C0      		rjmp .L23
 952               	.LVL82:
 953               	.L49:
  64:quantum/keymap_common.c ****             break;
 954               		.loc 2 64 27 view .LVU172
 955 02e4 C5EB      		ldi r28,lo8(-75)
 956 02e6 D4E4      		ldi r29,lo8(68)
 957               	.LVL83:
  64:quantum/keymap_common.c ****             break;
 958               		.loc 2 64 27 view .LVU173
 959 02e8 00C0      		rjmp .L23
 960               	.LVL84:
 961               	.L50:
  64:quantum/keymap_common.c ****             break;
 962               		.loc 2 64 27 view .LVU174
 963 02ea C6EB      		ldi r28,lo8(-74)
 964 02ec D4E4      		ldi r29,lo8(68)
 965               	.LVL85:
  64:quantum/keymap_common.c ****             break;
 966               		.loc 2 64 27 view .LVU175
 967 02ee 00C0      		rjmp .L23
 968               	.LVL86:
 969               	.L51:
  64:quantum/keymap_common.c ****             break;
 970               		.loc 2 64 27 view .LVU176
 971 02f0 C3EB      		ldi r28,lo8(-77)
 972 02f2 D4E4      		ldi r29,lo8(68)
 973               	.LVL87:
  64:quantum/keymap_common.c ****             break;
 974               		.loc 2 64 27 view .LVU177
 975 02f4 00C0      		rjmp .L23
 976               	.LVL88:
 977               	.L52:
  64:quantum/keymap_common.c ****             break;
 978               		.loc 2 64 27 view .LVU178
 979 02f6 C4EB      		ldi r28,lo8(-76)
 980 02f8 D4E4      		ldi r29,lo8(68)
 981               	.LVL89:
  64:quantum/keymap_common.c ****             break;
 982               		.loc 2 64 27 view .LVU179
 983 02fa 00C0      		rjmp .L23
 984               	.LVL90:
 985               	.L53:
  64:quantum/keymap_common.c ****             break;
 986               		.loc 2 64 27 view .LVU180
 987 02fc C7EB      		ldi r28,lo8(-73)
 988 02fe D4E4      		ldi r29,lo8(68)
 989               	.LVL91:
  64:quantum/keymap_common.c ****             break;
 990               		.loc 2 64 27 view .LVU181
 991 0300 00C0      		rjmp .L23
 992               	.LVL92:
 993               	.L54:
  64:quantum/keymap_common.c ****             break;
 994               		.loc 2 64 27 view .LVU182
 995 0302 CCEC      		ldi r28,lo8(-52)
 996 0304 D4E4      		ldi r29,lo8(68)
 997               	.LVL93:
  64:quantum/keymap_common.c ****             break;
 998               		.loc 2 64 27 view .LVU183
 999 0306 00C0      		rjmp .L23
 1000               	.LVL94:
 1001               	.L55:
  64:quantum/keymap_common.c ****             break;
 1002               		.loc 2 64 27 view .LVU184
 1003 0308 CDEC      		ldi r28,lo8(-51)
 1004 030a D4E4      		ldi r29,lo8(68)
 1005               	.LVL95:
  64:quantum/keymap_common.c ****             break;
 1006               		.loc 2 64 27 view .LVU185
 1007 030c 00C0      		rjmp .L23
 1008               	.LVL96:
 1009               	.L56:
  64:quantum/keymap_common.c ****             break;
 1010               		.loc 2 64 27 view .LVU186
 1011 030e C3E8      		ldi r28,lo8(-125)
 1012 0310 D5E4      		ldi r29,lo8(69)
 1013               	.LVL97:
  64:quantum/keymap_common.c ****             break;
 1014               		.loc 2 64 27 view .LVU187
 1015 0312 00C0      		rjmp .L23
 1016               	.LVL98:
 1017               	.L57:
  64:quantum/keymap_common.c ****             break;
 1018               		.loc 2 64 27 view .LVU188
 1019 0314 CAE8      		ldi r28,lo8(-118)
 1020 0316 D5E4      		ldi r29,lo8(69)
 1021               	.LVL99:
  64:quantum/keymap_common.c ****             break;
 1022               		.loc 2 64 27 view .LVU189
 1023 0318 00C0      		rjmp .L23
 1024               	.LVL100:
 1025               	.L58:
  64:quantum/keymap_common.c ****             break;
 1026               		.loc 2 64 27 view .LVU190
 1027 031a C2E9      		ldi r28,lo8(-110)
 1028 031c D5E4      		ldi r29,lo8(69)
 1029               	.LVL101:
  64:quantum/keymap_common.c ****             break;
 1030               		.loc 2 64 27 view .LVU191
 1031 031e 00C0      		rjmp .L23
 1032               	.LVL102:
 1033               	.L59:
  64:quantum/keymap_common.c ****             break;
 1034               		.loc 2 64 27 view .LVU192
 1035 0320 C4E9      		ldi r28,lo8(-108)
 1036 0322 D5E4      		ldi r29,lo8(69)
 1037               	.LVL103:
  64:quantum/keymap_common.c ****             break;
 1038               		.loc 2 64 27 view .LVU193
 1039 0324 00C0      		rjmp .L23
 1040               	.LVL104:
 1041               	.L60:
  64:quantum/keymap_common.c ****             break;
 1042               		.loc 2 64 27 view .LVU194
 1043 0326 C1E2      		ldi r28,lo8(33)
 1044 0328 D6E4      		ldi r29,lo8(70)
 1045               	.LVL105:
  64:quantum/keymap_common.c ****             break;
 1046               		.loc 2 64 27 view .LVU195
 1047 032a 00C0      		rjmp .L23
 1048               	.LVL106:
 1049               	.L61:
  64:quantum/keymap_common.c ****             break;
 1050               		.loc 2 64 27 view .LVU196
 1051 032c C3E2      		ldi r28,lo8(35)
 1052 032e D6E4      		ldi r29,lo8(70)
 1053               	.LVL107:
  64:quantum/keymap_common.c ****             break;
 1054               		.loc 2 64 27 view .LVU197
 1055 0330 00C0      		rjmp .L23
 1056               	.LVL108:
 1057               	.L62:
  64:quantum/keymap_common.c ****             break;
 1058               		.loc 2 64 27 view .LVU198
 1059 0332 C4E2      		ldi r28,lo8(36)
 1060 0334 D6E4      		ldi r29,lo8(70)
 1061               	.LVL109:
  64:quantum/keymap_common.c ****             break;
 1062               		.loc 2 64 27 view .LVU199
 1063 0336 00C0      		rjmp .L23
 1064               	.LVL110:
 1065               	.L63:
  64:quantum/keymap_common.c ****             break;
 1066               		.loc 2 64 27 view .LVU200
 1067 0338 C5E2      		ldi r28,lo8(37)
 1068 033a D6E4      		ldi r29,lo8(70)
 1069               	.LVL111:
  64:quantum/keymap_common.c ****             break;
 1070               		.loc 2 64 27 view .LVU201
 1071 033c 00C0      		rjmp .L23
 1072               	.LVL112:
 1073               	.L64:
  64:quantum/keymap_common.c ****             break;
 1074               		.loc 2 64 27 view .LVU202
 1075 033e C6E2      		ldi r28,lo8(38)
 1076 0340 D6E4      		ldi r29,lo8(70)
 1077               	.LVL113:
  64:quantum/keymap_common.c ****             break;
 1078               		.loc 2 64 27 view .LVU203
 1079 0342 00C0      		rjmp .L23
 1080               	.LVL114:
 1081               	.L65:
  64:quantum/keymap_common.c ****             break;
 1082               		.loc 2 64 27 view .LVU204
 1083 0344 C7E2      		ldi r28,lo8(39)
 1084 0346 D6E4      		ldi r29,lo8(70)
 1085               	.LVL115:
  64:quantum/keymap_common.c ****             break;
 1086               		.loc 2 64 27 view .LVU205
 1087 0348 00C0      		rjmp .L23
 1088               	.LVL116:
 1089               	.L66:
  64:quantum/keymap_common.c ****             break;
 1090               		.loc 2 64 27 view .LVU206
 1091 034a CAE2      		ldi r28,lo8(42)
 1092 034c D6E4      		ldi r29,lo8(70)
 1093               	.LVL117:
  64:quantum/keymap_common.c ****             break;
 1094               		.loc 2 64 27 view .LVU207
 1095 034e 00C0      		rjmp .L23
 1096               		.cfi_endproc
 1097               	.LFE29:
 1099               		.weak	fn_actions
 1100               		.section	.progmem.data.fn_actions,"a"
 1103               	fn_actions:
 1104               		.text
 1105               	.Letext0:
 1106               		.file 3 "/usr/local/Cellar/avr-gcc@9/9.3.0_3/avr/include/stdint.h"
 1107               		.file 4 "./tmk_core/common/keyboard.h"
 1108               		.file 5 "./tmk_core/common/keycode.h"
 1109               		.file 6 "./tmk_core/common/action_code.h"
 1110               		.file 7 "/usr/local/Cellar/avr-gcc@9/9.3.0_3/lib/avr-gcc/9/gcc/avr/9.3.0/include/stddef.h"
 1111               		.file 8 "./tmk_core/common/action_macro.h"
 1112               		.file 9 "./tmk_core/common/action.h"
 1113               		.file 10 "./tmk_core/common/report.h"
 1114               		.file 11 "./tmk_core/common/host.h"
 1115               		.file 12 "./tmk_core/common/avr/xprintf.h"
 1116               		.file 13 "./tmk_core/common/debug.h"
 1117               		.file 14 "quantum/keycode_config.h"
 1118               		.file 15 "quantum/quantum_keycodes.h"
 1119               		.file 16 "quantum/keymap.h"
 1120               		.file 17 "./tmk_core/common/action_layer.h"
 1121               		.file 18 "/usr/local/Cellar/avr-gcc@9/9.3.0_3/avr/include/stdio.h"
 1122               		.file 19 "./tmk_core/common/timer.h"
 1123               		.file 20 "./tmk_core/common/action_util.h"
 1124               		.file 21 "/usr/local/Cellar/avr-gcc@9/9.3.0_3/avr/include/stdlib.h"
 1125               		.file 22 "./quantum/process_keycode/process_tap_dance.h"
 1126               		.file 23 "quantum/quantum.h"
DEFINED SYMBOLS
                            *ABS*:0000000000000000 keymap_common.c
/var/folders/_p/hcjbsmwn4x14x6mnhxrqw_c80000gn/T//cc91wAJl.s:2      *ABS*:000000000000003e __SP_H__
/var/folders/_p/hcjbsmwn4x14x6mnhxrqw_c80000gn/T//cc91wAJl.s:3      *ABS*:000000000000003d __SP_L__
/var/folders/_p/hcjbsmwn4x14x6mnhxrqw_c80000gn/T//cc91wAJl.s:4      *ABS*:000000000000003f __SREG__
/var/folders/_p/hcjbsmwn4x14x6mnhxrqw_c80000gn/T//cc91wAJl.s:5      *ABS*:0000000000000000 __tmp_reg__
/var/folders/_p/hcjbsmwn4x14x6mnhxrqw_c80000gn/T//cc91wAJl.s:6      *ABS*:0000000000000001 __zero_reg__
/var/folders/_p/hcjbsmwn4x14x6mnhxrqw_c80000gn/T//cc91wAJl.s:13     .text.rgblight_toggle:0000000000000000 rgblight_toggle
/var/folders/_p/hcjbsmwn4x14x6mnhxrqw_c80000gn/T//cc91wAJl.s:32     .text.rgblight_step:0000000000000000 rgblight_step
/var/folders/_p/hcjbsmwn4x14x6mnhxrqw_c80000gn/T//cc91wAJl.s:47     .text.rgblight_step_reverse:0000000000000000 rgblight_step_reverse
/var/folders/_p/hcjbsmwn4x14x6mnhxrqw_c80000gn/T//cc91wAJl.s:62     .text.rgblight_increase_hue:0000000000000000 rgblight_increase_hue
/var/folders/_p/hcjbsmwn4x14x6mnhxrqw_c80000gn/T//cc91wAJl.s:77     .text.rgblight_decrease_hue:0000000000000000 rgblight_decrease_hue
/var/folders/_p/hcjbsmwn4x14x6mnhxrqw_c80000gn/T//cc91wAJl.s:92     .text.rgblight_increase_sat:0000000000000000 rgblight_increase_sat
/var/folders/_p/hcjbsmwn4x14x6mnhxrqw_c80000gn/T//cc91wAJl.s:107    .text.rgblight_decrease_sat:0000000000000000 rgblight_decrease_sat
/var/folders/_p/hcjbsmwn4x14x6mnhxrqw_c80000gn/T//cc91wAJl.s:122    .text.rgblight_increase_val:0000000000000000 rgblight_increase_val
/var/folders/_p/hcjbsmwn4x14x6mnhxrqw_c80000gn/T//cc91wAJl.s:137    .text.rgblight_decrease_val:0000000000000000 rgblight_decrease_val
/var/folders/_p/hcjbsmwn4x14x6mnhxrqw_c80000gn/T//cc91wAJl.s:152    .text.rgblight_increase_speed:0000000000000000 rgblight_increase_speed
/var/folders/_p/hcjbsmwn4x14x6mnhxrqw_c80000gn/T//cc91wAJl.s:167    .text.rgblight_decrease_speed:0000000000000000 rgblight_decrease_speed
/var/folders/_p/hcjbsmwn4x14x6mnhxrqw_c80000gn/T//cc91wAJl.s:182    .text.action_get_macro:0000000000000000 action_get_macro
/var/folders/_p/hcjbsmwn4x14x6mnhxrqw_c80000gn/T//cc91wAJl.s:206    .text.action_function:0000000000000000 action_function
/var/folders/_p/hcjbsmwn4x14x6mnhxrqw_c80000gn/T//cc91wAJl.s:224    .text.keymap_key_to_keycode:0000000000000000 keymap_key_to_keycode
/var/folders/_p/hcjbsmwn4x14x6mnhxrqw_c80000gn/T//cc91wAJl.s:281    .text.keymap_function_id_to_action:0000000000000000 keymap_function_id_to_action
/var/folders/_p/hcjbsmwn4x14x6mnhxrqw_c80000gn/T//cc91wAJl.s:1103   .progmem.data.fn_actions:0000000000000000 fn_actions
/var/folders/_p/hcjbsmwn4x14x6mnhxrqw_c80000gn/T//cc91wAJl.s:322    .text.action_for_key:0000000000000000 action_for_key

UNDEFINED SYMBOLS
keymaps
keycode_config
mod_config
