   1               		.file	"keymap.c"
   2               	__SP_H__ = 0x3e
   3               	__SP_L__ = 0x3d
   4               	__SREG__ = 0x3f
   5               	__tmp_reg__ = 0
   6               	__zero_reg__ = 1
   7               		.text
   8               	.Ltext0:
   9               		.cfi_sections	.debug_frame
  10               		.section	.text.cmd_commands,"ax",@progbits
  11               	.global	cmd_commands
  13               	cmd_commands:
  14               	.LVL0:
  15               	.LFB30:
  16               		.file 1 "keyboards/Manuform6x6/keymaps/Default/keymap.c"
   1:keyboards/Manuform6x6/keymaps/Default/keymap.c **** #include "Manuform.h"
   2:keyboards/Manuform6x6/keymaps/Default/keymap.c **** #include "action_layer.h"
   3:keyboards/Manuform6x6/keymaps/Default/keymap.c **** #include "eeconfig.h"
   4:keyboards/Manuform6x6/keymaps/Default/keymap.c **** 
   5:keyboards/Manuform6x6/keymaps/Default/keymap.c **** extern keymap_config_t keymap_config;
   6:keyboards/Manuform6x6/keymaps/Default/keymap.c **** #define _QWERTY 1
   7:keyboards/Manuform6x6/keymaps/Default/keymap.c **** #define _COLEMAK 0
   8:keyboards/Manuform6x6/keymaps/Default/keymap.c **** #define _DVORAK 2
   9:keyboards/Manuform6x6/keymaps/Default/keymap.c **** #define _LOWER 3
  10:keyboards/Manuform6x6/keymaps/Default/keymap.c **** #define _RAISE 4
  11:keyboards/Manuform6x6/keymaps/Default/keymap.c **** #define _FN3 5
  12:keyboards/Manuform6x6/keymaps/Default/keymap.c **** //#define _FN4 6
  13:keyboards/Manuform6x6/keymaps/Default/keymap.c **** #define _ADJUST 16
  14:keyboards/Manuform6x6/keymaps/Default/keymap.c **** enum {
  15:keyboards/Manuform6x6/keymaps/Default/keymap.c **** 	TD_CPY_PST = 0,
  16:keyboards/Manuform6x6/keymaps/Default/keymap.c **** 	TD_CMD,
  17:keyboards/Manuform6x6/keymaps/Default/keymap.c **** 	TD_SLSH,
  18:keyboards/Manuform6x6/keymaps/Default/keymap.c **** 	TD_VRDSK
  19:keyboards/Manuform6x6/keymaps/Default/keymap.c **** };
  20:keyboards/Manuform6x6/keymaps/Default/keymap.c **** enum custom_keycodes {
  21:keyboards/Manuform6x6/keymaps/Default/keymap.c **** 	COLEMAK = SAFE_RANGE,
  22:keyboards/Manuform6x6/keymaps/Default/keymap.c **** 	QWERTY,
  23:keyboards/Manuform6x6/keymaps/Default/keymap.c **** 	DVORAK,
  24:keyboards/Manuform6x6/keymaps/Default/keymap.c **** 	LOWER,
  25:keyboards/Manuform6x6/keymaps/Default/keymap.c **** 	RAISE,
  26:keyboards/Manuform6x6/keymaps/Default/keymap.c **** 	FN3,
  27:keyboards/Manuform6x6/keymaps/Default/keymap.c **** //	FN4,
  28:keyboards/Manuform6x6/keymaps/Default/keymap.c **** 	ADJUST,
  29:keyboards/Manuform6x6/keymaps/Default/keymap.c **** 	dance_cln_finished,
  30:keyboards/Manuform6x6/keymaps/Default/keymap.c **** };
  31:keyboards/Manuform6x6/keymaps/Default/keymap.c **** 
  32:keyboards/Manuform6x6/keymaps/Default/keymap.c **** #define KC_ KC_TRNS
  33:keyboards/Manuform6x6/keymaps/Default/keymap.c **** #define _______ KC_TRNS
  34:keyboards/Manuform6x6/keymaps/Default/keymap.c **** #define KC_CAPW LGUI(LSFT(KC_3))        // Capture whole screen
  35:keyboards/Manuform6x6/keymaps/Default/keymap.c **** #define KC_CPYW LGUI(LSFT(LCTL(KC_3)))  // Copy whole screen
  36:keyboards/Manuform6x6/keymaps/Default/keymap.c **** #define KC_CAPP LGUI(LSFT(KC_4))       // Capture portion of screen
  37:keyboards/Manuform6x6/keymaps/Default/keymap.c **** #define KC_CPYP LGUI(LSFT(LCTL(KC_4)))  // Copy portion of screen
  38:keyboards/Manuform6x6/keymaps/Default/keymap.c **** #define KC_X0 MT(MOD_LCTL, KC_ESC)
  39:keyboards/Manuform6x6/keymaps/Default/keymap.c **** #define KC_LDWN LOWER				//Numpad
  40:keyboards/Manuform6x6/keymaps/Default/keymap.c **** #define KC_LUP RAISE
  41:keyboards/Manuform6x6/keymaps/Default/keymap.c **** #define KC_TOGUP TG(4)
  42:keyboards/Manuform6x6/keymaps/Default/keymap.c **** #define KC_REST RESET
  43:keyboards/Manuform6x6/keymaps/Default/keymap.c **** #define KC_X3 LT(_FN3,KC_TAB)		//function layer 4 ie macros when held tab when pressed
  44:keyboards/Manuform6x6/keymaps/Default/keymap.c **** #define KC_X4 LT(_ADJUST, KC_ENT) //Shift when held enter when pressed
  45:keyboards/Manuform6x6/keymaps/Default/keymap.c **** #define KC_X5 LT(RAISE, KC_P0)  //Raise to functions when held P0 when pressed
  46:keyboards/Manuform6x6/keymaps/Default/keymap.c **** #define KC_X6 TD(TD_SLSH)				//slash vs backslash
  47:keyboards/Manuform6x6/keymaps/Default/keymap.c **** #define KC_X7 TD(TD_CPY_PST)		//single tap is copy double is paste
  48:keyboards/Manuform6x6/keymaps/Default/keymap.c **** #define KC_X8 TD(TD_CMD)			//single tap is cmd double is ipconfig
  49:keyboards/Manuform6x6/keymaps/Default/keymap.c **** 
  50:keyboards/Manuform6x6/keymaps/Default/keymap.c **** 
  51:keyboards/Manuform6x6/keymaps/Default/keymap.c **** #define KC_X9 RGUI(KC_TAB)	//gui tab to switch desktops
  52:keyboards/Manuform6x6/keymaps/Default/keymap.c **** #define KC_X10 TD(TD_VRDSK)
  53:keyboards/Manuform6x6/keymaps/Default/keymap.c **** 
  54:keyboards/Manuform6x6/keymaps/Default/keymap.c **** 
  55:keyboards/Manuform6x6/keymaps/Default/keymap.c **** #define KC_XLgn M(1)
  56:keyboards/Manuform6x6/keymaps/Default/keymap.c **** #define KC_EMAL M(2)
  57:keyboards/Manuform6x6/keymaps/Default/keymap.c **** #define KC_WWWX M(3)
  58:keyboards/Manuform6x6/keymaps/Default/keymap.c **** #define KC_NTAB M(4)
  59:keyboards/Manuform6x6/keymaps/Default/keymap.c **** #define KC_0CA M(6)
  60:keyboards/Manuform6x6/keymaps/Default/keymap.c **** #define KC_PASS M(10)
  61:keyboards/Manuform6x6/keymaps/Default/keymap.c **** #define KC_IPCF M(11)
  62:keyboards/Manuform6x6/keymaps/Default/keymap.c **** #define KC_CMD M(16)
  63:keyboards/Manuform6x6/keymaps/Default/keymap.c **** #define KC_OP M(12)
  64:keyboards/Manuform6x6/keymaps/Default/keymap.c **** #define KC_OC M(13)
  65:keyboards/Manuform6x6/keymaps/Default/keymap.c **** #define KC_OD M(14)
  66:keyboards/Manuform6x6/keymaps/Default/keymap.c **** #define KC_TCLK M(15)
  67:keyboards/Manuform6x6/keymaps/Default/keymap.c **** #define KC_ESCT MT(MOD_LCTL, KC_ESC)
  68:keyboards/Manuform6x6/keymaps/Default/keymap.c **** #define KC_GUIT M(0)
  69:keyboards/Manuform6x6/keymaps/Default/keymap.c **** 
  70:keyboards/Manuform6x6/keymaps/Default/keymap.c **** const uint16_t PROGMEM keymaps[][MATRIX_ROWS][MATRIX_COLS] = {
  71:keyboards/Manuform6x6/keymaps/Default/keymap.c **** /* Keymap 0: Basic layer
  72:keyboards/Manuform6x6/keymaps/Default/keymap.c ****  *
  73:keyboards/Manuform6x6/keymaps/Default/keymap.c ****  * ,-------------------------------------------.           ,----------------------------------_----
  74:keyboards/Manuform6x6/keymaps/Default/keymap.c ****  * |   =    |   1  |   2  |   3  |   4  |   5  |           |   6  |   7  |   8  |   9  |   0  |   -
  75:keyboards/Manuform6x6/keymaps/Default/keymap.c ****  * |--------+------+------+------+------+------|           |------+------+------+------+------|----
  76:keyboards/Manuform6x6/keymaps/Default/keymap.c ****  * |Tab\FN3 |   Q  |   W  |   F  |   P  |   G  |           |   J  |   L  |   U  |   Y  |   :  |   \
  77:keyboards/Manuform6x6/keymaps/Default/keymap.c ****  * |--------+------+------+------+------+----- |           |------+------+------+------+------|----
  78:keyboards/Manuform6x6/keymaps/Default/keymap.c ****  * | ENT/ADJ|   A  |   R  |   S  |   T  |   D  |           |   H  |   N  |   E  |   I  |   O  | ENT
  79:keyboards/Manuform6x6/keymaps/Default/keymap.c ****  * |--------+------+------+------+------+------|           |------+------+------+------+------|----
  80:keyboards/Manuform6x6/keymaps/Default/keymap.c ****  * | LShift |   Z  |   X  |   C  |   V  |   B  |           |   K  |   M  |   ,  |   .  |  /   |RShi
  81:keyboards/Manuform6x6/keymaps/Default/keymap.c ****  * `--------+------+------+------+------+------'           `-------+------+------+------+------|---
  82:keyboards/Manuform6x6/keymaps/Default/keymap.c ****  * |CTR     |  ALT | GUI  | Left | Right|      |           |      |      | LEFT | RIGHT|  UP  | DOW
  83:keyboards/Manuform6x6/keymaps/Default/keymap.c ****  * `--------------------------------------------'           ---------------------------------------
  84:keyboards/Manuform6x6/keymaps/Default/keymap.c ****  *      		    | Left | Right		|Backsp| L2 | 	 |Enter| Space|		 DEL | SCRN |
  85:keyboards/Manuform6x6/keymaps/Default/keymap.c ****  *				   -----------------------------		    -----------------------------
  86:keyboards/Manuform6x6/keymaps/Default/keymap.c ****  *                				 |      |ctrTab|			|     |      |
  87:keyboards/Manuform6x6/keymaps/Default/keymap.c ****  *				   ------------------------------		    -----------------------------
  88:keyboards/Manuform6x6/keymaps/Default/keymap.c ****  *								 |PGUP  |PGDWN |			|Home |END|
  89:keyboards/Manuform6x6/keymaps/Default/keymap.c ****  
  90:keyboards/Manuform6x6/keymaps/Default/keymap.c ****  222222222
  91:keyboards/Manuform6x6/keymaps/Default/keymap.c ****  | 4|  2| 3  | 1 |				|  1 | 3  | 2  | 4  |
  92:keyboards/Manuform6x6/keymaps/Default/keymap.c **** 
  93:keyboards/Manuform6x6/keymaps/Default/keymap.c ****  |   1 |  2  |					|  2  | 1   |
  94:keyboards/Manuform6x6/keymaps/Default/keymap.c ****  |  3  |  4  |					|  4  | 3   |
  95:keyboards/Manuform6x6/keymaps/Default/keymap.c **** 
  96:keyboards/Manuform6x6/keymaps/Default/keymap.c ****  
  97:keyboards/Manuform6x6/keymaps/Default/keymap.c ****  
  98:keyboards/Manuform6x6/keymaps/Default/keymap.c ****  
  99:keyboards/Manuform6x6/keymaps/Default/keymap.c ****  2a
 100:keyboards/Manuform6x6/keymaps/Default/keymap.c **** 		6	5		4	 
 101:keyboards/Manuform6x6/keymaps/Default/keymap.c **** 		3		2			2		 3		4		5		6
 102:keyboards/Manuform6x6/keymaps/Default/keymap.c ****  *                                 ,-------------.       ,-------------.
 103:keyboards/Manuform6x6/keymaps/Default/keymap.c ****  *                                 |   6  |   5  |       | 5    |  6     |
 104:keyboards/Manuform6x6/keymaps/Default/keymap.c ****  *                          ,------|------|------|       |------+--------+------.
 105:keyboards/Manuform6x6/keymaps/Default/keymap.c ****  *                          |      |      |   4  |       | 4    |        |      |
 106:keyboards/Manuform6x6/keymaps/Default/keymap.c ****  *                          |Backsp|GUI   |------|       |------|    1   |    2 |
 107:keyboards/Manuform6x6/keymaps/Default/keymap.c ****  *                          |  acs |TAB   |   3  |       | 3    |        |      |
 108:keyboards/Manuform6x6/keymaps/Default/keymap.c ****  *32233222`--------------------'       `----------------------'
 109:keyboards/Manuform6x6/keymaps/Default/keymap.c ****  */
 110:keyboards/Manuform6x6/keymaps/Default/keymap.c **** 	
 111:keyboards/Manuform6x6/keymaps/Default/keymap.c **** 			[_COLEMAK] = KC_KEYMAP(
 112:keyboards/Manuform6x6/keymaps/Default/keymap.c **** 	//,----+----+----+----+----+----.			,----+----+----+----+----+----.
 113:keyboards/Manuform6x6/keymaps/Default/keymap.c **** 		EQL, 1  , 2  , 3  , 4  , 5  ,   		  6  , 7  , 8  , 9 , 0   ,MINS,
 114:keyboards/Manuform6x6/keymaps/Default/keymap.c **** 	//,----+----+----+----+----+----.   		,----+----+----+----+----+----.
 115:keyboards/Manuform6x6/keymaps/Default/keymap.c **** 		X3 , Q  , W  , F  , P  , G  ,  		  	  J  , L  , U  , Y  ,SCLN,BSLS,
 116:keyboards/Manuform6x6/keymaps/Default/keymap.c **** 	//|----+----+----+----+----+----| 			|----+----+----+----+----+----|
 117:keyboards/Manuform6x6/keymaps/Default/keymap.c **** 		X4 , A  , R  , S  , T  , D  ,  		   	  H  , N  , E  , I  , O  ,ENT,
 118:keyboards/Manuform6x6/keymaps/Default/keymap.c **** 	//|----+----+----+----+----+----|  		  	|----+----+----+----+----+----|
 119:keyboards/Manuform6x6/keymaps/Default/keymap.c **** 		LSFT, Z  , X  , C  , V  , B  ,		      K  , M  ,COMM,DOT ,SLSH,GRV,
 120:keyboards/Manuform6x6/keymaps/Default/keymap.c **** 	//|----+----+----+----+----+----|  		 	|----+----+----+----+----+----|
 121:keyboards/Manuform6x6/keymaps/Default/keymap.c **** 		ESCT,LALT,LGUI,   1,  1 ,GRV,			  DEL ,   ,LEFT,RIGHT,   ,QUOT,
 122:keyboards/Manuform6x6/keymaps/Default/keymap.c **** 	//`----+----+----+----+----+----'   	 	`----+----+----+----+----+----'
 123:keyboards/Manuform6x6/keymaps/Default/keymap.c **** 				 LEFT,RIGHT,		    					UP  ,DOWN,
 124:keyboards/Manuform6x6/keymaps/Default/keymap.c **** 	//`----+----+----+----+----+----'    ----+----+----+----+----+----'
 125:keyboards/Manuform6x6/keymaps/Default/keymap.c **** 							BSPC,LSFT,			  ENT , SPC,
 126:keyboards/Manuform6x6/keymaps/Default/keymap.c **** 	//						   |----------|  |----------|						
 127:keyboards/Manuform6x6/keymaps/Default/keymap.c **** 								GUIT, PSCR,   HOME,DEL,
 128:keyboards/Manuform6x6/keymaps/Default/keymap.c **** 	//						   |----,----,|  |----.-----|
 129:keyboards/Manuform6x6/keymaps/Default/keymap.c **** 								LDWN, GRV,	  END , LUP 
 130:keyboards/Manuform6x6/keymaps/Default/keymap.c **** 	),
 131:keyboards/Manuform6x6/keymaps/Default/keymap.c **** 	
 132:keyboards/Manuform6x6/keymaps/Default/keymap.c **** 		[_QWERTY] = KC_KEYMAP(
 133:keyboards/Manuform6x6/keymaps/Default/keymap.c **** 	//,----+----+----+----+----+----.    ,----+----+----+----+----+----.
 134:keyboards/Manuform6x6/keymaps/Default/keymap.c **** 		EQL, 1  , 2  , 3  , 4  , 5  ,      6  , 7  , 8  , 9 , 0  ,MINS,
 135:keyboards/Manuform6x6/keymaps/Default/keymap.c **** 	//,----+----+----+----+----+----.    ,----+----+----+----+----+----.
 136:keyboards/Manuform6x6/keymaps/Default/keymap.c **** 		X3 , Q  , W  , E  , R  , T  ,      Y  , U  , I  , O , P  ,BSLS,
 137:keyboards/Manuform6x6/keymaps/Default/keymap.c **** 	//|----+----+----+----+----+----|    |----+----+----+----+----+----|
 138:keyboards/Manuform6x6/keymaps/Default/keymap.c **** 		X4 , A  , S  , D  , F  , G  ,      H  , J  , K  , L  ,SCLN,ENT,
 139:keyboards/Manuform6x6/keymaps/Default/keymap.c **** 	//|----+----+----+----+----+----|    |----+----+----+----+----+----|
 140:keyboards/Manuform6x6/keymaps/Default/keymap.c **** 		LSFT , Z  , X  , C  , V  , B  ,      N  , M  ,COMM,DOT,SLSH,GRV,
 141:keyboards/Manuform6x6/keymaps/Default/keymap.c **** 	//|----+----+----+----+----+----|    |----+----+----+----+----+----|
 142:keyboards/Manuform6x6/keymaps/Default/keymap.c **** 		ESCT,LALT,LGUI,LEFT,RIGHT,BSPC,    SPC,LEFT,RIGHT,UP ,DOWN,QUOT,
 143:keyboards/Manuform6x6/keymaps/Default/keymap.c **** 	//`----+----+----+----+----+----'    `----+----+----+----+----+----'
 144:keyboards/Manuform6x6/keymaps/Default/keymap.c **** 				 LEFT,RIGHT,		    					UP  ,DOWN,
 145:keyboards/Manuform6x6/keymaps/Default/keymap.c **** 	//`----+----+----+----+----+----'   		 ----+----+----+----+----+----'
 146:keyboards/Manuform6x6/keymaps/Default/keymap.c **** 							BSPC,LSFT,			  ENT , SPC,
 147:keyboards/Manuform6x6/keymaps/Default/keymap.c **** 	//						   |----------|  |----------|						
 148:keyboards/Manuform6x6/keymaps/Default/keymap.c **** 								GUIT, PSCR,   HOME,DEL,
 149:keyboards/Manuform6x6/keymaps/Default/keymap.c **** 	//						   |----,----,|  |----.-----|
 150:keyboards/Manuform6x6/keymaps/Default/keymap.c **** 								LDWN, GRV,	  END , LUP 
 151:keyboards/Manuform6x6/keymaps/Default/keymap.c **** 	),
 152:keyboards/Manuform6x6/keymaps/Default/keymap.c **** 
 153:keyboards/Manuform6x6/keymaps/Default/keymap.c **** 	[_DVORAK] = KC_KEYMAP(
 154:keyboards/Manuform6x6/keymaps/Default/keymap.c **** 	//,----+----+----+----+----+----.    ,----+----+----+----+----+----.
 155:keyboards/Manuform6x6/keymaps/Default/keymap.c **** 		EQL, 1  , 2  , 3  , 4  , 5  ,      6  , 7  , 8  , 9 , 0  ,MINS,
 156:keyboards/Manuform6x6/keymaps/Default/keymap.c **** 	//,----+----+----+----+----+----.    ,----+----+----+----+----+----.
 157:keyboards/Manuform6x6/keymaps/Default/keymap.c **** 		TAB ,QUOT,COMM,DOT , P  , Y  ,      F  , G  , C  , R  , L  ,MINS,
 158:keyboards/Manuform6x6/keymaps/Default/keymap.c **** 	//|----+----+----+----+----+----|    |----+----+----+----+----+----|
 159:keyboards/Manuform6x6/keymaps/Default/keymap.c **** 		X0 , A  , O  , E  , U  , I  ,      D  , H  , T  , N  , S  ,SLSH,
 160:keyboards/Manuform6x6/keymaps/Default/keymap.c **** 	//|----+----+----+----+----+----|    |----+----+----+----+----+----|
 161:keyboards/Manuform6x6/keymaps/Default/keymap.c **** 		LSFT,SCLN, Q  , J  , K  , X  ,      B  , M  , W  , V  , Z  , X4 ,
 162:keyboards/Manuform6x6/keymaps/Default/keymap.c **** 	//|----+----+----+----+----+----|    |----+----+----+----+----+----|
 163:keyboards/Manuform6x6/keymaps/Default/keymap.c **** 		X3 ,LCTL,LALT,LGUI, LDWN ,SPC ,     BSPC, UP ,LEFT,DOWN, UP ,RGHT,
 164:keyboards/Manuform6x6/keymaps/Default/keymap.c **** 	//`----+----+----+----+----+----'    `----+----+----+----+----+----'
 165:keyboards/Manuform6x6/keymaps/Default/keymap.c **** 				 LEFT,RIGHT,		    					UP  ,DOWN,
 166:keyboards/Manuform6x6/keymaps/Default/keymap.c **** 	//`----+----+----+----+----+----'   		 ----+----+----+----+----+----'
 167:keyboards/Manuform6x6/keymaps/Default/keymap.c **** 							BSPC,LSFT,			  ENT , SPC,
 168:keyboards/Manuform6x6/keymaps/Default/keymap.c **** 	//						   |----------|  |----------|						
 169:keyboards/Manuform6x6/keymaps/Default/keymap.c **** 								GUIT, PSCR,   HOME,DEL,
 170:keyboards/Manuform6x6/keymaps/Default/keymap.c **** 	//						   |----,----,|  |----.-----|
 171:keyboards/Manuform6x6/keymaps/Default/keymap.c **** 								LDWN, GRV,	  END , LUP 
 172:keyboards/Manuform6x6/keymaps/Default/keymap.c **** 	),
 173:keyboards/Manuform6x6/keymaps/Default/keymap.c **** /*
 174:keyboards/Manuform6x6/keymaps/Default/keymap.c **** 	[_LOWER] = KC_KEYMAP(
 175:keyboards/Manuform6x6/keymaps/Default/keymap.c **** 	//,----+----+----+----+----+----.    ,----+----+----+----+----+----.
 176:keyboards/Manuform6x6/keymaps/Default/keymap.c **** 		ESC , 1  , 2 , 3  , 4  , 5  ,      6  , 7  , 8  , 9  , 0  , EQL ,
 177:keyboards/Manuform6x6/keymaps/Default/keymap.c **** 	//|----+----+----+----+----+----|    |----+----+----+----+----+----|
 178:keyboards/Manuform6x6/keymaps/Default/keymap.c **** 		DEL ,CAPP,LEFT,RGHT, UP ,LBRC,     RBRC, P4 , P5 , P6 ,PLUS,PIPE,
 179:keyboards/Manuform6x6/keymaps/Default/keymap.c **** 	//|----+----+----+----+----+----|    |----+----+----+----+----+----|
 180:keyboards/Manuform6x6/keymaps/Default/keymap.c **** 			,CPYP, UP ,    ,DOWN,LCBR,     RCBR, P1 , P2 , P3 ,MINS,    ,
 181:keyboards/Manuform6x6/keymaps/Default/keymap.c **** 	//|----+----+----+----+----+----|    |----+----+----+----+----+----|
 182:keyboards/Manuform6x6/keymaps/Default/keymap.c **** 			,LEFT,DOWN,RIGHT,    ,    ,     DEL ,   , P0 ,PDOT,    ,  NLCK, 
 183:keyboards/Manuform6x6/keymaps/Default/keymap.c **** 	//`----+----+----+----+----+----'    `----+----+----+----+----+----'
 184:keyboards/Manuform6x6/keymaps/Default/keymap.c **** 		X0 ,LALT,LGUI, X10, LDWN ,BSPC,     SPC, UP ,QUOT,LEFT, DOWN ,RGHT,
 185:keyboards/Manuform6x6/keymaps/Default/keymap.c **** 	//`----+----+----+----+----+----'    `----+----+----+----+----+----'
 186:keyboards/Manuform6x6/keymaps/Default/keymap.c **** 		X3  , 1  ,REST, 3  ,    , 5  ,      6  ,    , 8  , 9 , 0  ,MINS
 187:keyboards/Manuform6x6/keymaps/Default/keymap.c **** 	//`----+----+----+----+----+----'    `----+----+----+----+----+----'
 188:keyboards/Manuform6x6/keymaps/Default/keymap.c **** 	),
 189:keyboards/Manuform6x6/keymaps/Default/keymap.c **** 
 190:keyboards/Manuform6x6/keymaps/Default/keymap.c **** 	[_RAISE] = KC_KEYMAP(
 191:keyboards/Manuform6x6/keymaps/Default/keymap.c **** 	//,----+----+----+----+----+----.    ,----+----+----+----+----+----.
 192:keyboards/Manuform6x6/keymaps/Default/keymap.c **** 		ESC ,EXLM, AT ,HASH,DLR ,PERC,     CIRC,AMPR,ASTR,LPRN,RPRN,    ,
 193:keyboards/Manuform6x6/keymaps/Default/keymap.c **** 	//|----+----+----+----+----+----|    |----+----+----+----+----+----|
 194:keyboards/Manuform6x6/keymaps/Default/keymap.c **** 		DEL ,MPRV,MNXT,VOLU,PGUP,UNDS,     EQL ,HOME,    ,    ,    ,BSLS,
 195:keyboards/Manuform6x6/keymaps/Default/keymap.c **** 	//|----+----+----+----+----+----|    |----+----+----+----+----+----|88
 196:keyboards/Manuform6x6/keymaps/Default/keymap.c **** 		LSFT,MSTP,MPLY,VOLD,PGDN,MINS,     PLUS,END,COMM ,    ,UP ,    ,
 197:keyboards/Manuform6x6/keymaps/Default/keymap.c **** 	//|----+----+----+----+----+----|    |----+----+----+----+----+----|
 198:keyboards/Manuform6x6/keymaps/Default/keymap.c **** 		,    ,    , X3 ,    ,    ,         ,    ,    ,LEFT,DOWN,RIGHT,    
 199:keyboards/Manuform6x6/keymaps/Default/keymap.c **** 	//`----+----+----+----+----+----'    `----+----+----+----+----+----'
 200:keyboards/Manuform6x6/keymaps/Default/keymap.c **** 		X0 ,LALT,LGUI, X10, LDWN ,BSPC,     SPC, UP ,QUOT,LEFT, DOWN ,RGHT,
 201:keyboards/Manuform6x6/keymaps/Default/keymap.c **** 	//`----+----+----+----+----+----'    `----+----+----+----+----+----'
 202:keyboards/Manuform6x6/keymaps/Default/keymap.c **** 		X3  , 1  , 2  , 3  ,   , 5  ,      6  ,   , 8  ,REST, 0  ,MINS
 203:keyboards/Manuform6x6/keymaps/Default/keymap.c **** 	//`----+----+----+----+----+----'    `----+----+----+----+----+----'
 204:keyboards/Manuform6x6/keymaps/Default/keymap.c **** 	),*/
 205:keyboards/Manuform6x6/keymaps/Default/keymap.c **** 	
 206:keyboards/Manuform6x6/keymaps/Default/keymap.c **** 	[_LOWER] = KC_KEYMAP(
 207:keyboards/Manuform6x6/keymaps/Default/keymap.c **** 	//,----+----+----+----+----+----.    ,----+----+----+----+----+----.
 208:keyboards/Manuform6x6/keymaps/Default/keymap.c **** 		GRV, OP ,OC  , OD ,    ,    ,         ,    ,    ,LBRC,RBRC,  ,
 209:keyboards/Manuform6x6/keymaps/Default/keymap.c **** 	//|----+----+----+----+----+----|    |----+----+----+----+----+----|
 210:keyboards/Manuform6x6/keymaps/Default/keymap.c **** 		  ,     ,WWWX,EMAL,    ,TCLK,         ,    ,    ,CMD ,PASS,   ,
 211:keyboards/Manuform6x6/keymaps/Default/keymap.c **** 	//|----+----+----+----+----+----|    |----+----+----+----+----+----|
 212:keyboards/Manuform6x6/keymaps/Default/keymap.c **** 		   ,0CA ,     ,   ,    ,    ,         ,    , UP ,IPCF,     ,   ,
 213:keyboards/Manuform6x6/keymaps/Default/keymap.c **** 	//|----+----+----+----+----+----|    |----+----+----+----+----+----|
 214:keyboards/Manuform6x6/keymaps/Default/keymap.c **** 		  ,    ,XLgn,     ,    ,    ,         ,LEFT,DOWN,RIGHT,    ,   ,
 215:keyboards/Manuform6x6/keymaps/Default/keymap.c **** 	//|----+----+----+----+----+----|    |----+----+----+----+----+----|
 216:keyboards/Manuform6x6/keymaps/Default/keymap.c **** 		REST,    ,    ,    ,    , REST  ,         ,    ,    ,    ,    ,REST,
 217:keyboards/Manuform6x6/keymaps/Default/keymap.c **** 	//|----+----+----+----+----+----|    |----+----+----+----+----+----|
 218:keyboards/Manuform6x6/keymaps/Default/keymap.c **** 				 LEFT,RIGHT,		    					UP  ,DOWN,
 219:keyboards/Manuform6x6/keymaps/Default/keymap.c **** 	//`----+----+----+----+----+----'   		 ----+----+----+----+----+----'
 220:keyboards/Manuform6x6/keymaps/Default/keymap.c **** 							BSPC,LSFT,			  ENT , SPC,
 221:keyboards/Manuform6x6/keymaps/Default/keymap.c **** 	//						   |----------|  |----------|						
 222:keyboards/Manuform6x6/keymaps/Default/keymap.c **** 								GUIT, PSCR,   HOME,DEL,
 223:keyboards/Manuform6x6/keymaps/Default/keymap.c **** 	//						   |----,----,|  |----.-----|
 224:keyboards/Manuform6x6/keymaps/Default/keymap.c **** 								LDWN, GRV,	  END , LUP 
 225:keyboards/Manuform6x6/keymaps/Default/keymap.c **** 	),
 226:keyboards/Manuform6x6/keymaps/Default/keymap.c **** 
 227:keyboards/Manuform6x6/keymaps/Default/keymap.c **** 	
 228:keyboards/Manuform6x6/keymaps/Default/keymap.c **** 	[_RAISE] = KC_KEYMAP(
 229:keyboards/Manuform6x6/keymaps/Default/keymap.c **** 	//,----+----+----+----+----+----.    ,----+----+----+----+----+----.
 230:keyboards/Manuform6x6/keymaps/Default/keymap.c **** 		GRV, 1  , 2  , 3  , 4  , 5  ,      6  , 7  , 8  , 9, 0   ,MINS,
 231:keyboards/Manuform6x6/keymaps/Default/keymap.c **** 	//|----+----+----+----+----+----|    |----+----+----+----+----+----|
 232:keyboards/Manuform6x6/keymaps/Default/keymap.c **** 		8 , 1  , WWWX, 1  , 1  , 1  ,      NO , 4  , 5  , 6  ,PMNS, NO   , 
 233:keyboards/Manuform6x6/keymaps/Default/keymap.c **** 	//|----+----+----+----+----+----|    |----+----+----+----+----+----|
 234:keyboards/Manuform6x6/keymaps/Default/keymap.c **** 		8 , 1  , 1  , 1  , 1  , 1  ,       NO , 1   , 2  ,  3 ,PPLS, NO   ,
 235:keyboards/Manuform6x6/keymaps/Default/keymap.c **** 	//|----+----+----+----+----+----|    |----+----+----+----+----+----|
 236:keyboards/Manuform6x6/keymaps/Default/keymap.c **** 		8 , 1  ,1, 1  , 1  , 1  ,          NO , 0  , 0  , DOT , NO, NO,
 237:keyboards/Manuform6x6/keymaps/Default/keymap.c **** 	//|----+----+----+----+----+----|    |----+----+----+----+----+----|
 238:keyboards/Manuform6x6/keymaps/Default/keymap.c **** 		REST, 1  , 1  , 1  , 1  ,   ,      REST ,PSLS, PAST, NO , NO  ,REST,
 239:keyboards/Manuform6x6/keymaps/Default/keymap.c **** 	//|----+----+----+----+----+----|    |----+----+----+----+----+----|
 240:keyboards/Manuform6x6/keymaps/Default/keymap.c **** 				 LEFT,RIGHT,		    					UP  ,DOWN,
 241:keyboards/Manuform6x6/keymaps/Default/keymap.c **** 	//`----+----+----+----+----+----'   		 ----+----+----+----+----+----'
 242:keyboards/Manuform6x6/keymaps/Default/keymap.c **** 							BSPC,LSFT,			  ENT , SPC,
 243:keyboards/Manuform6x6/keymaps/Default/keymap.c **** 	//						   |----------|  |----------|						
 244:keyboards/Manuform6x6/keymaps/Default/keymap.c **** 								GUIT, PSCR,   HOME,DEL,
 245:keyboards/Manuform6x6/keymaps/Default/keymap.c **** 	//						   |----,----,|  |----.-----|
 246:keyboards/Manuform6x6/keymaps/Default/keymap.c **** 								LDWN, GRV,	  END , LUP 
 247:keyboards/Manuform6x6/keymaps/Default/keymap.c **** 	),
 248:keyboards/Manuform6x6/keymaps/Default/keymap.c **** 	
 249:keyboards/Manuform6x6/keymaps/Default/keymap.c **** 	
 250:keyboards/Manuform6x6/keymaps/Default/keymap.c **** 	[_FN3] = KC_KEYMAP(
 251:keyboards/Manuform6x6/keymaps/Default/keymap.c **** 	//,----+----+----+----+----+----.    ,----+----+----+----+----+----.
 252:keyboards/Manuform6x6/keymaps/Default/keymap.c **** 		F12 , F1 , F2 , F3 , F4 , F5 ,      F6 , F7 , F8 , F9 ,F10 ,F11 ,
 253:keyboards/Manuform6x6/keymaps/Default/keymap.c **** 	//|----+----+----+----+----+----|    |----+----+----+----+----+----|
 254:keyboards/Manuform6x6/keymaps/Default/keymap.c **** 			, 3 , 3,  3, 3  , 3  ,         ,    ,    ,    ,    ,    ,
 255:keyboards/Manuform6x6/keymaps/Default/keymap.c **** 	//|----+----+----+----+----+----|    |----+----+----+----+----+----|
 256:keyboards/Manuform6x6/keymaps/Default/keymap.c **** 			,    ,UP,    ,    ,    ,         ,    ,    ,    , UP ,    ,
 257:keyboards/Manuform6x6/keymaps/Default/keymap.c **** 	//|----+----+----+----+----+----|    |----+----+----+----+----+----|
 258:keyboards/Manuform6x6/keymaps/Default/keymap.c **** 			,LEFT,DOWN,RIGHT,    ,    ,          ,    ,    ,LEFT,DOWN,RIGHT,  
 259:keyboards/Manuform6x6/keymaps/Default/keymap.c **** 	//`----+----+----+----+----+----'    `----+----+----+----+----+----'
 260:keyboards/Manuform6x6/keymaps/Default/keymap.c **** 		X0 ,LALT,LGUI, X10, LDWN ,BSPC,     SPC, UP ,QUOT,LEFT, DOWN ,RGHT,
 261:keyboards/Manuform6x6/keymaps/Default/keymap.c **** 	//`----+----+----+----+----+----'    `----+----+----+----+----+----'
 262:keyboards/Manuform6x6/keymaps/Default/keymap.c **** 				 LEFT,RIGHT,		    					UP  ,DOWN,
 263:keyboards/Manuform6x6/keymaps/Default/keymap.c **** 	//`----+----+----+----+----+----'    ----+----+----+----+----+----'
 264:keyboards/Manuform6x6/keymaps/Default/keymap.c **** 							BSPC,LSFT,			  ENT , SPC,
 265:keyboards/Manuform6x6/keymaps/Default/keymap.c **** 	//						   |----------|  |----------|						
 266:keyboards/Manuform6x6/keymaps/Default/keymap.c **** 								GUIT, PSCR,   HOME,DEL,
 267:keyboards/Manuform6x6/keymaps/Default/keymap.c **** 	//						   |----,----,|  |----.-----|
 268:keyboards/Manuform6x6/keymaps/Default/keymap.c **** 								LDWN, GRV,	  END , LUP 
 269:keyboards/Manuform6x6/keymaps/Default/keymap.c **** 	),
 270:keyboards/Manuform6x6/keymaps/Default/keymap.c **** /*
 271:keyboards/Manuform6x6/keymaps/Default/keymap.c **** 	[_FN4] = KEYMAP( \
 272:keyboards/Manuform6x6/keymaps/Default/keymap.c **** 	_______, _______, M(3)   , M(2)     , _______,  M(4)  ,		 _______, _______, _______, _______, ____
 273:keyboards/Manuform6x6/keymaps/Default/keymap.c **** 	_______, M(6)   , _______, _______  , _______, _______,		 _______, _______, _______, _______, ____
 274:keyboards/Manuform6x6/keymaps/Default/keymap.c **** 	_______, _______, M(1)   ,TD(TD_CMD), _______, _______,		 _______, _______, _______, _______, KC_U
 275:keyboards/Manuform6x6/keymaps/Default/keymap.c **** 	M(7)   , M(8)   , M(9)   , _______  , _______, _______,		 _______, _______, _______, KC_LEFT, KC_D
 276:keyboards/Manuform6x6/keymaps/Default/keymap.c **** 	_______, _______, _______, _______  , _______, _______,		 _______, _______, _______, _______, ____
 277:keyboards/Manuform6x6/keymaps/Default/keymap.c **** 	_______, _______ , _______, _______  , _______, _______,	 _______, _______, _______, _______, ____
 278:keyboards/Manuform6x6/keymaps/Default/keymap.c **** 	),*/
 279:keyboards/Manuform6x6/keymaps/Default/keymap.c **** 
 280:keyboards/Manuform6x6/keymaps/Default/keymap.c **** 	/* Adjust (Lower + Raise)
 281:keyboards/Manuform6x6/keymaps/Default/keymap.c **** * ,-----------------------------------------------------------------------------------.
 282:keyboards/Manuform6x6/keymaps/Default/keymap.c **** * |      | Reset|RGB Tg|RGB Md|Hue Up|Hue Dn|Sat Up|Sat Dn|Val Up|Val Dn| RESET|      |
 283:keyboards/Manuform6x6/keymaps/Default/keymap.c **** * |------+------+------+------+------+-------------+------+------+------+------+------|
 284:keyboards/Manuform6x6/keymaps/Default/keymap.c **** * |      |      |      |Aud on|Audoff|AGnorm|AGswap|Qwerty|Colemk|Dvorak|      |      |
 285:keyboards/Manuform6x6/keymaps/Default/keymap.c **** * |------+------+------+------+------+------|------+------+------+------+------+------|
 286:keyboards/Manuform6x6/keymaps/Default/keymap.c **** * |      |      |      |      |      |      |      |      |      |      |      |      |
 287:keyboards/Manuform6x6/keymaps/Default/keymap.c **** * |------+------+------+------+------+------+------+------+------+------+------+------|
 288:keyboards/Manuform6x6/keymaps/Default/keymap.c **** * |      |      |      |      |      |             |      |      |      |      |      |
 289:keyboards/Manuform6x6/keymaps/Default/keymap.c **** * `-----------------------------------------------------------------------------------'
 290:keyboards/Manuform6x6/keymaps/Default/keymap.c **** */
 291:keyboards/Manuform6x6/keymaps/Default/keymap.c **** 	[_ADJUST] = KEYMAP( \
 292:keyboards/Manuform6x6/keymaps/Default/keymap.c **** 	_______, COLEMAK, QWERTY, RGB_MOD, RGB_HUD, RGB_HUI, RGB_SAD, RGB_SAI, RGB_VAD, RGB_VAI, RESET  , 
 293:keyboards/Manuform6x6/keymaps/Default/keymap.c **** 	_______, QWERTY, _______, AU_ON,   AU_OFF,  AG_NORM, AG_SWAP, QWERTY,  COLEMAK, DVORAK,  DEBUG, __
 294:keyboards/Manuform6x6/keymaps/Default/keymap.c **** 	_______, KC_1   , KC_1   , _______, _______, _______, _______, _______, _______, _______, _______,
 295:keyboards/Manuform6x6/keymaps/Default/keymap.c **** 	_______, _______, _______, COLEMAK, _______, _______, _______, _______, _______, _______, _______,
 296:keyboards/Manuform6x6/keymaps/Default/keymap.c **** 	_______, _______, _______, _______, _______, _______, _______, _______, _______, _______, _______,
 297:keyboards/Manuform6x6/keymaps/Default/keymap.c **** 	_______, _______, _______, _______, _______, _______, _______, _______,  \
 298:keyboards/Manuform6x6/keymaps/Default/keymap.c **** 	_______, _______, _______, _______, _______, _______, _______, _______  \
 299:keyboards/Manuform6x6/keymaps/Default/keymap.c **** 	)
 300:keyboards/Manuform6x6/keymaps/Default/keymap.c **** 
 301:keyboards/Manuform6x6/keymaps/Default/keymap.c **** 
 302:keyboards/Manuform6x6/keymaps/Default/keymap.c **** };
 303:keyboards/Manuform6x6/keymaps/Default/keymap.c **** 
 304:keyboards/Manuform6x6/keymaps/Default/keymap.c **** #ifdef AUDIO_ENABLE
 305:keyboards/Manuform6x6/keymaps/Default/keymap.c **** float tone_qwerty[][2]     = SONG(QWERTY_SOUND);
 306:keyboards/Manuform6x6/keymaps/Default/keymap.c **** float tone_dvorak[][2]     = SONG(DVORAK_SOUND);
 307:keyboards/Manuform6x6/keymaps/Default/keymap.c **** float tone_colemak[][2]    = SONG(COLEMAK_SOUND);
 308:keyboards/Manuform6x6/keymaps/Default/keymap.c **** #endif
 309:keyboards/Manuform6x6/keymaps/Default/keymap.c **** 
 310:keyboards/Manuform6x6/keymaps/Default/keymap.c **** void persistent_default_layer_set(uint16_t default_layer) {
 311:keyboards/Manuform6x6/keymaps/Default/keymap.c **** 	eeconfig_update_default_layer(default_layer);
 312:keyboards/Manuform6x6/keymaps/Default/keymap.c **** 	default_layer_set(default_layer);
 313:keyboards/Manuform6x6/keymaps/Default/keymap.c **** }
 314:keyboards/Manuform6x6/keymaps/Default/keymap.c **** 
 315:keyboards/Manuform6x6/keymaps/Default/keymap.c **** /*
 316:keyboards/Manuform6x6/keymaps/Default/keymap.c **** void dance_cln_finished(void){
 317:keyboards/Manuform6x6/keymaps/Default/keymap.c **** register_code (KC_LGUI);
 318:keyboards/Manuform6x6/keymaps/Default/keymap.c **** register_code(KC_TAB);
 319:keyboards/Manuform6x6/keymaps/Default/keymap.c **** unregister_code(KC_TAB);
 320:keyboards/Manuform6x6/keymaps/Default/keymap.c **** unregister_code(KC_LGUI); 
 321:keyboards/Manuform6x6/keymaps/Default/keymap.c **** }*/
 322:keyboards/Manuform6x6/keymaps/Default/keymap.c **** 
 323:keyboards/Manuform6x6/keymaps/Default/keymap.c **** const macro_t *action_get_macro(keyrecord_t *record, uint8_t id, uint8_t opt) {
 324:keyboards/Manuform6x6/keymaps/Default/keymap.c **** 	
 325:keyboards/Manuform6x6/keymaps/Default/keymap.c **** 	switch (id) {
 326:keyboards/Manuform6x6/keymaps/Default/keymap.c **** 	case 0:
 327:keyboards/Manuform6x6/keymaps/Default/keymap.c **** 		if (record->event.pressed) {
 328:keyboards/Manuform6x6/keymaps/Default/keymap.c **** 			return MACRO(D(LGUI), T(TAB), U(LGUI), END);
 329:keyboards/Manuform6x6/keymaps/Default/keymap.c **** 		}
 330:keyboards/Manuform6x6/keymaps/Default/keymap.c **** 	case 1:
 331:keyboards/Manuform6x6/keymaps/Default/keymap.c **** 		if (record->event.pressed) {
 332:keyboards/Manuform6x6/keymaps/Default/keymap.c **** 			SEND_STRING("admin"SS_TAP(X_TAB)"1111"SS_TAP(X_ENTER));
 333:keyboards/Manuform6x6/keymaps/Default/keymap.c **** 		return false;	break;
 334:keyboards/Manuform6x6/keymaps/Default/keymap.c **** 		//	return MACRO(I(10), T(A), T(D), T(M), T(I), T(N), T(TAB), T(1), T(1),T(1), T(1), T(ENTER), END
 335:keyboards/Manuform6x6/keymaps/Default/keymap.c **** 		}
 336:keyboards/Manuform6x6/keymaps/Default/keymap.c **** 	case 2:
 337:keyboards/Manuform6x6/keymaps/Default/keymap.c **** 		if (record->event.pressed) {
 338:keyboards/Manuform6x6/keymaps/Default/keymap.c **** 			SEND_STRING("YourEmail");
 339:keyboards/Manuform6x6/keymaps/Default/keymap.c **** 			return false;	break;
 340:keyboards/Manuform6x6/keymaps/Default/keymap.c **** 		}
 341:keyboards/Manuform6x6/keymaps/Default/keymap.c **** 	case 3:
 342:keyboards/Manuform6x6/keymaps/Default/keymap.c **** 		if (record->event.pressed) {
 343:keyboards/Manuform6x6/keymaps/Default/keymap.c **** 			SEND_STRING("Frequentwebsite"SS_TAP(X_ENTER));
 344:keyboards/Manuform6x6/keymaps/Default/keymap.c **** 						return false;	break;
 345:keyboards/Manuform6x6/keymaps/Default/keymap.c **** 		}
 346:keyboards/Manuform6x6/keymaps/Default/keymap.c **** 	case 4:
 347:keyboards/Manuform6x6/keymaps/Default/keymap.c **** 		if(record->event.pressed) {
 348:keyboards/Manuform6x6/keymaps/Default/keymap.c **** 			return MACRO(I(10), D(LCTRL), T(T), T(V), T(ENTER), U(LCTRL), END);
 349:keyboards/Manuform6x6/keymaps/Default/keymap.c **** 		}
 350:keyboards/Manuform6x6/keymaps/Default/keymap.c **** 		
 351:keyboards/Manuform6x6/keymaps/Default/keymap.c **** 	case 5:{
 352:keyboards/Manuform6x6/keymaps/Default/keymap.c **** 			return  MACRO_TAP_HOLD_LAYER(record, MACRO(TYPE(KC_X), END), _LOWER);	
 353:keyboards/Manuform6x6/keymaps/Default/keymap.c **** 		}
 354:keyboards/Manuform6x6/keymaps/Default/keymap.c **** 	case 6: {
 355:keyboards/Manuform6x6/keymaps/Default/keymap.c **** 			if(record->event.pressed) 
 356:keyboards/Manuform6x6/keymaps/Default/keymap.c **** 			return MACRO(I(10), T(0), T(C), T(TAB), T(TAB), T(A), T(TAB), END);
 357:keyboards/Manuform6x6/keymaps/Default/keymap.c **** 		}
 358:keyboards/Manuform6x6/keymaps/Default/keymap.c **** 	case 10: {
 359:keyboards/Manuform6x6/keymaps/Default/keymap.c **** 		if(record->event.pressed) {
 360:keyboards/Manuform6x6/keymaps/Default/keymap.c **** 		SEND_STRING("");
 361:keyboards/Manuform6x6/keymaps/Default/keymap.c **** 			return false; break;}
 362:keyboards/Manuform6x6/keymaps/Default/keymap.c **** 	}		
 363:keyboards/Manuform6x6/keymaps/Default/keymap.c **** 	case 11: {
 364:keyboards/Manuform6x6/keymaps/Default/keymap.c **** 		if(record->event.pressed) {
 365:keyboards/Manuform6x6/keymaps/Default/keymap.c **** 			SEND_STRING("ipconfig /all");
 366:keyboards/Manuform6x6/keymaps/Default/keymap.c **** 					return false; break;}
 367:keyboards/Manuform6x6/keymaps/Default/keymap.c **** 	}
 368:keyboards/Manuform6x6/keymaps/Default/keymap.c **** 	case 12: {
 369:keyboards/Manuform6x6/keymaps/Default/keymap.c **** 	if(record->event.pressed) 
 370:keyboards/Manuform6x6/keymaps/Default/keymap.c **** 		return MACRO( I(10),T(TAB), T(O), T(P), T(TAB),T(ENTER), T(TAB),T(TAB),T(TAB),T(Z),T(R),T(TAB),T(
 371:keyboards/Manuform6x6/keymaps/Default/keymap.c **** 	}	
 372:keyboards/Manuform6x6/keymaps/Default/keymap.c **** 		case 13: {
 373:keyboards/Manuform6x6/keymaps/Default/keymap.c **** 	if(record->event.pressed) 
 374:keyboards/Manuform6x6/keymaps/Default/keymap.c **** 		return MACRO( I(10),T(TAB), T(O), T(T), T(TAB),T(ENTER), T(TAB),T(TAB),T(TAB),T(Z),T(R),T(TAB),T(
 375:keyboards/Manuform6x6/keymaps/Default/keymap.c **** 	}	
 376:keyboards/Manuform6x6/keymaps/Default/keymap.c **** 		case 14: {
 377:keyboards/Manuform6x6/keymaps/Default/keymap.c **** 	if(record->event.pressed) 
 378:keyboards/Manuform6x6/keymaps/Default/keymap.c **** 		return MACRO( I(10),T(TAB), T(I), T(N), T(TAB),T(ENTER), T(TAB),T(TAB),T(TAB),T(I),T(N),T(TAB),T(
 379:keyboards/Manuform6x6/keymaps/Default/keymap.c **** 	}	
 380:keyboards/Manuform6x6/keymaps/Default/keymap.c **** 		case 15: {
 381:keyboards/Manuform6x6/keymaps/Default/keymap.c **** 	if(record->event.pressed) 
 382:keyboards/Manuform6x6/keymaps/Default/keymap.c **** 		SEND_STRING(""SS_TAP(X_TAB)""SS_TAP(X_TAB)SS_TAP(X_ENTER));
 383:keyboards/Manuform6x6/keymaps/Default/keymap.c **** 		return false; break;
 384:keyboards/Manuform6x6/keymaps/Default/keymap.c **** 	}
 385:keyboards/Manuform6x6/keymaps/Default/keymap.c **** 		case 16: {
 386:keyboards/Manuform6x6/keymaps/Default/keymap.c **** 	if(record->event.pressed) {
 387:keyboards/Manuform6x6/keymaps/Default/keymap.c **** 	MACRO(T(LGUI), W(50));}
 388:keyboards/Manuform6x6/keymaps/Default/keymap.c **** 	else{
 389:keyboards/Manuform6x6/keymaps/Default/keymap.c **** 	SEND_STRING("cmd"SS_TAP(X_ENTER));}
 390:keyboards/Manuform6x6/keymaps/Default/keymap.c **** 		return false; break;
 391:keyboards/Manuform6x6/keymaps/Default/keymap.c **** 	}
 392:keyboards/Manuform6x6/keymaps/Default/keymap.c **** 		break;
 393:keyboards/Manuform6x6/keymaps/Default/keymap.c **** 	}		
 394:keyboards/Manuform6x6/keymaps/Default/keymap.c **** 	return MACRO_NONE;
 395:keyboards/Manuform6x6/keymaps/Default/keymap.c **** }
 396:keyboards/Manuform6x6/keymaps/Default/keymap.c **** //return MACRO_NONE;
 397:keyboards/Manuform6x6/keymaps/Default/keymap.c **** 
 398:keyboards/Manuform6x6/keymaps/Default/keymap.c **** 
 399:keyboards/Manuform6x6/keymaps/Default/keymap.c **** void cmd_commands(qk_tap_dance_state_t *state, void *user_data) {
  17               		.loc 1 399 65 view -0
  18               		.cfi_startproc
  19               	/* prologue: function */
  20               	/* frame size = 0 */
  21               	/* stack size = 0 */
  22               	.L__stack_usage = 0
 400:keyboards/Manuform6x6/keymaps/Default/keymap.c **** 	if (state->count == 1) {
  23               		.loc 1 400 2 view .LVU1
  24               		.loc 1 400 11 is_stmt 0 view .LVU2
  25 0000 FC01      		movw r30,r24
  26 0002 8081      		ld r24,Z
  27               	.LVL1:
  28               		.loc 1 400 5 view .LVU3
  29 0004 8130      		cpi r24,lo8(1)
  30 0006 01F4      		brne .L2
 401:keyboards/Manuform6x6/keymaps/Default/keymap.c **** 		action_macro_play(MACRO(D(LCTRL), T(C), U(LCTRL),END));
  31               		.loc 1 401 3 is_stmt 1 view .LVU4
  32               	.LBB2:
  33               		.loc 1 401 21 view .LVU5
  34               		.loc 1 401 21 view .LVU6
  35               	.LBE2:
  36               		.loc 1 401 3 is_stmt 0 view .LVU7
  37 0008 80E0      		ldi r24,lo8(__m.3324)
  38 000a 90E0      		ldi r25,hi8(__m.3324)
  39               	.L4:
 402:keyboards/Manuform6x6/keymaps/Default/keymap.c **** 	}
 403:keyboards/Manuform6x6/keymaps/Default/keymap.c **** 	else if (state->count ==2){
 404:keyboards/Manuform6x6/keymaps/Default/keymap.c **** 		action_macro_play(MACRO(D(LCTRL), T(V), U(LCTRL),END));
 405:keyboards/Manuform6x6/keymaps/Default/keymap.c **** 	}
 406:keyboards/Manuform6x6/keymaps/Default/keymap.c **** 	else {
 407:keyboards/Manuform6x6/keymaps/Default/keymap.c **** 		action_macro_play(MACRO(D(LCTRL), T(A), T(C), U(LCTRL),END));
  40               		.loc 1 407 3 view .LVU8
  41 000c 0C94 0000 		jmp action_macro_play
  42               	.LVL2:
  43               	.L2:
 403:keyboards/Manuform6x6/keymaps/Default/keymap.c **** 		action_macro_play(MACRO(D(LCTRL), T(V), U(LCTRL),END));
  44               		.loc 1 403 7 is_stmt 1 view .LVU9
 403:keyboards/Manuform6x6/keymaps/Default/keymap.c **** 		action_macro_play(MACRO(D(LCTRL), T(V), U(LCTRL),END));
  45               		.loc 1 403 10 is_stmt 0 view .LVU10
  46 0010 8230      		cpi r24,lo8(2)
  47 0012 01F4      		brne .L3
 404:keyboards/Manuform6x6/keymaps/Default/keymap.c **** 	}
  48               		.loc 1 404 3 is_stmt 1 view .LVU11
  49               	.LBB3:
 404:keyboards/Manuform6x6/keymaps/Default/keymap.c **** 	}
  50               		.loc 1 404 21 view .LVU12
 404:keyboards/Manuform6x6/keymaps/Default/keymap.c **** 	}
  51               		.loc 1 404 21 view .LVU13
  52               	.LBE3:
 404:keyboards/Manuform6x6/keymaps/Default/keymap.c **** 	}
  53               		.loc 1 404 3 is_stmt 0 view .LVU14
  54 0014 80E0      		ldi r24,lo8(__m.3326)
  55 0016 90E0      		ldi r25,hi8(__m.3326)
  56 0018 00C0      		rjmp .L4
  57               	.L3:
  58               		.loc 1 407 3 is_stmt 1 view .LVU15
  59               	.LBB4:
  60               		.loc 1 407 21 view .LVU16
  61               		.loc 1 407 21 view .LVU17
  62               	.LBE4:
  63               		.loc 1 407 3 is_stmt 0 view .LVU18
  64 001a 80E0      		ldi r24,lo8(__m.3328)
  65 001c 90E0      		ldi r25,hi8(__m.3328)
  66 001e 00C0      		rjmp .L4
  67               		.cfi_endproc
  68               	.LFE30:
  70               		.section	.text.cmd,"ax",@progbits
  71               	.global	cmd
  73               	cmd:
  74               	.LVL3:
  75               	.LFB31:
 408:keyboards/Manuform6x6/keymaps/Default/keymap.c **** 	}
 409:keyboards/Manuform6x6/keymaps/Default/keymap.c **** }
 410:keyboards/Manuform6x6/keymaps/Default/keymap.c **** 
 411:keyboards/Manuform6x6/keymaps/Default/keymap.c **** 
 412:keyboards/Manuform6x6/keymaps/Default/keymap.c **** void cmd(qk_tap_dance_state_t *state, void *user_data) {
  76               		.loc 1 412 56 is_stmt 1 view -0
  77               		.cfi_startproc
  78               	/* prologue: function */
  79               	/* frame size = 0 */
  80               	/* stack size = 0 */
  81               	.L__stack_usage = 0
 413:keyboards/Manuform6x6/keymaps/Default/keymap.c **** 	if(state->count==1){
  82               		.loc 1 413 2 view .LVU20
  83               		.loc 1 413 10 is_stmt 0 view .LVU21
  84 0000 FC01      		movw r30,r24
  85 0002 8081      		ld r24,Z
  86               	.LVL4:
  87               		.loc 1 413 4 view .LVU22
  88 0004 8130      		cpi r24,lo8(1)
  89 0006 01F4      		brne .L6
 414:keyboards/Manuform6x6/keymaps/Default/keymap.c **** 		action_macro_play(MACRO(D(LGUI), T(R),W(255), U(LGUI),W(255), T(C), T(M), T(D), T(ENTER),END));
  90               		.loc 1 414 3 is_stmt 1 view .LVU23
  91               	.LBB5:
  92               		.loc 1 414 21 view .LVU24
  93               		.loc 1 414 21 view .LVU25
  94               	.LBE5:
  95               		.loc 1 414 3 is_stmt 0 view .LVU26
  96 0008 80E0      		ldi r24,lo8(__m.3334)
  97 000a 90E0      		ldi r25,hi8(__m.3334)
  98               	.L8:
 415:keyboards/Manuform6x6/keymaps/Default/keymap.c **** 	}
 416:keyboards/Manuform6x6/keymaps/Default/keymap.c **** 	else if (state->count == 2) {
 417:keyboards/Manuform6x6/keymaps/Default/keymap.c **** 		action_macro_play(MACRO(D(LGUI), T(R), U(LGUI), T(C), T(M), T(D), T(ENTER),W(255),W(255), T(I), T
 418:keyboards/Manuform6x6/keymaps/Default/keymap.c **** 	}
 419:keyboards/Manuform6x6/keymaps/Default/keymap.c **** 	else{
 420:keyboards/Manuform6x6/keymaps/Default/keymap.c **** 		action_macro_play(MACRO(D(LGUI), T(R),W(255), U(LGUI),W(255), T(C), T(M), T(D), T(ENTER), W(255),
  99               		.loc 1 420 3 view .LVU27
 100 000c 0C94 0000 		jmp action_macro_play
 101               	.LVL5:
 102               	.L6:
 416:keyboards/Manuform6x6/keymaps/Default/keymap.c **** 		action_macro_play(MACRO(D(LGUI), T(R), U(LGUI), T(C), T(M), T(D), T(ENTER),W(255),W(255), T(I), T
 103               		.loc 1 416 7 is_stmt 1 view .LVU28
 416:keyboards/Manuform6x6/keymaps/Default/keymap.c **** 		action_macro_play(MACRO(D(LGUI), T(R), U(LGUI), T(C), T(M), T(D), T(ENTER),W(255),W(255), T(I), T
 104               		.loc 1 416 10 is_stmt 0 view .LVU29
 105 0010 8230      		cpi r24,lo8(2)
 106 0012 01F4      		brne .L7
 417:keyboards/Manuform6x6/keymaps/Default/keymap.c **** 	}
 107               		.loc 1 417 3 is_stmt 1 view .LVU30
 108               	.LBB6:
 417:keyboards/Manuform6x6/keymaps/Default/keymap.c **** 	}
 109               		.loc 1 417 21 view .LVU31
 417:keyboards/Manuform6x6/keymaps/Default/keymap.c **** 	}
 110               		.loc 1 417 21 view .LVU32
 111               	.LBE6:
 417:keyboards/Manuform6x6/keymaps/Default/keymap.c **** 	}
 112               		.loc 1 417 3 is_stmt 0 view .LVU33
 113 0014 80E0      		ldi r24,lo8(__m.3336)
 114 0016 90E0      		ldi r25,hi8(__m.3336)
 115 0018 00C0      		rjmp .L8
 116               	.L7:
 117               		.loc 1 420 3 is_stmt 1 view .LVU34
 118               	.LBB7:
 119               		.loc 1 420 21 view .LVU35
 120               		.loc 1 420 21 view .LVU36
 121               	.LBE7:
 122               		.loc 1 420 3 is_stmt 0 view .LVU37
 123 001a 80E0      		ldi r24,lo8(__m.3338)
 124 001c 90E0      		ldi r25,hi8(__m.3338)
 125 001e 00C0      		rjmp .L8
 126               		.cfi_endproc
 127               	.LFE31:
 129               		.section	.text.VirtualDesktop,"ax",@progbits
 130               	.global	VirtualDesktop
 132               	VirtualDesktop:
 133               	.LVL6:
 134               	.LFB33:
 421:keyboards/Manuform6x6/keymaps/Default/keymap.c **** 	}
 422:keyboards/Manuform6x6/keymaps/Default/keymap.c **** }
 423:keyboards/Manuform6x6/keymaps/Default/keymap.c **** void SLSH_BSLSH(qk_tap_dance_state_t *state, void *user_data) {
 424:keyboards/Manuform6x6/keymaps/Default/keymap.c **** 	if (state->count == 1) {
 425:keyboards/Manuform6x6/keymaps/Default/keymap.c **** 		register_code (KC_SLSH);
 426:keyboards/Manuform6x6/keymaps/Default/keymap.c **** 		unregister_code (KC_SLSH);
 427:keyboards/Manuform6x6/keymaps/Default/keymap.c **** 	}
 428:keyboards/Manuform6x6/keymaps/Default/keymap.c **** 	else{
 429:keyboards/Manuform6x6/keymaps/Default/keymap.c **** 		register_code (KC_BSLS);
 430:keyboards/Manuform6x6/keymaps/Default/keymap.c **** 		unregister_code (KC_BSLS);
 431:keyboards/Manuform6x6/keymaps/Default/keymap.c **** 	}
 432:keyboards/Manuform6x6/keymaps/Default/keymap.c **** }
 433:keyboards/Manuform6x6/keymaps/Default/keymap.c **** void VirtualDesktop(qk_tap_dance_state_t *state, void *user_data) {
 135               		.loc 1 433 67 is_stmt 1 view -0
 136               		.cfi_startproc
 137               	/* prologue: function */
 138               	/* frame size = 0 */
 139               	/* stack size = 0 */
 140               	.L__stack_usage = 0
 434:keyboards/Manuform6x6/keymaps/Default/keymap.c **** 	if (state->count == 1) 
 141               		.loc 1 434 2 view .LVU39
 142               		.loc 1 434 11 is_stmt 0 view .LVU40
 143 0000 FC01      		movw r30,r24
 144 0002 8081      		ld r24,Z
 145               	.LVL7:
 146               		.loc 1 434 5 view .LVU41
 147 0004 8130      		cpi r24,lo8(1)
 148 0006 01F4      		brne .L10
 435:keyboards/Manuform6x6/keymaps/Default/keymap.c **** 		action_macro_play(MACRO(D(LGUI),D(LCTRL),T(LEFT),U(LCTRL),U(LGUI),END));
 149               		.loc 1 435 3 is_stmt 1 view .LVU42
 150               	.LBB8:
 151               		.loc 1 435 21 view .LVU43
 152               		.loc 1 435 21 view .LVU44
 153               	.LBE8:
 154               		.loc 1 435 3 is_stmt 0 view .LVU45
 155 0008 80E0      		ldi r24,lo8(__m.3348)
 156 000a 90E0      		ldi r25,hi8(__m.3348)
 157               	.L12:
 436:keyboards/Manuform6x6/keymaps/Default/keymap.c **** 	else if(state->count==2)
 437:keyboards/Manuform6x6/keymaps/Default/keymap.c **** 		action_macro_play(MACRO(D(LGUI),D(LCTRL),T(RIGHT),U(LCTRL),U(LGUI),END));
 158               		.loc 1 437 3 view .LVU46
 159 000c 0C94 0000 		jmp action_macro_play
 160               	.LVL8:
 161               	.L10:
 436:keyboards/Manuform6x6/keymaps/Default/keymap.c **** 	else if(state->count==2)
 162               		.loc 1 436 7 is_stmt 1 view .LVU47
 436:keyboards/Manuform6x6/keymaps/Default/keymap.c **** 	else if(state->count==2)
 163               		.loc 1 436 9 is_stmt 0 view .LVU48
 164 0010 8230      		cpi r24,lo8(2)
 165 0012 01F4      		brne .L9
 166               		.loc 1 437 3 is_stmt 1 view .LVU49
 167               	.LBB9:
 168               		.loc 1 437 21 view .LVU50
 169               		.loc 1 437 21 view .LVU51
 170               	.LBE9:
 171               		.loc 1 437 3 is_stmt 0 view .LVU52
 172 0014 80E0      		ldi r24,lo8(__m.3350)
 173 0016 90E0      		ldi r25,hi8(__m.3350)
 174 0018 00C0      		rjmp .L12
 175               	.L9:
 176               	/* epilogue start */
 438:keyboards/Manuform6x6/keymaps/Default/keymap.c **** }
 177               		.loc 1 438 1 view .LVU53
 178 001a 0895      		ret
 179               		.cfi_endproc
 180               	.LFE33:
 182               		.section	.text.SLSH_BSLSH,"ax",@progbits
 183               	.global	SLSH_BSLSH
 185               	SLSH_BSLSH:
 186               	.LVL9:
 187               	.LFB32:
 423:keyboards/Manuform6x6/keymaps/Default/keymap.c **** 	if (state->count == 1) {
 188               		.loc 1 423 63 is_stmt 1 view -0
 189               		.cfi_startproc
 190               	/* prologue: function */
 191               	/* frame size = 0 */
 192               	/* stack size = 0 */
 193               	.L__stack_usage = 0
 424:keyboards/Manuform6x6/keymaps/Default/keymap.c **** 		register_code (KC_SLSH);
 194               		.loc 1 424 2 view .LVU55
 424:keyboards/Manuform6x6/keymaps/Default/keymap.c **** 		register_code (KC_SLSH);
 195               		.loc 1 424 5 is_stmt 0 view .LVU56
 196 0000 FC01      		movw r30,r24
 197 0002 8081      		ld r24,Z
 198               	.LVL10:
 424:keyboards/Manuform6x6/keymaps/Default/keymap.c **** 		register_code (KC_SLSH);
 199               		.loc 1 424 5 view .LVU57
 200 0004 8130      		cpi r24,lo8(1)
 201 0006 01F4      		brne .L14
 425:keyboards/Manuform6x6/keymaps/Default/keymap.c **** 		unregister_code (KC_SLSH);
 202               		.loc 1 425 3 is_stmt 1 view .LVU58
 203 0008 88E3      		ldi r24,lo8(56)
 204 000a 0E94 0000 		call register_code
 205               	.LVL11:
 426:keyboards/Manuform6x6/keymaps/Default/keymap.c **** 	}
 206               		.loc 1 426 3 view .LVU59
 207 000e 88E3      		ldi r24,lo8(56)
 208               	.L15:
 430:keyboards/Manuform6x6/keymaps/Default/keymap.c **** 	}
 209               		.loc 1 430 3 is_stmt 0 view .LVU60
 210 0010 0C94 0000 		jmp unregister_code
 211               	.LVL12:
 212               	.L14:
 429:keyboards/Manuform6x6/keymaps/Default/keymap.c **** 		unregister_code (KC_BSLS);
 213               		.loc 1 429 3 is_stmt 1 view .LVU61
 214 0014 81E3      		ldi r24,lo8(49)
 215 0016 0E94 0000 		call register_code
 216               	.LVL13:
 430:keyboards/Manuform6x6/keymaps/Default/keymap.c **** 	}
 217               		.loc 1 430 3 view .LVU62
 218 001a 81E3      		ldi r24,lo8(49)
 219 001c 00C0      		rjmp .L15
 220               		.cfi_endproc
 221               	.LFE32:
 223               		.section	.text.rgblight_toggle,"ax",@progbits
 224               		.weak	rgblight_toggle
 226               	rgblight_toggle:
 227               	.LFB10:
 228               		.file 2 "./quantum/rgb.h"
   1:./quantum/rgb.h **** /* Copyright 2017 Jack Humbert
   2:./quantum/rgb.h ****  *
   3:./quantum/rgb.h ****  * This program is free software: you can redistribute it and/or modify
   4:./quantum/rgb.h ****  * it under the terms of the GNU General Public License as published by
   5:./quantum/rgb.h ****  * the Free Software Foundation, either version 2 of the License, or
   6:./quantum/rgb.h ****  * (at your option) any later version.
   7:./quantum/rgb.h ****  *
   8:./quantum/rgb.h ****  * This program is distributed in the hope that it will be useful,
   9:./quantum/rgb.h ****  * but WITHOUT ANY WARRANTY; without even the implied warranty of
  10:./quantum/rgb.h ****  * MERCHANTABILITY or FITNESS FOR A PARTICULAR PURPOSE.  See the
  11:./quantum/rgb.h ****  * GNU General Public License for more details.
  12:./quantum/rgb.h ****  *
  13:./quantum/rgb.h ****  * You should have received a copy of the GNU General Public License
  14:./quantum/rgb.h ****  * along with this program.  If not, see <http://www.gnu.org/licenses/>.
  15:./quantum/rgb.h ****  */
  16:./quantum/rgb.h **** 
  17:./quantum/rgb.h **** #ifndef RGB_H
  18:./quantum/rgb.h **** #define RGB_H
  19:./quantum/rgb.h **** 
  20:./quantum/rgb.h **** __attribute__((weak))
  21:./quantum/rgb.h **** void rgblight_toggle(void) {};
 229               		.loc 2 21 28 view -0
 230               		.cfi_startproc
 231               	/* prologue: function */
 232               	/* frame size = 0 */
 233               	/* stack size = 0 */
 234               	.L__stack_usage = 0
 235               		.loc 2 21 29 view .LVU64
 236               	/* epilogue start */
 237               		.loc 2 21 1 is_stmt 0 view .LVU65
 238 0000 0895      		ret
 239               		.cfi_endproc
 240               	.LFE10:
 242               		.section	.text.rgblight_step,"ax",@progbits
 243               		.weak	rgblight_step
 245               	rgblight_step:
 246               	.LFB40:
 247               		.cfi_startproc
 248               	/* prologue: function */
 249               	/* frame size = 0 */
 250               	/* stack size = 0 */
 251               	.L__stack_usage = 0
 252               	/* epilogue start */
 253 0000 0895      		ret
 254               		.cfi_endproc
 255               	.LFE40:
 257               		.section	.text.rgblight_step_reverse,"ax",@progbits
 258               		.weak	rgblight_step_reverse
 260               	rgblight_step_reverse:
 261               	.LFB42:
 262               		.cfi_startproc
 263               	/* prologue: function */
 264               	/* frame size = 0 */
 265               	/* stack size = 0 */
 266               	.L__stack_usage = 0
 267               	/* epilogue start */
 268 0000 0895      		ret
 269               		.cfi_endproc
 270               	.LFE42:
 272               		.section	.text.rgblight_increase_hue,"ax",@progbits
 273               		.weak	rgblight_increase_hue
 275               	rgblight_increase_hue:
 276               	.LFB44:
 277               		.cfi_startproc
 278               	/* prologue: function */
 279               	/* frame size = 0 */
 280               	/* stack size = 0 */
 281               	.L__stack_usage = 0
 282               	/* epilogue start */
 283 0000 0895      		ret
 284               		.cfi_endproc
 285               	.LFE44:
 287               		.section	.text.rgblight_decrease_hue,"ax",@progbits
 288               		.weak	rgblight_decrease_hue
 290               	rgblight_decrease_hue:
 291               	.LFB46:
 292               		.cfi_startproc
 293               	/* prologue: function */
 294               	/* frame size = 0 */
 295               	/* stack size = 0 */
 296               	.L__stack_usage = 0
 297               	/* epilogue start */
 298 0000 0895      		ret
 299               		.cfi_endproc
 300               	.LFE46:
 302               		.section	.text.rgblight_increase_sat,"ax",@progbits
 303               		.weak	rgblight_increase_sat
 305               	rgblight_increase_sat:
 306               	.LFB48:
 307               		.cfi_startproc
 308               	/* prologue: function */
 309               	/* frame size = 0 */
 310               	/* stack size = 0 */
 311               	.L__stack_usage = 0
 312               	/* epilogue start */
 313 0000 0895      		ret
 314               		.cfi_endproc
 315               	.LFE48:
 317               		.section	.text.rgblight_decrease_sat,"ax",@progbits
 318               		.weak	rgblight_decrease_sat
 320               	rgblight_decrease_sat:
 321               	.LFB50:
 322               		.cfi_startproc
 323               	/* prologue: function */
 324               	/* frame size = 0 */
 325               	/* stack size = 0 */
 326               	.L__stack_usage = 0
 327               	/* epilogue start */
 328 0000 0895      		ret
 329               		.cfi_endproc
 330               	.LFE50:
 332               		.section	.text.rgblight_increase_val,"ax",@progbits
 333               		.weak	rgblight_increase_val
 335               	rgblight_increase_val:
 336               	.LFB52:
 337               		.cfi_startproc
 338               	/* prologue: function */
 339               	/* frame size = 0 */
 340               	/* stack size = 0 */
 341               	.L__stack_usage = 0
 342               	/* epilogue start */
 343 0000 0895      		ret
 344               		.cfi_endproc
 345               	.LFE52:
 347               		.section	.text.rgblight_decrease_val,"ax",@progbits
 348               		.weak	rgblight_decrease_val
 350               	rgblight_decrease_val:
 351               	.LFB54:
 352               		.cfi_startproc
 353               	/* prologue: function */
 354               	/* frame size = 0 */
 355               	/* stack size = 0 */
 356               	.L__stack_usage = 0
 357               	/* epilogue start */
 358 0000 0895      		ret
 359               		.cfi_endproc
 360               	.LFE54:
 362               		.section	.text.rgblight_increase_speed,"ax",@progbits
 363               		.weak	rgblight_increase_speed
 365               	rgblight_increase_speed:
 366               	.LFB56:
 367               		.cfi_startproc
 368               	/* prologue: function */
 369               	/* frame size = 0 */
 370               	/* stack size = 0 */
 371               	.L__stack_usage = 0
 372               	/* epilogue start */
 373 0000 0895      		ret
 374               		.cfi_endproc
 375               	.LFE56:
 377               		.section	.text.rgblight_decrease_speed,"ax",@progbits
 378               		.weak	rgblight_decrease_speed
 380               	rgblight_decrease_speed:
 381               	.LFB58:
 382               		.cfi_startproc
 383               	/* prologue: function */
 384               	/* frame size = 0 */
 385               	/* stack size = 0 */
 386               	.L__stack_usage = 0
 387               	/* epilogue start */
 388 0000 0895      		ret
 389               		.cfi_endproc
 390               	.LFE58:
 392               		.section	.text.persistent_default_layer_set,"ax",@progbits
 393               	.global	persistent_default_layer_set
 395               	persistent_default_layer_set:
 396               	.LVL14:
 397               	.LFB28:
 310:keyboards/Manuform6x6/keymaps/Default/keymap.c **** 	eeconfig_update_default_layer(default_layer);
 398               		.loc 1 310 59 is_stmt 1 view -0
 399               		.cfi_startproc
 310:keyboards/Manuform6x6/keymaps/Default/keymap.c **** 	eeconfig_update_default_layer(default_layer);
 400               		.loc 1 310 59 is_stmt 0 view .LVU67
 401 0000 CF93      		push r28
 402               	.LCFI0:
 403               		.cfi_def_cfa_offset 3
 404               		.cfi_offset 28, -2
 405 0002 DF93      		push r29
 406               	.LCFI1:
 407               		.cfi_def_cfa_offset 4
 408               		.cfi_offset 29, -3
 409               	/* prologue: function */
 410               	/* frame size = 0 */
 411               	/* stack size = 2 */
 412               	.L__stack_usage = 2
 413 0004 EC01      		movw r28,r24
 311:keyboards/Manuform6x6/keymaps/Default/keymap.c **** 	default_layer_set(default_layer);
 414               		.loc 1 311 2 is_stmt 1 view .LVU68
 415 0006 0E94 0000 		call eeconfig_update_default_layer
 416               	.LVL15:
 312:keyboards/Manuform6x6/keymaps/Default/keymap.c **** }
 417               		.loc 1 312 2 view .LVU69
 418 000a BE01      		movw r22,r28
 419 000c 90E0      		ldi r25,0
 420 000e 80E0      		ldi r24,0
 421               	/* epilogue start */
 313:keyboards/Manuform6x6/keymaps/Default/keymap.c **** 
 422               		.loc 1 313 1 is_stmt 0 view .LVU70
 423 0010 DF91      		pop r29
 424 0012 CF91      		pop r28
 425               	.LVL16:
 312:keyboards/Manuform6x6/keymaps/Default/keymap.c **** }
 426               		.loc 1 312 2 view .LVU71
 427 0014 0C94 0000 		jmp default_layer_set
 428               	.LVL17:
 312:keyboards/Manuform6x6/keymaps/Default/keymap.c **** }
 429               		.loc 1 312 2 view .LVU72
 430               		.cfi_endproc
 431               	.LFE28:
 433               		.section	.text.action_get_macro,"ax",@progbits
 434               	.global	action_get_macro
 436               	action_get_macro:
 437               	.LVL18:
 438               	.LFB29:
 323:keyboards/Manuform6x6/keymaps/Default/keymap.c **** 	
 439               		.loc 1 323 79 is_stmt 1 view -0
 440               		.cfi_startproc
 441               	/* prologue: function */
 442               	/* frame size = 0 */
 443               	/* stack size = 0 */
 444               	.L__stack_usage = 0
 323:keyboards/Manuform6x6/keymaps/Default/keymap.c **** 	
 445               		.loc 1 323 79 is_stmt 0 view .LVU74
 446 0000 DC01      		movw r26,r24
 325:keyboards/Manuform6x6/keymaps/Default/keymap.c **** 	case 0:
 447               		.loc 1 325 2 is_stmt 1 view .LVU75
 448 0002 6131      		cpi r22,lo8(17)
 449 0004 00F4      		brsh .L58
 450 0006 E62F      		mov r30,r22
 451 0008 F0E0      		ldi r31,0
 452 000a E050      		subi r30,lo8(-(gs(.L31)))
 453 000c F040      		sbci r31,hi8(-(gs(.L31)))
 454 000e 0C94 0000 		jmp __tablejump2__
 455               		.section	.jumptables.gcc.action_get_macro,"a",@progbits
 456               		.p2align	1
 457               	.L31:
 458 0000 0000      		.word gs(.L44)
 459 0002 0000      		.word gs(.L43)
 460 0004 0000      		.word gs(.L42)
 461 0006 0000      		.word gs(.L41)
 462 0008 0000      		.word gs(.L40)
 463 000a 0000      		.word gs(.L39)
 464 000c 0000      		.word gs(.L38)
 465 000e 0000      		.word gs(.L58)
 466 0010 0000      		.word gs(.L58)
 467 0012 0000      		.word gs(.L58)
 468 0014 0000      		.word gs(.L37)
 469 0016 0000      		.word gs(.L36)
 470 0018 0000      		.word gs(.L35)
 471 001a 0000      		.word gs(.L34)
 472 001c 0000      		.word gs(.L33)
 473 001e 0000      		.word gs(.L32)
 474 0020 0000      		.word gs(.L30)
 475               		.section	.text.action_get_macro
 476               	.L44:
 327:keyboards/Manuform6x6/keymaps/Default/keymap.c **** 			return MACRO(D(LGUI), T(TAB), U(LGUI), END);
 477               		.loc 1 327 3 view .LVU76
 327:keyboards/Manuform6x6/keymaps/Default/keymap.c **** 			return MACRO(D(LGUI), T(TAB), U(LGUI), END);
 478               		.loc 1 327 6 is_stmt 0 view .LVU77
 479 0012 1296      		adiw r26,2
 480 0014 8C91      		ld r24,X
 481 0016 1297      		sbiw r26,2
 482               	.LVL19:
 327:keyboards/Manuform6x6/keymaps/Default/keymap.c **** 			return MACRO(D(LGUI), T(TAB), U(LGUI), END);
 483               		.loc 1 327 6 view .LVU78
 484 0018 8111      		cpse r24,__zero_reg__
 485 001a 00C0      		rjmp .L49
 486               	.L43:
 331:keyboards/Manuform6x6/keymaps/Default/keymap.c **** 			SEND_STRING("admin"SS_TAP(X_TAB)"1111"SS_TAP(X_ENTER));
 487               		.loc 1 331 3 is_stmt 1 view .LVU79
 331:keyboards/Manuform6x6/keymaps/Default/keymap.c **** 			SEND_STRING("admin"SS_TAP(X_TAB)"1111"SS_TAP(X_ENTER));
 488               		.loc 1 331 6 is_stmt 0 view .LVU80
 489 001c 1296      		adiw r26,2
 490 001e 8C91      		ld r24,X
 491 0020 1297      		sbiw r26,2
 492 0022 8823      		tst r24
 493 0024 01F0      		breq .L42
 332:keyboards/Manuform6x6/keymaps/Default/keymap.c **** 		return false;	break;
 494               		.loc 1 332 4 is_stmt 1 view .LVU81
 495               	.LBB10:
 332:keyboards/Manuform6x6/keymaps/Default/keymap.c **** 		return false;	break;
 496               		.loc 1 332 4 view .LVU82
 332:keyboards/Manuform6x6/keymaps/Default/keymap.c **** 		return false;	break;
 497               		.loc 1 332 4 view .LVU83
 498               	.LBE10:
 499 0026 80E0      		ldi r24,lo8(__c.3278)
 500 0028 90E0      		ldi r25,hi8(__c.3278)
 501               	.L80:
 338:keyboards/Manuform6x6/keymaps/Default/keymap.c **** 			return false;	break;
 502               		.loc 1 338 4 is_stmt 0 view .LVU84
 503 002a 0E94 0000 		call send_string_P
 504               	.LVL20:
 339:keyboards/Manuform6x6/keymaps/Default/keymap.c **** 		}
 505               		.loc 1 339 4 is_stmt 1 view .LVU85
 506               	.L58:
 352:keyboards/Manuform6x6/keymaps/Default/keymap.c **** 		}
 507               		.loc 1 352 12 is_stmt 0 view .LVU86
 508 002e 90E0      		ldi r25,0
 509 0030 80E0      		ldi r24,0
 510               	/* epilogue start */
 395:keyboards/Manuform6x6/keymaps/Default/keymap.c **** //return MACRO_NONE;
 511               		.loc 1 395 1 view .LVU87
 512 0032 0895      		ret
 513               	.LVL21:
 514               	.L42:
 333:keyboards/Manuform6x6/keymaps/Default/keymap.c **** 		//	return MACRO(I(10), T(A), T(D), T(M), T(I), T(N), T(TAB), T(1), T(1),T(1), T(1), T(ENTER), END
 515               		.loc 1 333 17 is_stmt 1 view .LVU88
 337:keyboards/Manuform6x6/keymaps/Default/keymap.c **** 			SEND_STRING("YourEmail");
 516               		.loc 1 337 3 view .LVU89
 337:keyboards/Manuform6x6/keymaps/Default/keymap.c **** 			SEND_STRING("YourEmail");
 517               		.loc 1 337 6 is_stmt 0 view .LVU90
 518 0034 1296      		adiw r26,2
 519 0036 8C91      		ld r24,X
 520 0038 1297      		sbiw r26,2
 521 003a 8823      		tst r24
 522 003c 01F0      		breq .L41
 338:keyboards/Manuform6x6/keymaps/Default/keymap.c **** 			return false;	break;
 523               		.loc 1 338 4 is_stmt 1 view .LVU91
 524               	.LBB11:
 338:keyboards/Manuform6x6/keymaps/Default/keymap.c **** 			return false;	break;
 525               		.loc 1 338 4 view .LVU92
 338:keyboards/Manuform6x6/keymaps/Default/keymap.c **** 			return false;	break;
 526               		.loc 1 338 4 view .LVU93
 527               	.LBE11:
 528 003e 80E0      		ldi r24,lo8(__c.3281)
 529 0040 90E0      		ldi r25,hi8(__c.3281)
 530 0042 00C0      		rjmp .L80
 531               	.L41:
 339:keyboards/Manuform6x6/keymaps/Default/keymap.c **** 		}
 532               		.loc 1 339 18 view .LVU94
 342:keyboards/Manuform6x6/keymaps/Default/keymap.c **** 			SEND_STRING("Frequentwebsite"SS_TAP(X_ENTER));
 533               		.loc 1 342 3 view .LVU95
 342:keyboards/Manuform6x6/keymaps/Default/keymap.c **** 			SEND_STRING("Frequentwebsite"SS_TAP(X_ENTER));
 534               		.loc 1 342 6 is_stmt 0 view .LVU96
 535 0044 1296      		adiw r26,2
 536 0046 8C91      		ld r24,X
 537 0048 1297      		sbiw r26,2
 538 004a 8823      		tst r24
 539 004c 01F0      		breq .L40
 343:keyboards/Manuform6x6/keymaps/Default/keymap.c **** 						return false;	break;
 540               		.loc 1 343 4 is_stmt 1 view .LVU97
 541               	.LBB12:
 343:keyboards/Manuform6x6/keymaps/Default/keymap.c **** 						return false;	break;
 542               		.loc 1 343 4 view .LVU98
 343:keyboards/Manuform6x6/keymaps/Default/keymap.c **** 						return false;	break;
 543               		.loc 1 343 4 view .LVU99
 544               	.LBE12:
 545 004e 80E0      		ldi r24,lo8(__c.3284)
 546 0050 90E0      		ldi r25,hi8(__c.3284)
 547 0052 00C0      		rjmp .L80
 548               	.L40:
 344:keyboards/Manuform6x6/keymaps/Default/keymap.c **** 		}
 549               		.loc 1 344 21 view .LVU100
 347:keyboards/Manuform6x6/keymaps/Default/keymap.c **** 			return MACRO(I(10), D(LCTRL), T(T), T(V), T(ENTER), U(LCTRL), END);
 550               		.loc 1 347 3 view .LVU101
 347:keyboards/Manuform6x6/keymaps/Default/keymap.c **** 			return MACRO(I(10), D(LCTRL), T(T), T(V), T(ENTER), U(LCTRL), END);
 551               		.loc 1 347 5 is_stmt 0 view .LVU102
 552 0054 1296      		adiw r26,2
 553 0056 8C91      		ld r24,X
 554 0058 1297      		sbiw r26,2
 555 005a 8111      		cpse r24,__zero_reg__
 556 005c 00C0      		rjmp .L50
 557               	.L39:
 352:keyboards/Manuform6x6/keymaps/Default/keymap.c **** 		}
 558               		.loc 1 352 4 is_stmt 1 view .LVU103
 559 005e 1596      		adiw r26,5
 560 0060 8C91      		ld r24,X
 561 0062 1597      		sbiw r26,5
 562 0064 982F      		mov r25,r24
 563 0066 907F      		andi r25,lo8(-16)
 352:keyboards/Manuform6x6/keymaps/Default/keymap.c **** 		}
 564               		.loc 1 352 12 is_stmt 0 view .LVU104
 565 0068 1296      		adiw r26,2
 566 006a 2C91      		ld r18,X
 567 006c 2223      		tst r18
 568 006e 01F0      		breq .L45
 352:keyboards/Manuform6x6/keymaps/Default/keymap.c **** 		}
 569               		.loc 1 352 12 discriminator 1 view .LVU105
 570 0070 9923      		tst r25
 571 0072 01F0      		breq .L46
 352:keyboards/Manuform6x6/keymaps/Default/keymap.c **** 		}
 572               		.loc 1 352 12 discriminator 4 view .LVU106
 573 0074 80FF      		sbrs r24,0
 574 0076 00C0      		rjmp .L58
 575               	.L46:
 576               	.LBB13:
 352:keyboards/Manuform6x6/keymaps/Default/keymap.c **** 		}
 577               		.loc 1 352 12 is_stmt 1 discriminator 5 view .LVU107
 578 0078 83E0      		ldi r24,lo8(3)
 579 007a 0E94 0000 		call layer_on
 580               	.LVL22:
 352:keyboards/Manuform6x6/keymaps/Default/keymap.c **** 		}
 581               		.loc 1 352 12 discriminator 5 view .LVU108
 582 007e 00C0      		rjmp .L58
 583               	.LVL23:
 584               	.L45:
 352:keyboards/Manuform6x6/keymaps/Default/keymap.c **** 		}
 585               		.loc 1 352 12 is_stmt 0 discriminator 5 view .LVU109
 586               	.LBE13:
 352:keyboards/Manuform6x6/keymaps/Default/keymap.c **** 		}
 587               		.loc 1 352 12 discriminator 2 view .LVU110
 588 0080 9923      		tst r25
 589 0082 01F0      		breq .L47
 352:keyboards/Manuform6x6/keymaps/Default/keymap.c **** 		}
 590               		.loc 1 352 12 discriminator 10 view .LVU111
 591 0084 80FF      		sbrs r24,0
 592 0086 00C0      		rjmp .L52
 593               	.L47:
 594               	.LBB14:
 352:keyboards/Manuform6x6/keymaps/Default/keymap.c **** 		}
 595               		.loc 1 352 12 is_stmt 1 discriminator 13 view .LVU112
 596 0088 83E0      		ldi r24,lo8(3)
 597 008a 0E94 0000 		call layer_off
 598               	.LVL24:
 352:keyboards/Manuform6x6/keymaps/Default/keymap.c **** 		}
 599               		.loc 1 352 12 discriminator 13 view .LVU113
 600 008e 00C0      		rjmp .L58
 601               	.LVL25:
 602               	.L38:
 352:keyboards/Manuform6x6/keymaps/Default/keymap.c **** 		}
 603               		.loc 1 352 12 is_stmt 0 discriminator 13 view .LVU114
 604               	.LBE14:
 355:keyboards/Manuform6x6/keymaps/Default/keymap.c **** 			return MACRO(I(10), T(0), T(C), T(TAB), T(TAB), T(A), T(TAB), END);
 605               		.loc 1 355 4 is_stmt 1 view .LVU115
 355:keyboards/Manuform6x6/keymaps/Default/keymap.c **** 			return MACRO(I(10), T(0), T(C), T(TAB), T(TAB), T(A), T(TAB), END);
 606               		.loc 1 355 6 is_stmt 0 view .LVU116
 607 0090 1296      		adiw r26,2
 608 0092 8C91      		ld r24,X
 609 0094 1297      		sbiw r26,2
 610               	.LVL26:
 355:keyboards/Manuform6x6/keymaps/Default/keymap.c **** 			return MACRO(I(10), T(0), T(C), T(TAB), T(TAB), T(A), T(TAB), END);
 611               		.loc 1 355 6 view .LVU117
 612 0096 8111      		cpse r24,__zero_reg__
 613 0098 00C0      		rjmp .L53
 614               	.L37:
 359:keyboards/Manuform6x6/keymaps/Default/keymap.c **** 		SEND_STRING("");
 615               		.loc 1 359 3 is_stmt 1 view .LVU118
 359:keyboards/Manuform6x6/keymaps/Default/keymap.c **** 		SEND_STRING("");
 616               		.loc 1 359 5 is_stmt 0 view .LVU119
 617 009a 1296      		adiw r26,2
 618 009c 8C91      		ld r24,X
 619 009e 1297      		sbiw r26,2
 620 00a0 8823      		tst r24
 621 00a2 01F0      		breq .L36
 360:keyboards/Manuform6x6/keymaps/Default/keymap.c **** 			return false; break;}
 622               		.loc 1 360 3 is_stmt 1 view .LVU120
 623               	.LBB15:
 360:keyboards/Manuform6x6/keymaps/Default/keymap.c **** 			return false; break;}
 624               		.loc 1 360 3 view .LVU121
 360:keyboards/Manuform6x6/keymaps/Default/keymap.c **** 			return false; break;}
 625               		.loc 1 360 3 view .LVU122
 626               	.LBE15:
 627 00a4 80E0      		ldi r24,lo8(__c.3298)
 628 00a6 90E0      		ldi r25,hi8(__c.3298)
 629 00a8 00C0      		rjmp .L80
 630               	.L36:
 361:keyboards/Manuform6x6/keymaps/Default/keymap.c **** 	}		
 631               		.loc 1 361 18 view .LVU123
 364:keyboards/Manuform6x6/keymaps/Default/keymap.c **** 			SEND_STRING("ipconfig /all");
 632               		.loc 1 364 3 view .LVU124
 364:keyboards/Manuform6x6/keymaps/Default/keymap.c **** 			SEND_STRING("ipconfig /all");
 633               		.loc 1 364 5 is_stmt 0 view .LVU125
 634 00aa 1296      		adiw r26,2
 635 00ac 8C91      		ld r24,X
 636 00ae 1297      		sbiw r26,2
 637 00b0 8823      		tst r24
 638 00b2 01F0      		breq .L35
 365:keyboards/Manuform6x6/keymaps/Default/keymap.c **** 					return false; break;}
 639               		.loc 1 365 4 is_stmt 1 view .LVU126
 640               	.LBB16:
 365:keyboards/Manuform6x6/keymaps/Default/keymap.c **** 					return false; break;}
 641               		.loc 1 365 4 view .LVU127
 365:keyboards/Manuform6x6/keymaps/Default/keymap.c **** 					return false; break;}
 642               		.loc 1 365 4 view .LVU128
 643               	.LBE16:
 644 00b4 80E0      		ldi r24,lo8(__c.3301)
 645 00b6 90E0      		ldi r25,hi8(__c.3301)
 646 00b8 00C0      		rjmp .L80
 647               	.L35:
 366:keyboards/Manuform6x6/keymaps/Default/keymap.c **** 	}
 648               		.loc 1 366 20 view .LVU129
 369:keyboards/Manuform6x6/keymaps/Default/keymap.c **** 		return MACRO( I(10),T(TAB), T(O), T(P), T(TAB),T(ENTER), T(TAB),T(TAB),T(TAB),T(Z),T(R),T(TAB),T(
 649               		.loc 1 369 2 view .LVU130
 369:keyboards/Manuform6x6/keymaps/Default/keymap.c **** 		return MACRO( I(10),T(TAB), T(O), T(P), T(TAB),T(ENTER), T(TAB),T(TAB),T(TAB),T(Z),T(R),T(TAB),T(
 650               		.loc 1 369 4 is_stmt 0 view .LVU131
 651 00ba 1296      		adiw r26,2
 652 00bc 8C91      		ld r24,X
 653 00be 1297      		sbiw r26,2
 654 00c0 8111      		cpse r24,__zero_reg__
 655 00c2 00C0      		rjmp .L54
 656               	.L34:
 373:keyboards/Manuform6x6/keymaps/Default/keymap.c **** 		return MACRO( I(10),T(TAB), T(O), T(T), T(TAB),T(ENTER), T(TAB),T(TAB),T(TAB),T(Z),T(R),T(TAB),T(
 657               		.loc 1 373 2 is_stmt 1 view .LVU132
 373:keyboards/Manuform6x6/keymaps/Default/keymap.c **** 		return MACRO( I(10),T(TAB), T(O), T(T), T(TAB),T(ENTER), T(TAB),T(TAB),T(TAB),T(Z),T(R),T(TAB),T(
 658               		.loc 1 373 4 is_stmt 0 view .LVU133
 659 00c4 1296      		adiw r26,2
 660 00c6 8C91      		ld r24,X
 661 00c8 1297      		sbiw r26,2
 662 00ca 8111      		cpse r24,__zero_reg__
 663 00cc 00C0      		rjmp .L55
 664               	.L33:
 377:keyboards/Manuform6x6/keymaps/Default/keymap.c **** 		return MACRO( I(10),T(TAB), T(I), T(N), T(TAB),T(ENTER), T(TAB),T(TAB),T(TAB),T(I),T(N),T(TAB),T(
 665               		.loc 1 377 2 is_stmt 1 view .LVU134
 377:keyboards/Manuform6x6/keymaps/Default/keymap.c **** 		return MACRO( I(10),T(TAB), T(I), T(N), T(TAB),T(ENTER), T(TAB),T(TAB),T(TAB),T(I),T(N),T(TAB),T(
 666               		.loc 1 377 4 is_stmt 0 view .LVU135
 667 00ce 1296      		adiw r26,2
 668 00d0 8C91      		ld r24,X
 669 00d2 1297      		sbiw r26,2
 670 00d4 8111      		cpse r24,__zero_reg__
 671 00d6 00C0      		rjmp .L56
 672               	.L32:
 381:keyboards/Manuform6x6/keymaps/Default/keymap.c **** 		SEND_STRING(""SS_TAP(X_TAB)""SS_TAP(X_TAB)SS_TAP(X_ENTER));
 673               		.loc 1 381 2 is_stmt 1 view .LVU136
 381:keyboards/Manuform6x6/keymaps/Default/keymap.c **** 		SEND_STRING(""SS_TAP(X_TAB)""SS_TAP(X_TAB)SS_TAP(X_ENTER));
 674               		.loc 1 381 4 is_stmt 0 view .LVU137
 675 00d8 1296      		adiw r26,2
 676 00da 8C91      		ld r24,X
 677 00dc 8823      		tst r24
 678 00de 01F4      		brne .+2
 679 00e0 00C0      		rjmp .L58
 382:keyboards/Manuform6x6/keymaps/Default/keymap.c **** 		return false; break;
 680               		.loc 1 382 3 is_stmt 1 view .LVU138
 681               	.LBB17:
 382:keyboards/Manuform6x6/keymaps/Default/keymap.c **** 		return false; break;
 682               		.loc 1 382 3 view .LVU139
 382:keyboards/Manuform6x6/keymaps/Default/keymap.c **** 		return false; break;
 683               		.loc 1 382 3 view .LVU140
 684               	.LBE17:
 685 00e2 80E0      		ldi r24,lo8(__c.3313)
 686 00e4 90E0      		ldi r25,hi8(__c.3313)
 687 00e6 00C0      		rjmp .L80
 688               	.LVL27:
 689               	.L30:
 383:keyboards/Manuform6x6/keymaps/Default/keymap.c **** 	}
 690               		.loc 1 383 17 view .LVU141
 386:keyboards/Manuform6x6/keymaps/Default/keymap.c **** 	MACRO(T(LGUI), W(50));}
 691               		.loc 1 386 2 view .LVU142
 386:keyboards/Manuform6x6/keymaps/Default/keymap.c **** 	MACRO(T(LGUI), W(50));}
 692               		.loc 1 386 4 is_stmt 0 view .LVU143
 693 00e8 1296      		adiw r26,2
 694 00ea 8C91      		ld r24,X
 695               	.LVL28:
 386:keyboards/Manuform6x6/keymaps/Default/keymap.c **** 	MACRO(T(LGUI), W(50));}
 696               		.loc 1 386 4 view .LVU144
 697 00ec 8111      		cpse r24,__zero_reg__
 698 00ee 00C0      		rjmp .L58
 389:keyboards/Manuform6x6/keymaps/Default/keymap.c **** 		return false; break;
 699               		.loc 1 389 2 is_stmt 1 view .LVU145
 700               	.LBB18:
 389:keyboards/Manuform6x6/keymaps/Default/keymap.c **** 		return false; break;
 701               		.loc 1 389 2 view .LVU146
 389:keyboards/Manuform6x6/keymaps/Default/keymap.c **** 		return false; break;
 702               		.loc 1 389 2 view .LVU147
 703               	.LBE18:
 704 00f0 80E0      		ldi r24,lo8(__c.3318)
 705 00f2 90E0      		ldi r25,hi8(__c.3318)
 706 00f4 00C0      		rjmp .L80
 707               	.L49:
 328:keyboards/Manuform6x6/keymaps/Default/keymap.c **** 		}
 708               		.loc 1 328 11 is_stmt 0 view .LVU148
 709 00f6 80E0      		ldi r24,lo8(__m.3275)
 710 00f8 90E0      		ldi r25,hi8(__m.3275)
 711 00fa 0895      		ret
 712               	.L50:
 348:keyboards/Manuform6x6/keymaps/Default/keymap.c **** 		}
 713               		.loc 1 348 11 view .LVU149
 714 00fc 80E0      		ldi r24,lo8(__m.3287)
 715 00fe 90E0      		ldi r25,hi8(__m.3287)
 716 0100 0895      		ret
 717               	.L52:
 352:keyboards/Manuform6x6/keymaps/Default/keymap.c **** 		}
 718               		.loc 1 352 12 view .LVU150
 719 0102 80E0      		ldi r24,lo8(__m.3291)
 720 0104 90E0      		ldi r25,hi8(__m.3291)
 721 0106 0895      		ret
 722               	.L53:
 356:keyboards/Manuform6x6/keymaps/Default/keymap.c **** 		}
 723               		.loc 1 356 11 view .LVU151
 724 0108 80E0      		ldi r24,lo8(__m.3295)
 725 010a 90E0      		ldi r25,hi8(__m.3295)
 726 010c 0895      		ret
 727               	.L54:
 370:keyboards/Manuform6x6/keymaps/Default/keymap.c **** 	}	
 728               		.loc 1 370 10 view .LVU152
 729 010e 80E0      		ldi r24,lo8(__m.3304)
 730 0110 90E0      		ldi r25,hi8(__m.3304)
 731 0112 0895      		ret
 732               	.L55:
 374:keyboards/Manuform6x6/keymaps/Default/keymap.c **** 	}	
 733               		.loc 1 374 10 view .LVU153
 734 0114 80E0      		ldi r24,lo8(__m.3307)
 735 0116 90E0      		ldi r25,hi8(__m.3307)
 736 0118 0895      		ret
 737               	.L56:
 378:keyboards/Manuform6x6/keymaps/Default/keymap.c **** 	}	
 738               		.loc 1 378 10 view .LVU154
 739 011a 80E0      		ldi r24,lo8(__m.3310)
 740 011c 90E0      		ldi r25,hi8(__m.3310)
 741 011e 0895      		ret
 742               		.cfi_endproc
 743               	.LFE29:
 745               		.section	.text.matrix_init_user,"ax",@progbits
 746               	.global	matrix_init_user
 748               	matrix_init_user:
 749               	.LFB34:
 439:keyboards/Manuform6x6/keymaps/Default/keymap.c **** 	
 440:keyboards/Manuform6x6/keymaps/Default/keymap.c **** qk_tap_dance_action_t tap_dance_actions[] = {
 441:keyboards/Manuform6x6/keymaps/Default/keymap.c **** 	
 442:keyboards/Manuform6x6/keymaps/Default/keymap.c **** 	//Tap once for Esc, twice for Caps Lock
 443:keyboards/Manuform6x6/keymaps/Default/keymap.c **** 	[TD_CPY_PST] = ACTION_TAP_DANCE_FN(cmd_commands),
 444:keyboards/Manuform6x6/keymaps/Default/keymap.c **** 	[TD_SLSH]= ACTION_TAP_DANCE_FN(SLSH_BSLSH),
 445:keyboards/Manuform6x6/keymaps/Default/keymap.c **** 	[TD_CMD]=ACTION_TAP_DANCE_FN(cmd),
 446:keyboards/Manuform6x6/keymaps/Default/keymap.c **** 	[TD_VRDSK]=ACTION_TAP_DANCE_FN(VirtualDesktop)
 447:keyboards/Manuform6x6/keymaps/Default/keymap.c **** };
 448:keyboards/Manuform6x6/keymaps/Default/keymap.c **** 
 449:keyboards/Manuform6x6/keymaps/Default/keymap.c **** void matrix_init_user(void) {
 750               		.loc 1 449 29 is_stmt 1 view -0
 751               		.cfi_startproc
 752               	/* prologue: function */
 753               	/* frame size = 0 */
 754               	/* stack size = 0 */
 755               	.L__stack_usage = 0
 450:keyboards/Manuform6x6/keymaps/Default/keymap.c **** }
 756               		.loc 1 450 1 view .LVU156
 757               	/* epilogue start */
 758 0000 0895      		ret
 759               		.cfi_endproc
 760               	.LFE34:
 762               		.section	.text.matrix_scan_user,"ax",@progbits
 763               	.global	matrix_scan_user
 765               	matrix_scan_user:
 766               	.LFB38:
 767               		.cfi_startproc
 768               	/* prologue: function */
 769               	/* frame size = 0 */
 770               	/* stack size = 0 */
 771               	.L__stack_usage = 0
 772               	/* epilogue start */
 773 0000 0895      		ret
 774               		.cfi_endproc
 775               	.LFE38:
 777               		.section	.text.process_record_user,"ax",@progbits
 778               	.global	process_record_user
 780               	process_record_user:
 781               	.LVL29:
 782               	.LFB36:
 451:keyboards/Manuform6x6/keymaps/Default/keymap.c **** 
 452:keyboards/Manuform6x6/keymaps/Default/keymap.c **** void matrix_scan_user(void) {
 453:keyboards/Manuform6x6/keymaps/Default/keymap.c **** 	
 454:keyboards/Manuform6x6/keymaps/Default/keymap.c **** 	
 455:keyboards/Manuform6x6/keymaps/Default/keymap.c **** }
 456:keyboards/Manuform6x6/keymaps/Default/keymap.c **** bool process_record_user(uint16_t keycode, keyrecord_t *record) {
 783               		.loc 1 456 65 view -0
 784               		.cfi_startproc
 785               		.loc 1 456 65 is_stmt 0 view .LVU158
 786 0000 CF93      		push r28
 787               	.LCFI2:
 788               		.cfi_def_cfa_offset 3
 789               		.cfi_offset 28, -2
 790               	/* prologue: function */
 791               	/* frame size = 0 */
 792               	/* stack size = 1 */
 793               	.L__stack_usage = 1
 794 0002 FB01      		movw r30,r22
 457:keyboards/Manuform6x6/keymaps/Default/keymap.c **** 	switch (keycode) {
 795               		.loc 1 457 2 is_stmt 1 view .LVU159
 796 0004 8C3D      		cpi r24,-36
 797 0006 2CE5      		ldi r18,92
 798 0008 9207      		cpc r25,r18
 799 000a 01F0      		breq .L84
 800 000c 00F4      		brsh .L85
 801 000e 8A3D      		cpi r24,-38
 802 0010 2CE5      		ldi r18,92
 803 0012 9207      		cpc r25,r18
 804 0014 01F0      		breq .L86
 805 0016 8B3D      		cpi r24,-37
 806 0018 9C45      		sbci r25,92
 807 001a 01F0      		breq .L87
 808               	.L104:
 458:keyboards/Manuform6x6/keymaps/Default/keymap.c **** 		case COLEMAK:
 459:keyboards/Manuform6x6/keymaps/Default/keymap.c **** 		if (record->event.pressed) {
 460:keyboards/Manuform6x6/keymaps/Default/keymap.c **** 			#ifdef AUDIO_ENABLE
 461:keyboards/Manuform6x6/keymaps/Default/keymap.c **** 			PLAY_NOTE_ARRAY(tone_colemak, false, 0);
 462:keyboards/Manuform6x6/keymaps/Default/keymap.c **** 			#endif
 463:keyboards/Manuform6x6/keymaps/Default/keymap.c **** 			persistent_default_layer_set(1UL<<_COLEMAK);
 464:keyboards/Manuform6x6/keymaps/Default/keymap.c **** 		}
 465:keyboards/Manuform6x6/keymaps/Default/keymap.c **** 		return false;
 466:keyboards/Manuform6x6/keymaps/Default/keymap.c **** 		break;
 467:keyboards/Manuform6x6/keymaps/Default/keymap.c **** 	case QWERTY:
 468:keyboards/Manuform6x6/keymaps/Default/keymap.c **** 		if (record->event.pressed) {
 469:keyboards/Manuform6x6/keymaps/Default/keymap.c **** 			#ifdef AUDIO_ENABLE
 470:keyboards/Manuform6x6/keymaps/Default/keymap.c **** 			PLAY_NOTE_ARRAY(tone_qwerty, false, 0);
 471:keyboards/Manuform6x6/keymaps/Default/keymap.c **** 			#endif
 472:keyboards/Manuform6x6/keymaps/Default/keymap.c **** 			persistent_default_layer_set(1UL<<_QWERTY);
 473:keyboards/Manuform6x6/keymaps/Default/keymap.c **** 		}
 474:keyboards/Manuform6x6/keymaps/Default/keymap.c **** 		return false;
 475:keyboards/Manuform6x6/keymaps/Default/keymap.c **** 		break;
 476:keyboards/Manuform6x6/keymaps/Default/keymap.c **** 	case DVORAK:
 477:keyboards/Manuform6x6/keymaps/Default/keymap.c **** 		if (record->event.pressed) {
 478:keyboards/Manuform6x6/keymaps/Default/keymap.c **** 			#ifdef AUDIO_ENABLE
 479:keyboards/Manuform6x6/keymaps/Default/keymap.c **** 			PLAY_NOTE_ARRAY(tone_dvorak, false, 0);
 480:keyboards/Manuform6x6/keymaps/Default/keymap.c **** 			#endif
 481:keyboards/Manuform6x6/keymaps/Default/keymap.c **** 			persistent_default_layer_set(1UL<<_DVORAK);
 482:keyboards/Manuform6x6/keymaps/Default/keymap.c **** 		}
 483:keyboards/Manuform6x6/keymaps/Default/keymap.c **** 		return false;
 484:keyboards/Manuform6x6/keymaps/Default/keymap.c **** 		break;
 485:keyboards/Manuform6x6/keymaps/Default/keymap.c **** 	case LOWER:
 486:keyboards/Manuform6x6/keymaps/Default/keymap.c **** 		if (record->event.pressed) {
 487:keyboards/Manuform6x6/keymaps/Default/keymap.c **** 			layer_on(_LOWER);
 488:keyboards/Manuform6x6/keymaps/Default/keymap.c **** 			update_tri_layer(_LOWER, _RAISE, _ADJUST);
 489:keyboards/Manuform6x6/keymaps/Default/keymap.c **** 		} else {
 490:keyboards/Manuform6x6/keymaps/Default/keymap.c **** 			layer_off(_LOWER);
 491:keyboards/Manuform6x6/keymaps/Default/keymap.c **** 			update_tri_layer(_LOWER, _RAISE, _ADJUST);
 492:keyboards/Manuform6x6/keymaps/Default/keymap.c **** 		}
 493:keyboards/Manuform6x6/keymaps/Default/keymap.c **** 		return false;
 494:keyboards/Manuform6x6/keymaps/Default/keymap.c **** 		break;
 495:keyboards/Manuform6x6/keymaps/Default/keymap.c **** 	case RAISE:
 496:keyboards/Manuform6x6/keymaps/Default/keymap.c **** 		if (record->event.pressed) {
 497:keyboards/Manuform6x6/keymaps/Default/keymap.c **** 			layer_on(_RAISE);
 498:keyboards/Manuform6x6/keymaps/Default/keymap.c **** 			update_tri_layer(_LOWER, _RAISE, _ADJUST);
 499:keyboards/Manuform6x6/keymaps/Default/keymap.c **** 		} else {
 500:keyboards/Manuform6x6/keymaps/Default/keymap.c **** 			layer_off(_RAISE);
 501:keyboards/Manuform6x6/keymaps/Default/keymap.c **** 			update_tri_layer(_LOWER, _RAISE, _ADJUST);
 502:keyboards/Manuform6x6/keymaps/Default/keymap.c **** 		}
 503:keyboards/Manuform6x6/keymaps/Default/keymap.c **** 		return false;
 504:keyboards/Manuform6x6/keymaps/Default/keymap.c **** 		break;
 505:keyboards/Manuform6x6/keymaps/Default/keymap.c **** 	case ADJUST:
 506:keyboards/Manuform6x6/keymaps/Default/keymap.c **** 		if (record->event.pressed) {
 507:keyboards/Manuform6x6/keymaps/Default/keymap.c **** 			layer_on(_ADJUST);
 508:keyboards/Manuform6x6/keymaps/Default/keymap.c **** 		} else {
 509:keyboards/Manuform6x6/keymaps/Default/keymap.c **** 			layer_off(_ADJUST);
 510:keyboards/Manuform6x6/keymaps/Default/keymap.c **** 		}
 511:keyboards/Manuform6x6/keymaps/Default/keymap.c **** 		return false;
 512:keyboards/Manuform6x6/keymaps/Default/keymap.c **** 		break;
 513:keyboards/Manuform6x6/keymaps/Default/keymap.c **** 	}
 514:keyboards/Manuform6x6/keymaps/Default/keymap.c **** 	return true;
 809               		.loc 1 514 9 is_stmt 0 view .LVU160
 810 001c C1E0      		ldi r28,lo8(1)
 811               	.LVL30:
 812               	.L83:
 515:keyboards/Manuform6x6/keymaps/Default/keymap.c **** }
 813               		.loc 1 515 1 view .LVU161
 814 001e 8C2F      		mov r24,r28
 815               	/* epilogue start */
 816 0020 CF91      		pop r28
 817 0022 0895      		ret
 818               	.LVL31:
 819               	.L85:
 457:keyboards/Manuform6x6/keymaps/Default/keymap.c **** 	switch (keycode) {
 820               		.loc 1 457 2 view .LVU162
 821 0024 8E3D      		cpi r24,-34
 822 0026 2CE5      		ldi r18,92
 823 0028 9207      		cpc r25,r18
 824 002a 01F0      		breq .L89
 825 002c 00F0      		brlo .L90
 826 002e 803E      		cpi r24,-32
 827 0030 9C45      		sbci r25,92
 828 0032 01F4      		brne .L104
 504:keyboards/Manuform6x6/keymaps/Default/keymap.c **** 	case ADJUST:
 829               		.loc 1 504 3 is_stmt 1 view .LVU163
 506:keyboards/Manuform6x6/keymaps/Default/keymap.c **** 			layer_on(_ADJUST);
 830               		.loc 1 506 3 view .LVU164
 506:keyboards/Manuform6x6/keymaps/Default/keymap.c **** 			layer_on(_ADJUST);
 831               		.loc 1 506 20 is_stmt 0 view .LVU165
 832 0034 C281      		ldd r28,Z+2
 507:keyboards/Manuform6x6/keymaps/Default/keymap.c **** 		} else {
 833               		.loc 1 507 4 view .LVU166
 834 0036 80E1      		ldi r24,lo8(16)
 835               	.LVL32:
 506:keyboards/Manuform6x6/keymaps/Default/keymap.c **** 			layer_on(_ADJUST);
 836               		.loc 1 506 6 view .LVU167
 837 0038 CC23      		tst r28
 838 003a 01F0      		breq .L94
 507:keyboards/Manuform6x6/keymaps/Default/keymap.c **** 		} else {
 839               		.loc 1 507 4 is_stmt 1 view .LVU168
 840 003c 0E94 0000 		call layer_on
 841               	.LVL33:
 507:keyboards/Manuform6x6/keymaps/Default/keymap.c **** 		} else {
 842               		.loc 1 507 4 is_stmt 0 view .LVU169
 843 0040 00C0      		rjmp .L105
 844               	.LVL34:
 845               	.L86:
 459:keyboards/Manuform6x6/keymaps/Default/keymap.c **** 			#ifdef AUDIO_ENABLE
 846               		.loc 1 459 3 is_stmt 1 view .LVU170
 459:keyboards/Manuform6x6/keymaps/Default/keymap.c **** 			#ifdef AUDIO_ENABLE
 847               		.loc 1 459 20 is_stmt 0 view .LVU171
 848 0042 C281      		ldd r28,Z+2
 463:keyboards/Manuform6x6/keymaps/Default/keymap.c **** 		}
 849               		.loc 1 463 4 view .LVU172
 850 0044 81E0      		ldi r24,lo8(1)
 851 0046 90E0      		ldi r25,0
 852               	.LVL35:
 459:keyboards/Manuform6x6/keymaps/Default/keymap.c **** 			#ifdef AUDIO_ENABLE
 853               		.loc 1 459 6 view .LVU173
 854 0048 CC23      		tst r28
 855 004a 01F0      		breq .L83
 856               	.L106:
 481:keyboards/Manuform6x6/keymaps/Default/keymap.c **** 		}
 857               		.loc 1 481 4 view .LVU174
 858 004c 0E94 0000 		call persistent_default_layer_set
 859               	.LVL36:
 860               	.L105:
 511:keyboards/Manuform6x6/keymaps/Default/keymap.c **** 		break;
 861               		.loc 1 511 10 view .LVU175
 862 0050 C0E0      		ldi r28,0
 863 0052 00C0      		rjmp .L83
 864               	.LVL37:
 865               	.L87:
 466:keyboards/Manuform6x6/keymaps/Default/keymap.c **** 	case QWERTY:
 866               		.loc 1 466 3 is_stmt 1 view .LVU176
 468:keyboards/Manuform6x6/keymaps/Default/keymap.c **** 			#ifdef AUDIO_ENABLE
 867               		.loc 1 468 3 view .LVU177
 468:keyboards/Manuform6x6/keymaps/Default/keymap.c **** 			#ifdef AUDIO_ENABLE
 868               		.loc 1 468 20 is_stmt 0 view .LVU178
 869 0054 C281      		ldd r28,Z+2
 472:keyboards/Manuform6x6/keymaps/Default/keymap.c **** 		}
 870               		.loc 1 472 4 view .LVU179
 871 0056 82E0      		ldi r24,lo8(2)
 872 0058 90E0      		ldi r25,0
 873               	.LVL38:
 468:keyboards/Manuform6x6/keymaps/Default/keymap.c **** 			#ifdef AUDIO_ENABLE
 874               		.loc 1 468 6 view .LVU180
 875 005a CC23      		tst r28
 876 005c 01F0      		breq .L83
 877 005e 00C0      		rjmp .L106
 878               	.LVL39:
 879               	.L84:
 475:keyboards/Manuform6x6/keymaps/Default/keymap.c **** 	case DVORAK:
 880               		.loc 1 475 3 is_stmt 1 view .LVU181
 477:keyboards/Manuform6x6/keymaps/Default/keymap.c **** 			#ifdef AUDIO_ENABLE
 881               		.loc 1 477 3 view .LVU182
 477:keyboards/Manuform6x6/keymaps/Default/keymap.c **** 			#ifdef AUDIO_ENABLE
 882               		.loc 1 477 20 is_stmt 0 view .LVU183
 883 0060 C281      		ldd r28,Z+2
 477:keyboards/Manuform6x6/keymaps/Default/keymap.c **** 			#ifdef AUDIO_ENABLE
 884               		.loc 1 477 6 view .LVU184
 885 0062 CC23      		tst r28
 886 0064 01F0      		breq .L83
 481:keyboards/Manuform6x6/keymaps/Default/keymap.c **** 		}
 887               		.loc 1 481 4 is_stmt 1 view .LVU185
 888 0066 84E0      		ldi r24,lo8(4)
 889 0068 90E0      		ldi r25,0
 890               	.LVL40:
 481:keyboards/Manuform6x6/keymaps/Default/keymap.c **** 		}
 891               		.loc 1 481 4 is_stmt 0 view .LVU186
 892 006a 00C0      		rjmp .L106
 893               	.LVL41:
 894               	.L90:
 484:keyboards/Manuform6x6/keymaps/Default/keymap.c **** 	case LOWER:
 895               		.loc 1 484 3 is_stmt 1 view .LVU187
 486:keyboards/Manuform6x6/keymaps/Default/keymap.c **** 			layer_on(_LOWER);
 896               		.loc 1 486 3 view .LVU188
 486:keyboards/Manuform6x6/keymaps/Default/keymap.c **** 			layer_on(_LOWER);
 897               		.loc 1 486 20 is_stmt 0 view .LVU189
 898 006c C281      		ldd r28,Z+2
 487:keyboards/Manuform6x6/keymaps/Default/keymap.c **** 			update_tri_layer(_LOWER, _RAISE, _ADJUST);
 899               		.loc 1 487 4 view .LVU190
 900 006e 83E0      		ldi r24,lo8(3)
 901               	.LVL42:
 902               	.L109:
 496:keyboards/Manuform6x6/keymaps/Default/keymap.c **** 			layer_on(_RAISE);
 903               		.loc 1 496 6 view .LVU191
 904 0070 CC23      		tst r28
 905 0072 01F0      		breq .L93
 497:keyboards/Manuform6x6/keymaps/Default/keymap.c **** 			update_tri_layer(_LOWER, _RAISE, _ADJUST);
 906               		.loc 1 497 4 is_stmt 1 view .LVU192
 907 0074 0E94 0000 		call layer_on
 908               	.LVL43:
 498:keyboards/Manuform6x6/keymaps/Default/keymap.c **** 		} else {
 909               		.loc 1 498 4 view .LVU193
 910 0078 40E1      		ldi r20,lo8(16)
 911 007a 64E0      		ldi r22,lo8(4)
 912 007c 83E0      		ldi r24,lo8(3)
 913 007e 0E94 0000 		call update_tri_layer
 914               	.LVL44:
 915 0082 00C0      		rjmp .L105
 916               	.LVL45:
 917               	.L89:
 494:keyboards/Manuform6x6/keymaps/Default/keymap.c **** 	case RAISE:
 918               		.loc 1 494 3 view .LVU194
 496:keyboards/Manuform6x6/keymaps/Default/keymap.c **** 			layer_on(_RAISE);
 919               		.loc 1 496 3 view .LVU195
 496:keyboards/Manuform6x6/keymaps/Default/keymap.c **** 			layer_on(_RAISE);
 920               		.loc 1 496 20 is_stmt 0 view .LVU196
 921 0084 C281      		ldd r28,Z+2
 497:keyboards/Manuform6x6/keymaps/Default/keymap.c **** 			update_tri_layer(_LOWER, _RAISE, _ADJUST);
 922               		.loc 1 497 4 view .LVU197
 923 0086 84E0      		ldi r24,lo8(4)
 924               	.LVL46:
 497:keyboards/Manuform6x6/keymaps/Default/keymap.c **** 			update_tri_layer(_LOWER, _RAISE, _ADJUST);
 925               		.loc 1 497 4 view .LVU198
 926 0088 00C0      		rjmp .L109
 927               	.L93:
 500:keyboards/Manuform6x6/keymaps/Default/keymap.c **** 			update_tri_layer(_LOWER, _RAISE, _ADJUST);
 928               		.loc 1 500 4 is_stmt 1 view .LVU199
 929 008a 0E94 0000 		call layer_off
 930               	.LVL47:
 501:keyboards/Manuform6x6/keymaps/Default/keymap.c **** 		}
 931               		.loc 1 501 4 view .LVU200
 932 008e 40E1      		ldi r20,lo8(16)
 933 0090 64E0      		ldi r22,lo8(4)
 934 0092 83E0      		ldi r24,lo8(3)
 935 0094 0E94 0000 		call update_tri_layer
 936               	.LVL48:
 937 0098 00C0      		rjmp .L83
 938               	.LVL49:
 939               	.L94:
 509:keyboards/Manuform6x6/keymaps/Default/keymap.c **** 		}
 940               		.loc 1 509 4 view .LVU201
 941 009a 0E94 0000 		call layer_off
 942               	.LVL50:
 509:keyboards/Manuform6x6/keymaps/Default/keymap.c **** 		}
 943               		.loc 1 509 4 is_stmt 0 view .LVU202
 944 009e 00C0      		rjmp .L83
 945               		.cfi_endproc
 946               	.LFE36:
 948               		.section	.progmem.data.__m.3350,"a"
 951               	__m.3350:
 952 0000 01        		.byte	1
 953 0001 E3        		.byte	-29
 954 0002 01        		.byte	1
 955 0003 E0        		.byte	-32
 956 0004 01        		.byte	1
 957 0005 4F        		.byte	79
 958 0006 02        		.byte	2
 959 0007 4F        		.byte	79
 960 0008 02        		.byte	2
 961 0009 E0        		.byte	-32
 962 000a 02        		.byte	2
 963 000b E3        		.byte	-29
 964 000c 00        		.byte	0
 965               		.section	.progmem.data.__m.3348,"a"
 968               	__m.3348:
 969 0000 01        		.byte	1
 970 0001 E3        		.byte	-29
 971 0002 01        		.byte	1
 972 0003 E0        		.byte	-32
 973 0004 01        		.byte	1
 974 0005 50        		.byte	80
 975 0006 02        		.byte	2
 976 0007 50        		.byte	80
 977 0008 02        		.byte	2
 978 0009 E0        		.byte	-32
 979 000a 02        		.byte	2
 980 000b E3        		.byte	-29
 981 000c 00        		.byte	0
 982               		.section	.progmem.data.__m.3338,"a"
 985               	__m.3338:
 986 0000 01        		.byte	1
 987 0001 E3        		.byte	-29
 988 0002 01        		.byte	1
 989 0003 15        		.byte	21
 990 0004 02        		.byte	2
 991 0005 15        		.byte	21
 992 0006 74        		.byte	116
 993 0007 FF        		.byte	-1
 994 0008 02        		.byte	2
 995 0009 E3        		.byte	-29
 996 000a 74        		.byte	116
 997 000b FF        		.byte	-1
 998 000c 01        		.byte	1
 999 000d 06        		.byte	6
 1000 000e 02        		.byte	2
 1001 000f 06        		.byte	6
 1002 0010 01        		.byte	1
 1003 0011 10        		.byte	16
 1004 0012 02        		.byte	2
 1005 0013 10        		.byte	16
 1006 0014 01        		.byte	1
 1007 0015 07        		.byte	7
 1008 0016 02        		.byte	2
 1009 0017 07        		.byte	7
 1010 0018 01        		.byte	1
 1011 0019 28        		.byte	40
 1012 001a 02        		.byte	2
 1013 001b 28        		.byte	40
 1014 001c 74        		.byte	116
 1015 001d FF        		.byte	-1
 1016 001e 01        		.byte	1
 1017 001f 13        		.byte	19
 1018 0020 02        		.byte	2
 1019 0021 13        		.byte	19
 1020 0022 01        		.byte	1
 1021 0023 0C        		.byte	12
 1022 0024 02        		.byte	2
 1023 0025 0C        		.byte	12
 1024 0026 01        		.byte	1
 1025 0027 11        		.byte	17
 1026 0028 02        		.byte	2
 1027 0029 11        		.byte	17
 1028 002a 01        		.byte	1
 1029 002b 0A        		.byte	10
 1030 002c 02        		.byte	2
 1031 002d 0A        		.byte	10
 1032 002e 01        		.byte	1
 1033 002f 2C        		.byte	44
 1034 0030 02        		.byte	2
 1035 0031 2C        		.byte	44
 1036 0032 01        		.byte	1
 1037 0033 E0        		.byte	-32
 1038 0034 01        		.byte	1
 1039 0035 19        		.byte	25
 1040 0036 02        		.byte	2
 1041 0037 19        		.byte	25
 1042 0038 02        		.byte	2
 1043 0039 E0        		.byte	-32
 1044 003a 00        		.byte	0
 1045               		.section	.progmem.data.__m.3336,"a"
 1048               	__m.3336:
 1049 0000 01        		.byte	1
 1050 0001 E3        		.byte	-29
 1051 0002 01        		.byte	1
 1052 0003 15        		.byte	21
 1053 0004 02        		.byte	2
 1054 0005 15        		.byte	21
 1055 0006 02        		.byte	2
 1056 0007 E3        		.byte	-29
 1057 0008 01        		.byte	1
 1058 0009 06        		.byte	6
 1059 000a 02        		.byte	2
 1060 000b 06        		.byte	6
 1061 000c 01        		.byte	1
 1062 000d 10        		.byte	16
 1063 000e 02        		.byte	2
 1064 000f 10        		.byte	16
 1065 0010 01        		.byte	1
 1066 0011 07        		.byte	7
 1067 0012 02        		.byte	2
 1068 0013 07        		.byte	7
 1069 0014 01        		.byte	1
 1070 0015 28        		.byte	40
 1071 0016 02        		.byte	2
 1072 0017 28        		.byte	40
 1073 0018 74        		.byte	116
 1074 0019 FF        		.byte	-1
 1075 001a 74        		.byte	116
 1076 001b FF        		.byte	-1
 1077 001c 01        		.byte	1
 1078 001d 0C        		.byte	12
 1079 001e 02        		.byte	2
 1080 001f 0C        		.byte	12
 1081 0020 01        		.byte	1
 1082 0021 13        		.byte	19
 1083 0022 02        		.byte	2
 1084 0023 13        		.byte	19
 1085 0024 01        		.byte	1
 1086 0025 06        		.byte	6
 1087 0026 02        		.byte	2
 1088 0027 06        		.byte	6
 1089 0028 01        		.byte	1
 1090 0029 12        		.byte	18
 1091 002a 02        		.byte	2
 1092 002b 12        		.byte	18
 1093 002c 01        		.byte	1
 1094 002d 11        		.byte	17
 1095 002e 02        		.byte	2
 1096 002f 11        		.byte	17
 1097 0030 01        		.byte	1
 1098 0031 09        		.byte	9
 1099 0032 02        		.byte	2
 1100 0033 09        		.byte	9
 1101 0034 01        		.byte	1
 1102 0035 0C        		.byte	12
 1103 0036 02        		.byte	2
 1104 0037 0C        		.byte	12
 1105 0038 01        		.byte	1
 1106 0039 0A        		.byte	10
 1107 003a 02        		.byte	2
 1108 003b 0A        		.byte	10
 1109 003c 01        		.byte	1
 1110 003d 2C        		.byte	44
 1111 003e 02        		.byte	2
 1112 003f 2C        		.byte	44
 1113 0040 01        		.byte	1
 1114 0041 38        		.byte	56
 1115 0042 02        		.byte	2
 1116 0043 38        		.byte	56
 1117 0044 01        		.byte	1
 1118 0045 04        		.byte	4
 1119 0046 02        		.byte	2
 1120 0047 04        		.byte	4
 1121 0048 01        		.byte	1
 1122 0049 0F        		.byte	15
 1123 004a 02        		.byte	2
 1124 004b 0F        		.byte	15
 1125 004c 01        		.byte	1
 1126 004d 0F        		.byte	15
 1127 004e 02        		.byte	2
 1128 004f 0F        		.byte	15
 1129 0050 01        		.byte	1
 1130 0051 28        		.byte	40
 1131 0052 02        		.byte	2
 1132 0053 28        		.byte	40
 1133 0054 00        		.byte	0
 1134               		.section	.progmem.data.__m.3334,"a"
 1137               	__m.3334:
 1138 0000 01        		.byte	1
 1139 0001 E3        		.byte	-29
 1140 0002 01        		.byte	1
 1141 0003 15        		.byte	21
 1142 0004 02        		.byte	2
 1143 0005 15        		.byte	21
 1144 0006 74        		.byte	116
 1145 0007 FF        		.byte	-1
 1146 0008 02        		.byte	2
 1147 0009 E3        		.byte	-29
 1148 000a 74        		.byte	116
 1149 000b FF        		.byte	-1
 1150 000c 01        		.byte	1
 1151 000d 06        		.byte	6
 1152 000e 02        		.byte	2
 1153 000f 06        		.byte	6
 1154 0010 01        		.byte	1
 1155 0011 10        		.byte	16
 1156 0012 02        		.byte	2
 1157 0013 10        		.byte	16
 1158 0014 01        		.byte	1
 1159 0015 07        		.byte	7
 1160 0016 02        		.byte	2
 1161 0017 07        		.byte	7
 1162 0018 01        		.byte	1
 1163 0019 28        		.byte	40
 1164 001a 02        		.byte	2
 1165 001b 28        		.byte	40
 1166 001c 00        		.byte	0
 1167               		.section	.progmem.data.__m.3328,"a"
 1170               	__m.3328:
 1171 0000 01        		.byte	1
 1172 0001 E0        		.byte	-32
 1173 0002 01        		.byte	1
 1174 0003 04        		.byte	4
 1175 0004 02        		.byte	2
 1176 0005 04        		.byte	4
 1177 0006 01        		.byte	1
 1178 0007 06        		.byte	6
 1179 0008 02        		.byte	2
 1180 0009 06        		.byte	6
 1181 000a 02        		.byte	2
 1182 000b E0        		.byte	-32
 1183 000c 00        		.byte	0
 1184               		.section	.progmem.data.__m.3326,"a"
 1187               	__m.3326:
 1188 0000 01        		.byte	1
 1189 0001 E0        		.byte	-32
 1190 0002 01        		.byte	1
 1191 0003 19        		.byte	25
 1192 0004 02        		.byte	2
 1193 0005 19        		.byte	25
 1194 0006 02        		.byte	2
 1195 0007 E0        		.byte	-32
 1196 0008 00        		.byte	0
 1197               		.section	.progmem.data.__m.3324,"a"
 1200               	__m.3324:
 1201 0000 01        		.byte	1
 1202 0001 E0        		.byte	-32
 1203 0002 01        		.byte	1
 1204 0003 06        		.byte	6
 1205 0004 02        		.byte	2
 1206 0005 06        		.byte	6
 1207 0006 02        		.byte	2
 1208 0007 E0        		.byte	-32
 1209 0008 00        		.byte	0
 1210               		.section	.progmem.data.__c.3318,"a"
 1213               	__c.3318:
 1214 0000 636D 6401 		.string	"cmd\001("
 1214      2800 
 1215               		.section	.progmem.data.__c.3313,"a"
 1218               	__c.3313:
 1219 0000 012B 012B 		.string	"\001+\001+\001("
 1219      0128 00
 1220               		.section	.progmem.data.__m.3310,"a"
 1223               	__m.3310:
 1224 0000 75        		.byte	117
 1225 0001 0A        		.byte	10
 1226 0002 01        		.byte	1
 1227 0003 2B        		.byte	43
 1228 0004 02        		.byte	2
 1229 0005 2B        		.byte	43
 1230 0006 01        		.byte	1
 1231 0007 0C        		.byte	12
 1232 0008 02        		.byte	2
 1233 0009 0C        		.byte	12
 1234 000a 01        		.byte	1
 1235 000b 11        		.byte	17
 1236 000c 02        		.byte	2
 1237 000d 11        		.byte	17
 1238 000e 01        		.byte	1
 1239 000f 2B        		.byte	43
 1240 0010 02        		.byte	2
 1241 0011 2B        		.byte	43
 1242 0012 01        		.byte	1
 1243 0013 28        		.byte	40
 1244 0014 02        		.byte	2
 1245 0015 28        		.byte	40
 1246 0016 01        		.byte	1
 1247 0017 2B        		.byte	43
 1248 0018 02        		.byte	2
 1249 0019 2B        		.byte	43
 1250 001a 01        		.byte	1
 1251 001b 2B        		.byte	43
 1252 001c 02        		.byte	2
 1253 001d 2B        		.byte	43
 1254 001e 01        		.byte	1
 1255 001f 2B        		.byte	43
 1256 0020 02        		.byte	2
 1257 0021 2B        		.byte	43
 1258 0022 01        		.byte	1
 1259 0023 0C        		.byte	12
 1260 0024 02        		.byte	2
 1261 0025 0C        		.byte	12
 1262 0026 01        		.byte	1
 1263 0027 11        		.byte	17
 1264 0028 02        		.byte	2
 1265 0029 11        		.byte	17
 1266 002a 01        		.byte	1
 1267 002b 2B        		.byte	43
 1268 002c 02        		.byte	2
 1269 002d 2B        		.byte	43
 1270 002e 01        		.byte	1
 1271 002f 28        		.byte	40
 1272 0030 02        		.byte	2
 1273 0031 28        		.byte	40
 1274 0032 00        		.byte	0
 1275               		.section	.progmem.data.__m.3307,"a"
 1278               	__m.3307:
 1279 0000 75        		.byte	117
 1280 0001 0A        		.byte	10
 1281 0002 01        		.byte	1
 1282 0003 2B        		.byte	43
 1283 0004 02        		.byte	2
 1284 0005 2B        		.byte	43
 1285 0006 01        		.byte	1
 1286 0007 12        		.byte	18
 1287 0008 02        		.byte	2
 1288 0009 12        		.byte	18
 1289 000a 01        		.byte	1
 1290 000b 17        		.byte	23
 1291 000c 02        		.byte	2
 1292 000d 17        		.byte	23
 1293 000e 01        		.byte	1
 1294 000f 2B        		.byte	43
 1295 0010 02        		.byte	2
 1296 0011 2B        		.byte	43
 1297 0012 01        		.byte	1
 1298 0013 28        		.byte	40
 1299 0014 02        		.byte	2
 1300 0015 28        		.byte	40
 1301 0016 01        		.byte	1
 1302 0017 2B        		.byte	43
 1303 0018 02        		.byte	2
 1304 0019 2B        		.byte	43
 1305 001a 01        		.byte	1
 1306 001b 2B        		.byte	43
 1307 001c 02        		.byte	2
 1308 001d 2B        		.byte	43
 1309 001e 01        		.byte	1
 1310 001f 2B        		.byte	43
 1311 0020 02        		.byte	2
 1312 0021 2B        		.byte	43
 1313 0022 01        		.byte	1
 1314 0023 1D        		.byte	29
 1315 0024 02        		.byte	2
 1316 0025 1D        		.byte	29
 1317 0026 01        		.byte	1
 1318 0027 15        		.byte	21
 1319 0028 02        		.byte	2
 1320 0029 15        		.byte	21
 1321 002a 01        		.byte	1
 1322 002b 2B        		.byte	43
 1323 002c 02        		.byte	2
 1324 002d 2B        		.byte	43
 1325 002e 01        		.byte	1
 1326 002f 28        		.byte	40
 1327 0030 02        		.byte	2
 1328 0031 28        		.byte	40
 1329 0032 00        		.byte	0
 1330               		.section	.progmem.data.__m.3304,"a"
 1333               	__m.3304:
 1334 0000 75        		.byte	117
 1335 0001 0A        		.byte	10
 1336 0002 01        		.byte	1
 1337 0003 2B        		.byte	43
 1338 0004 02        		.byte	2
 1339 0005 2B        		.byte	43
 1340 0006 01        		.byte	1
 1341 0007 12        		.byte	18
 1342 0008 02        		.byte	2
 1343 0009 12        		.byte	18
 1344 000a 01        		.byte	1
 1345 000b 13        		.byte	19
 1346 000c 02        		.byte	2
 1347 000d 13        		.byte	19
 1348 000e 01        		.byte	1
 1349 000f 2B        		.byte	43
 1350 0010 02        		.byte	2
 1351 0011 2B        		.byte	43
 1352 0012 01        		.byte	1
 1353 0013 28        		.byte	40
 1354 0014 02        		.byte	2
 1355 0015 28        		.byte	40
 1356 0016 01        		.byte	1
 1357 0017 2B        		.byte	43
 1358 0018 02        		.byte	2
 1359 0019 2B        		.byte	43
 1360 001a 01        		.byte	1
 1361 001b 2B        		.byte	43
 1362 001c 02        		.byte	2
 1363 001d 2B        		.byte	43
 1364 001e 01        		.byte	1
 1365 001f 2B        		.byte	43
 1366 0020 02        		.byte	2
 1367 0021 2B        		.byte	43
 1368 0022 01        		.byte	1
 1369 0023 1D        		.byte	29
 1370 0024 02        		.byte	2
 1371 0025 1D        		.byte	29
 1372 0026 01        		.byte	1
 1373 0027 15        		.byte	21
 1374 0028 02        		.byte	2
 1375 0029 15        		.byte	21
 1376 002a 01        		.byte	1
 1377 002b 2B        		.byte	43
 1378 002c 02        		.byte	2
 1379 002d 2B        		.byte	43
 1380 002e 01        		.byte	1
 1381 002f 28        		.byte	40
 1382 0030 02        		.byte	2
 1383 0031 28        		.byte	40
 1384 0032 00        		.byte	0
 1385               		.section	.progmem.data.__c.3301,"a"
 1388               	__c.3301:
 1389 0000 6970 636F 		.string	"ipconfig /all"
 1389      6E66 6967 
 1389      202F 616C 
 1389      6C00 
 1390               		.section	.progmem.data.__c.3298,"a"
 1393               	__c.3298:
 1394 0000 00        		.zero	1
 1395               		.section	.progmem.data.__m.3295,"a"
 1398               	__m.3295:
 1399 0000 75        		.byte	117
 1400 0001 0A        		.byte	10
 1401 0002 01        		.byte	1
 1402 0003 27        		.byte	39
 1403 0004 02        		.byte	2
 1404 0005 27        		.byte	39
 1405 0006 01        		.byte	1
 1406 0007 06        		.byte	6
 1407 0008 02        		.byte	2
 1408 0009 06        		.byte	6
 1409 000a 01        		.byte	1
 1410 000b 2B        		.byte	43
 1411 000c 02        		.byte	2
 1412 000d 2B        		.byte	43
 1413 000e 01        		.byte	1
 1414 000f 2B        		.byte	43
 1415 0010 02        		.byte	2
 1416 0011 2B        		.byte	43
 1417 0012 01        		.byte	1
 1418 0013 04        		.byte	4
 1419 0014 02        		.byte	2
 1420 0015 04        		.byte	4
 1421 0016 01        		.byte	1
 1422 0017 2B        		.byte	43
 1423 0018 02        		.byte	2
 1424 0019 2B        		.byte	43
 1425 001a 00        		.byte	0
 1426               		.section	.progmem.data.__m.3291,"a"
 1429               	__m.3291:
 1430 0000 01        		.byte	1
 1431 0001 1B        		.byte	27
 1432 0002 02        		.byte	2
 1433 0003 1B        		.byte	27
 1434 0004 00        		.byte	0
 1435               		.section	.progmem.data.__m.3287,"a"
 1438               	__m.3287:
 1439 0000 75        		.byte	117
 1440 0001 0A        		.byte	10
 1441 0002 01        		.byte	1
 1442 0003 E0        		.byte	-32
 1443 0004 01        		.byte	1
 1444 0005 17        		.byte	23
 1445 0006 02        		.byte	2
 1446 0007 17        		.byte	23
 1447 0008 01        		.byte	1
 1448 0009 19        		.byte	25
 1449 000a 02        		.byte	2
 1450 000b 19        		.byte	25
 1451 000c 01        		.byte	1
 1452 000d 28        		.byte	40
 1453 000e 02        		.byte	2
 1454 000f 28        		.byte	40
 1455 0010 02        		.byte	2
 1456 0011 E0        		.byte	-32
 1457 0012 00        		.byte	0
 1458               		.section	.progmem.data.__c.3284,"a"
 1461               	__c.3284:
 1462 0000 4672 6571 		.string	"Frequentwebsite\001("
 1462      7565 6E74 
 1462      7765 6273 
 1462      6974 6501 
 1462      2800 
 1463               		.section	.progmem.data.__c.3281,"a"
 1466               	__c.3281:
 1467 0000 596F 7572 		.string	"YourEmail"
 1467      456D 6169 
 1467      6C00 
 1468               		.section	.progmem.data.__c.3278,"a"
 1471               	__c.3278:
 1472 0000 6164 6D69 		.string	"admin\001+1111\001("
 1472      6E01 2B31 
 1472      3131 3101 
 1472      2800 
 1473               		.section	.progmem.data.__m.3275,"a"
 1476               	__m.3275:
 1477 0000 01        		.byte	1
 1478 0001 E3        		.byte	-29
 1479 0002 01        		.byte	1
 1480 0003 2B        		.byte	43
 1481 0004 02        		.byte	2
 1482 0005 2B        		.byte	43
 1483 0006 02        		.byte	2
 1484 0007 E3        		.byte	-29
 1485 0008 00        		.byte	0
 1486               	.global	tap_dance_actions
 1487               		.section	.data.tap_dance_actions,"aw"
 1490               	tap_dance_actions:
 1491 0000 0000      		.word	0
 1492 0002 0000      		.word	gs(cmd_commands)
 1493 0004 0000      		.word	0
 1494 0006 0000 0000 		.zero	12
 1494      0000 0000 
 1494      0000 0000 
 1495 0012 0000      		.word	0
 1496 0014 0000      		.word	0
 1497 0016 0000      		.word	gs(cmd)
 1498 0018 0000      		.word	0
 1499 001a 0000 0000 		.zero	12
 1499      0000 0000 
 1499      0000 0000 
 1500 0026 0000      		.word	0
 1501 0028 0000      		.word	0
 1502 002a 0000      		.word	gs(SLSH_BSLSH)
 1503 002c 0000      		.word	0
 1504 002e 0000 0000 		.zero	12
 1504      0000 0000 
 1504      0000 0000 
 1505 003a 0000      		.word	0
 1506 003c 0000      		.word	0
 1507 003e 0000      		.word	gs(VirtualDesktop)
 1508 0040 0000      		.word	0
 1509 0042 0000 0000 		.zero	12
 1509      0000 0000 
 1509      0000 0000 
 1510 004e 0000      		.word	0
 1511               	.global	keymaps
 1512               		.section	.progmem.data.keymaps,"a"
 1515               	keymaps:
 1516 0000 2E00      		.word	46
 1517 0002 1E00      		.word	30
 1518 0004 1F00      		.word	31
 1519 0006 2000      		.word	32
 1520 0008 2100      		.word	33
 1521 000a 2200      		.word	34
 1522 000c 2B45      		.word	17707
 1523 000e 1400      		.word	20
 1524 0010 1A00      		.word	26
 1525 0012 0900      		.word	9
 1526 0014 1300      		.word	19
 1527 0016 0A00      		.word	10
 1528 0018 2840      		.word	16424
 1529 001a 0400      		.word	4
 1530 001c 1500      		.word	21
 1531 001e 1600      		.word	22
 1532 0020 1700      		.word	23
 1533 0022 0700      		.word	7
 1534 0024 E100      		.word	225
 1535 0026 1D00      		.word	29
 1536 0028 1B00      		.word	27
 1537 002a 0600      		.word	6
 1538 002c 1900      		.word	25
 1539 002e 0500      		.word	5
 1540 0030 2961      		.word	24873
 1541 0032 E200      		.word	226
 1542 0034 E300      		.word	227
 1543 0036 1E00      		.word	30
 1544 0038 1E00      		.word	30
 1545 003a 3500      		.word	53
 1546 003c 0000      		.word	0
 1547 003e 0000      		.word	0
 1548 0040 5000      		.word	80
 1549 0042 4F00      		.word	79
 1550 0044 2A00      		.word	42
 1551 0046 E100      		.word	225
 1552 0048 0000      		.word	0
 1553 004a 0000      		.word	0
 1554 004c 0030      		.word	12288
 1555 004e 3500      		.word	53
 1556 0050 DD5C      		.word	23773
 1557 0052 4600      		.word	70
 1558 0054 2D00      		.word	45
 1559 0056 2700      		.word	39
 1560 0058 2600      		.word	38
 1561 005a 2500      		.word	37
 1562 005c 2400      		.word	36
 1563 005e 2300      		.word	35
 1564 0060 3100      		.word	49
 1565 0062 3300      		.word	51
 1566 0064 1C00      		.word	28
 1567 0066 1800      		.word	24
 1568 0068 0F00      		.word	15
 1569 006a 0D00      		.word	13
 1570 006c 2800      		.word	40
 1571 006e 1200      		.word	18
 1572 0070 0C00      		.word	12
 1573 0072 0800      		.word	8
 1574 0074 1100      		.word	17
 1575 0076 0B00      		.word	11
 1576 0078 3500      		.word	53
 1577 007a 3800      		.word	56
 1578 007c 3700      		.word	55
 1579 007e 3600      		.word	54
 1580 0080 1000      		.word	16
 1581 0082 0E00      		.word	14
 1582 0084 3400      		.word	52
 1583 0086 0100      		.word	1
 1584 0088 4F00      		.word	79
 1585 008a 5000      		.word	80
 1586 008c 0100      		.word	1
 1587 008e 4C00      		.word	76
 1588 0090 0000      		.word	0
 1589 0092 0000      		.word	0
 1590 0094 5100      		.word	81
 1591 0096 5200      		.word	82
 1592 0098 2C00      		.word	44
 1593 009a 2800      		.word	40
 1594 009c 0000      		.word	0
 1595 009e 0000      		.word	0
 1596 00a0 4D00      		.word	77
 1597 00a2 4A00      		.word	74
 1598 00a4 DE5C      		.word	23774
 1599 00a6 4C00      		.word	76
 1600 00a8 2E00      		.word	46
 1601 00aa 1E00      		.word	30
 1602 00ac 1F00      		.word	31
 1603 00ae 2000      		.word	32
 1604 00b0 2100      		.word	33
 1605 00b2 2200      		.word	34
 1606 00b4 2B45      		.word	17707
 1607 00b6 1400      		.word	20
 1608 00b8 1A00      		.word	26
 1609 00ba 0800      		.word	8
 1610 00bc 1500      		.word	21
 1611 00be 1700      		.word	23
 1612 00c0 2840      		.word	16424
 1613 00c2 0400      		.word	4
 1614 00c4 1600      		.word	22
 1615 00c6 0700      		.word	7
 1616 00c8 0900      		.word	9
 1617 00ca 0A00      		.word	10
 1618 00cc E100      		.word	225
 1619 00ce 1D00      		.word	29
 1620 00d0 1B00      		.word	27
 1621 00d2 0600      		.word	6
 1622 00d4 1900      		.word	25
 1623 00d6 0500      		.word	5
 1624 00d8 2961      		.word	24873
 1625 00da E200      		.word	226
 1626 00dc E300      		.word	227
 1627 00de 5000      		.word	80
 1628 00e0 4F00      		.word	79
 1629 00e2 2A00      		.word	42
 1630 00e4 0000      		.word	0
 1631 00e6 0000      		.word	0
 1632 00e8 5000      		.word	80
 1633 00ea 4F00      		.word	79
 1634 00ec 2A00      		.word	42
 1635 00ee E100      		.word	225
 1636 00f0 0000      		.word	0
 1637 00f2 0000      		.word	0
 1638 00f4 0030      		.word	12288
 1639 00f6 3500      		.word	53
 1640 00f8 DD5C      		.word	23773
 1641 00fa 4600      		.word	70
 1642 00fc 2D00      		.word	45
 1643 00fe 2700      		.word	39
 1644 0100 2600      		.word	38
 1645 0102 2500      		.word	37
 1646 0104 2400      		.word	36
 1647 0106 2300      		.word	35
 1648 0108 3100      		.word	49
 1649 010a 1300      		.word	19
 1650 010c 1200      		.word	18
 1651 010e 0C00      		.word	12
 1652 0110 1800      		.word	24
 1653 0112 1C00      		.word	28
 1654 0114 2800      		.word	40
 1655 0116 3300      		.word	51
 1656 0118 0F00      		.word	15
 1657 011a 0E00      		.word	14
 1658 011c 0D00      		.word	13
 1659 011e 0B00      		.word	11
 1660 0120 3500      		.word	53
 1661 0122 3800      		.word	56
 1662 0124 3700      		.word	55
 1663 0126 3600      		.word	54
 1664 0128 1000      		.word	16
 1665 012a 1100      		.word	17
 1666 012c 3400      		.word	52
 1667 012e 5100      		.word	81
 1668 0130 5200      		.word	82
 1669 0132 4F00      		.word	79
 1670 0134 5000      		.word	80
 1671 0136 2C00      		.word	44
 1672 0138 0000      		.word	0
 1673 013a 0000      		.word	0
 1674 013c 5100      		.word	81
 1675 013e 5200      		.word	82
 1676 0140 2C00      		.word	44
 1677 0142 2800      		.word	40
 1678 0144 0000      		.word	0
 1679 0146 0000      		.word	0
 1680 0148 4D00      		.word	77
 1681 014a 4A00      		.word	74
 1682 014c DE5C      		.word	23774
 1683 014e 4C00      		.word	76
 1684 0150 2E00      		.word	46
 1685 0152 1E00      		.word	30
 1686 0154 1F00      		.word	31
 1687 0156 2000      		.word	32
 1688 0158 2100      		.word	33
 1689 015a 2200      		.word	34
 1690 015c 2B00      		.word	43
 1691 015e 3400      		.word	52
 1692 0160 3600      		.word	54
 1693 0162 3700      		.word	55
 1694 0164 1300      		.word	19
 1695 0166 1C00      		.word	28
 1696 0168 2961      		.word	24873
 1697 016a 0400      		.word	4
 1698 016c 1200      		.word	18
 1699 016e 0800      		.word	8
 1700 0170 1800      		.word	24
 1701 0172 0C00      		.word	12
 1702 0174 E100      		.word	225
 1703 0176 3300      		.word	51
 1704 0178 1400      		.word	20
 1705 017a 0D00      		.word	13
 1706 017c 0E00      		.word	14
 1707 017e 1B00      		.word	27
 1708 0180 2B45      		.word	17707
 1709 0182 E000      		.word	224
 1710 0184 E200      		.word	226
 1711 0186 E300      		.word	227
 1712 0188 DD5C      		.word	23773
 1713 018a 2C00      		.word	44
 1714 018c 0000      		.word	0
 1715 018e 0000      		.word	0
 1716 0190 5000      		.word	80
 1717 0192 4F00      		.word	79
 1718 0194 2A00      		.word	42
 1719 0196 E100      		.word	225
 1720 0198 0000      		.word	0
 1721 019a 0000      		.word	0
 1722 019c 0030      		.word	12288
 1723 019e 3500      		.word	53
 1724 01a0 DD5C      		.word	23773
 1725 01a2 4600      		.word	70
 1726 01a4 2D00      		.word	45
 1727 01a6 2700      		.word	39
 1728 01a8 2600      		.word	38
 1729 01aa 2500      		.word	37
 1730 01ac 2400      		.word	36
 1731 01ae 2300      		.word	35
 1732 01b0 2D00      		.word	45
 1733 01b2 0F00      		.word	15
 1734 01b4 1500      		.word	21
 1735 01b6 0600      		.word	6
 1736 01b8 0A00      		.word	10
 1737 01ba 0900      		.word	9
 1738 01bc 3800      		.word	56
 1739 01be 1600      		.word	22
 1740 01c0 1100      		.word	17
 1741 01c2 1700      		.word	23
 1742 01c4 0B00      		.word	11
 1743 01c6 0700      		.word	7
 1744 01c8 2840      		.word	16424
 1745 01ca 1D00      		.word	29
 1746 01cc 1900      		.word	25
 1747 01ce 1A00      		.word	26
 1748 01d0 1000      		.word	16
 1749 01d2 0500      		.word	5
 1750 01d4 4F00      		.word	79
 1751 01d6 5200      		.word	82
 1752 01d8 5100      		.word	81
 1753 01da 5000      		.word	80
 1754 01dc 5200      		.word	82
 1755 01de 2A00      		.word	42
 1756 01e0 0000      		.word	0
 1757 01e2 0000      		.word	0
 1758 01e4 5100      		.word	81
 1759 01e6 5200      		.word	82
 1760 01e8 2C00      		.word	44
 1761 01ea 2800      		.word	40
 1762 01ec 0000      		.word	0
 1763 01ee 0000      		.word	0
 1764 01f0 4D00      		.word	77
 1765 01f2 4A00      		.word	74
 1766 01f4 DE5C      		.word	23774
 1767 01f6 4C00      		.word	76
 1768 01f8 3500      		.word	53
 1769 01fa 0C30      		.word	12300
 1770 01fc 0D30      		.word	12301
 1771 01fe 0E30      		.word	12302
 1772 0200 0100      		.word	1
 1773 0202 0100      		.word	1
 1774 0204 0100      		.word	1
 1775 0206 0100      		.word	1
 1776 0208 0330      		.word	12291
 1777 020a 0230      		.word	12290
 1778 020c 0100      		.word	1
 1779 020e 0F30      		.word	12303
 1780 0210 0100      		.word	1
 1781 0212 0630      		.word	12294
 1782 0214 0100      		.word	1
 1783 0216 0100      		.word	1
 1784 0218 0100      		.word	1
 1785 021a 0100      		.word	1
 1786 021c 0100      		.word	1
 1787 021e 0100      		.word	1
 1788 0220 0130      		.word	12289
 1789 0222 0100      		.word	1
 1790 0224 0100      		.word	1
 1791 0226 0100      		.word	1
 1792 0228 005C      		.word	23552
 1793 022a 0100      		.word	1
 1794 022c 0100      		.word	1
 1795 022e 0100      		.word	1
 1796 0230 0100      		.word	1
 1797 0232 005C      		.word	23552
 1798 0234 0000      		.word	0
 1799 0236 0000      		.word	0
 1800 0238 5000      		.word	80
 1801 023a 4F00      		.word	79
 1802 023c 2A00      		.word	42
 1803 023e E100      		.word	225
 1804 0240 0000      		.word	0
 1805 0242 0000      		.word	0
 1806 0244 0030      		.word	12288
 1807 0246 3500      		.word	53
 1808 0248 DD5C      		.word	23773
 1809 024a 4600      		.word	70
 1810 024c 0100      		.word	1
 1811 024e 3000      		.word	48
 1812 0250 2F00      		.word	47
 1813 0252 0100      		.word	1
 1814 0254 0100      		.word	1
 1815 0256 0100      		.word	1
 1816 0258 0100      		.word	1
 1817 025a 0A30      		.word	12298
 1818 025c 1030      		.word	12304
 1819 025e 0100      		.word	1
 1820 0260 0100      		.word	1
 1821 0262 0100      		.word	1
 1822 0264 0100      		.word	1
 1823 0266 0100      		.word	1
 1824 0268 0B30      		.word	12299
 1825 026a 5200      		.word	82
 1826 026c 0100      		.word	1
 1827 026e 0100      		.word	1
 1828 0270 0100      		.word	1
 1829 0272 0100      		.word	1
 1830 0274 4F00      		.word	79
 1831 0276 5100      		.word	81
 1832 0278 5000      		.word	80
 1833 027a 0100      		.word	1
 1834 027c 005C      		.word	23552
 1835 027e 0100      		.word	1
 1836 0280 0100      		.word	1
 1837 0282 0100      		.word	1
 1838 0284 0100      		.word	1
 1839 0286 0100      		.word	1
 1840 0288 0000      		.word	0
 1841 028a 0000      		.word	0
 1842 028c 5100      		.word	81
 1843 028e 5200      		.word	82
 1844 0290 2C00      		.word	44
 1845 0292 2800      		.word	40
 1846 0294 0000      		.word	0
 1847 0296 0000      		.word	0
 1848 0298 4D00      		.word	77
 1849 029a 4A00      		.word	74
 1850 029c DE5C      		.word	23774
 1851 029e 4C00      		.word	76
 1852 02a0 3500      		.word	53
 1853 02a2 1E00      		.word	30
 1854 02a4 1F00      		.word	31
 1855 02a6 2000      		.word	32
 1856 02a8 2100      		.word	33
 1857 02aa 2200      		.word	34
 1858 02ac 2500      		.word	37
 1859 02ae 1E00      		.word	30
 1860 02b0 0330      		.word	12291
 1861 02b2 1E00      		.word	30
 1862 02b4 1E00      		.word	30
 1863 02b6 1E00      		.word	30
 1864 02b8 2500      		.word	37
 1865 02ba 1E00      		.word	30
 1866 02bc 1E00      		.word	30
 1867 02be 1E00      		.word	30
 1868 02c0 1E00      		.word	30
 1869 02c2 1E00      		.word	30
 1870 02c4 2500      		.word	37
 1871 02c6 1E00      		.word	30
 1872 02c8 1E00      		.word	30
 1873 02ca 1E00      		.word	30
 1874 02cc 1E00      		.word	30
 1875 02ce 1E00      		.word	30
 1876 02d0 005C      		.word	23552
 1877 02d2 1E00      		.word	30
 1878 02d4 1E00      		.word	30
 1879 02d6 1E00      		.word	30
 1880 02d8 1E00      		.word	30
 1881 02da 0100      		.word	1
 1882 02dc 0000      		.word	0
 1883 02de 0000      		.word	0
 1884 02e0 5000      		.word	80
 1885 02e2 4F00      		.word	79
 1886 02e4 2A00      		.word	42
 1887 02e6 E100      		.word	225
 1888 02e8 0000      		.word	0
 1889 02ea 0000      		.word	0
 1890 02ec 0030      		.word	12288
 1891 02ee 3500      		.word	53
 1892 02f0 DD5C      		.word	23773
 1893 02f2 4600      		.word	70
 1894 02f4 2D00      		.word	45
 1895 02f6 2700      		.word	39
 1896 02f8 2600      		.word	38
 1897 02fa 2500      		.word	37
 1898 02fc 2400      		.word	36
 1899 02fe 2300      		.word	35
 1900 0300 0000      		.word	0
 1901 0302 5600      		.word	86
 1902 0304 2300      		.word	35
 1903 0306 2200      		.word	34
 1904 0308 2100      		.word	33
 1905 030a 0000      		.word	0
 1906 030c 0000      		.word	0
 1907 030e 5700      		.word	87
 1908 0310 2000      		.word	32
 1909 0312 1F00      		.word	31
 1910 0314 1E00      		.word	30
 1911 0316 0000      		.word	0
 1912 0318 0000      		.word	0
 1913 031a 0000      		.word	0
 1914 031c 3700      		.word	55
 1915 031e 2700      		.word	39
 1916 0320 2700      		.word	39
 1917 0322 0000      		.word	0
 1918 0324 005C      		.word	23552
 1919 0326 0000      		.word	0
 1920 0328 0000      		.word	0
 1921 032a 5500      		.word	85
 1922 032c 5400      		.word	84
 1923 032e 005C      		.word	23552
 1924 0330 0000      		.word	0
 1925 0332 0000      		.word	0
 1926 0334 5100      		.word	81
 1927 0336 5200      		.word	82
 1928 0338 2C00      		.word	44
 1929 033a 2800      		.word	40
 1930 033c 0000      		.word	0
 1931 033e 0000      		.word	0
 1932 0340 4D00      		.word	77
 1933 0342 4A00      		.word	74
 1934 0344 DE5C      		.word	23774
 1935 0346 4C00      		.word	76
 1936 0348 4500      		.word	69
 1937 034a 3A00      		.word	58
 1938 034c 3B00      		.word	59
 1939 034e 3C00      		.word	60
 1940 0350 3D00      		.word	61
 1941 0352 3E00      		.word	62
 1942 0354 0100      		.word	1
 1943 0356 2000      		.word	32
 1944 0358 2000      		.word	32
 1945 035a 2000      		.word	32
 1946 035c 2000      		.word	32
 1947 035e 2000      		.word	32
 1948 0360 0100      		.word	1
 1949 0362 0100      		.word	1
 1950 0364 5200      		.word	82
 1951 0366 0100      		.word	1
 1952 0368 0100      		.word	1
 1953 036a 0100      		.word	1
 1954 036c 0100      		.word	1
 1955 036e 5000      		.word	80
 1956 0370 5100      		.word	81
 1957 0372 4F00      		.word	79
 1958 0374 0100      		.word	1
 1959 0376 0100      		.word	1
 1960 0378 2961      		.word	24873
 1961 037a E200      		.word	226
 1962 037c E300      		.word	227
 1963 037e 0357      		.word	22275
 1964 0380 DD5C      		.word	23773
 1965 0382 2A00      		.word	42
 1966 0384 0000      		.word	0
 1967 0386 0000      		.word	0
 1968 0388 5000      		.word	80
 1969 038a 4F00      		.word	79
 1970 038c 2A00      		.word	42
 1971 038e E100      		.word	225
 1972 0390 0000      		.word	0
 1973 0392 0000      		.word	0
 1974 0394 0030      		.word	12288
 1975 0396 3500      		.word	53
 1976 0398 DD5C      		.word	23773
 1977 039a 4600      		.word	70
 1978 039c 4400      		.word	68
 1979 039e 4300      		.word	67
 1980 03a0 4200      		.word	66
 1981 03a2 4100      		.word	65
 1982 03a4 4000      		.word	64
 1983 03a6 3F00      		.word	63
 1984 03a8 0100      		.word	1
 1985 03aa 0100      		.word	1
 1986 03ac 0100      		.word	1
 1987 03ae 0100      		.word	1
 1988 03b0 0100      		.word	1
 1989 03b2 0100      		.word	1
 1990 03b4 0100      		.word	1
 1991 03b6 5200      		.word	82
 1992 03b8 0100      		.word	1
 1993 03ba 0100      		.word	1
 1994 03bc 0100      		.word	1
 1995 03be 0100      		.word	1
 1996 03c0 4F00      		.word	79
 1997 03c2 5100      		.word	81
 1998 03c4 5000      		.word	80
 1999 03c6 0100      		.word	1
 2000 03c8 0100      		.word	1
 2001 03ca 0100      		.word	1
 2002 03cc 4F00      		.word	79
 2003 03ce 5100      		.word	81
 2004 03d0 5000      		.word	80
 2005 03d2 3400      		.word	52
 2006 03d4 5200      		.word	82
 2007 03d6 2C00      		.word	44
 2008 03d8 0000      		.word	0
 2009 03da 0000      		.word	0
 2010 03dc 5100      		.word	81
 2011 03de 5200      		.word	82
 2012 03e0 2C00      		.word	44
 2013 03e2 2800      		.word	40
 2014 03e4 0000      		.word	0
 2015 03e6 0000      		.word	0
 2016 03e8 4D00      		.word	77
 2017 03ea 4A00      		.word	74
 2018 03ec DE5C      		.word	23774
 2019 03ee 4C00      		.word	76
 2020 03f0 0000 0000 		.zero	1680
 2020      0000 0000 
 2020      0000 0000 
 2020      0000 0000 
 2020      0000 0000 
 2021 0a80 0100      		.word	1
 2022 0a82 DA5C      		.word	23770
 2023 0a84 DB5C      		.word	23771
 2024 0a86 C15C      		.word	23745
 2025 0a88 C45C      		.word	23748
 2026 0a8a C35C      		.word	23747
 2027 0a8c 0100      		.word	1
 2028 0a8e DB5C      		.word	23771
 2029 0a90 0100      		.word	1
 2030 0a92 1D5C      		.word	23581
 2031 0a94 1E5C      		.word	23582
 2032 0a96 135C      		.word	23571
 2033 0a98 0100      		.word	1
 2034 0a9a 1E00      		.word	30
 2035 0a9c 1E00      		.word	30
 2036 0a9e 0100      		.word	1
 2037 0aa0 0100      		.word	1
 2038 0aa2 0100      		.word	1
 2039 0aa4 0100      		.word	1
 2040 0aa6 0100      		.word	1
 2041 0aa8 0100      		.word	1
 2042 0aaa DA5C      		.word	23770
 2043 0aac 0100      		.word	1
 2044 0aae 0100      		.word	1
 2045 0ab0 0100      		.word	1
 2046 0ab2 0100      		.word	1
 2047 0ab4 0100      		.word	1
 2048 0ab6 0100      		.word	1
 2049 0ab8 0100      		.word	1
 2050 0aba 0100      		.word	1
 2051 0abc 0000      		.word	0
 2052 0abe 0000      		.word	0
 2053 0ac0 0100      		.word	1
 2054 0ac2 0100      		.word	1
 2055 0ac4 0100      		.word	1
 2056 0ac6 0100      		.word	1
 2057 0ac8 0000      		.word	0
 2058 0aca 0000      		.word	0
 2059 0acc 0100      		.word	1
 2060 0ace 0100      		.word	1
 2061 0ad0 0100      		.word	1
 2062 0ad2 0100      		.word	1
 2063 0ad4 005C      		.word	23552
 2064 0ad6 005C      		.word	23552
 2065 0ad8 C75C      		.word	23751
 2066 0ada C85C      		.word	23752
 2067 0adc C55C      		.word	23749
 2068 0ade C65C      		.word	23750
 2069 0ae0 0100      		.word	1
 2070 0ae2 015C      		.word	23553
 2071 0ae4 DC5C      		.word	23772
 2072 0ae6 DA5C      		.word	23770
 2073 0ae8 DB5C      		.word	23771
 2074 0aea 0A5C      		.word	23562
 2075 0aec 0100      		.word	1
 2076 0aee 0100      		.word	1
 2077 0af0 0100      		.word	1
 2078 0af2 0100      		.word	1
 2079 0af4 0100      		.word	1
 2080 0af6 0100      		.word	1
 2081 0af8 0100      		.word	1
 2082 0afa 0100      		.word	1
 2083 0afc 0100      		.word	1
 2084 0afe 0100      		.word	1
 2085 0b00 0100      		.word	1
 2086 0b02 0100      		.word	1
 2087 0b04 0100      		.word	1
 2088 0b06 0100      		.word	1
 2089 0b08 0100      		.word	1
 2090 0b0a 0100      		.word	1
 2091 0b0c 0100      		.word	1
 2092 0b0e 0100      		.word	1
 2093 0b10 0000      		.word	0
 2094 0b12 0000      		.word	0
 2095 0b14 0100      		.word	1
 2096 0b16 0100      		.word	1
 2097 0b18 0100      		.word	1
 2098 0b1a 0100      		.word	1
 2099 0b1c 0000      		.word	0
 2100 0b1e 0000      		.word	0
 2101 0b20 0100      		.word	1
 2102 0b22 0100      		.word	1
 2103 0b24 0100      		.word	1
 2104 0b26 0100      		.word	1
 2105               		.text
 2106               	.Letext0:
 2107               		.file 3 "/usr/local/Cellar/avr-gcc@8/8.3.0_1/avr/include/stdint.h"
 2108               		.file 4 "/usr/local/Cellar/avr-gcc@8/8.3.0_1/lib/avr-gcc/8/gcc/avr/8.3.0/include/stddef.h"
 2109               		.file 5 "./tmk_core/common/keyboard.h"
 2110               		.file 6 "./tmk_core/common/keycode.h"
 2111               		.file 7 "./tmk_core/common/action_code.h"
 2112               		.file 8 "./tmk_core/common/action_macro.h"
 2113               		.file 9 "./tmk_core/common/action.h"
 2114               		.file 10 "./tmk_core/common/report.h"
 2115               		.file 11 "./tmk_core/common/host.h"
 2116               		.file 12 "./tmk_core/common/debug.h"
 2117               		.file 13 "./quantum/keycode_config.h"
 2118               		.file 14 "./quantum/quantum_keycodes.h"
 2119               		.file 15 "./quantum/keymap.h"
 2120               		.file 16 "./tmk_core/common/action_layer.h"
 2121               		.file 17 "./tmk_core/common/timer.h"
 2122               		.file 18 "./tmk_core/common/action_util.h"
 2123               		.file 19 "/usr/local/Cellar/avr-gcc@8/8.3.0_1/avr/include/stdlib.h"
 2124               		.file 20 "./quantum/process_keycode/process_tap_dance.h"
 2125               		.file 21 "./quantum/quantum.h"
 2126               		.file 22 "./tmk_core/common/eeconfig.h"