   1               		.file	"process_leader.c"
   2               	__SP_H__ = 0x3e
   3               	__SP_L__ = 0x3d
   4               	__SREG__ = 0x3f
   5               	__tmp_reg__ = 0
   6               	__zero_reg__ = 1
   7               		.text
   8               	.Ltext0:
   9               		.cfi_sections	.debug_frame
  10               		.section	.text.leader_start,"ax",@progbits
  11               		.weak	leader_start
  13               	leader_start:
  14               	.LFB17:
  15               		.file 1 "quantum/process_keycode/process_leader.c"
   1:quantum/process_keycode/process_leader.c **** /* Copyright 2016 Jack Humbert
   2:quantum/process_keycode/process_leader.c ****  *
   3:quantum/process_keycode/process_leader.c ****  * This program is free software: you can redistribute it and/or modify
   4:quantum/process_keycode/process_leader.c ****  * it under the terms of the GNU General Public License as published by
   5:quantum/process_keycode/process_leader.c ****  * the Free Software Foundation, either version 2 of the License, or
   6:quantum/process_keycode/process_leader.c ****  * (at your option) any later version.
   7:quantum/process_keycode/process_leader.c ****  *
   8:quantum/process_keycode/process_leader.c ****  * This program is distributed in the hope that it will be useful,
   9:quantum/process_keycode/process_leader.c ****  * but WITHOUT ANY WARRANTY; without even the implied warranty of
  10:quantum/process_keycode/process_leader.c ****  * MERCHANTABILITY or FITNESS FOR A PARTICULAR PURPOSE.  See the
  11:quantum/process_keycode/process_leader.c ****  * GNU General Public License for more details.
  12:quantum/process_keycode/process_leader.c ****  *
  13:quantum/process_keycode/process_leader.c ****  * You should have received a copy of the GNU General Public License
  14:quantum/process_keycode/process_leader.c ****  * along with this program.  If not, see <http://www.gnu.org/licenses/>.
  15:quantum/process_keycode/process_leader.c ****  */
  16:quantum/process_keycode/process_leader.c **** 
  17:quantum/process_keycode/process_leader.c **** #ifndef DISABLE_LEADER
  18:quantum/process_keycode/process_leader.c **** 
  19:quantum/process_keycode/process_leader.c **** #include "process_leader.h"
  20:quantum/process_keycode/process_leader.c **** 
  21:quantum/process_keycode/process_leader.c **** #ifndef LEADER_TIMEOUT
  22:quantum/process_keycode/process_leader.c ****   #define LEADER_TIMEOUT 300
  23:quantum/process_keycode/process_leader.c **** #endif
  24:quantum/process_keycode/process_leader.c **** 
  25:quantum/process_keycode/process_leader.c **** __attribute__ ((weak))
  26:quantum/process_keycode/process_leader.c **** void leader_start(void) {}
  16               		.loc 1 26 25 view -0
  17               		.cfi_startproc
  18               	/* prologue: function */
  19               	/* frame size = 0 */
  20               	/* stack size = 0 */
  21               	.L__stack_usage = 0
  22               		.loc 1 26 26 view .LVU1
  23               	/* epilogue start */
  24               		.loc 1 26 1 is_stmt 0 view .LVU2
  25 0000 0895      		ret
  26               		.cfi_endproc
  27               	.LFE17:
  29               		.set	leader_start.localalias.0,leader_start
  30               		.section	.text.leader_end,"ax",@progbits
  31               		.weak	leader_end
  33               	leader_end:
  34               	.LFB21:
  35               		.cfi_startproc
  36               	/* prologue: function */
  37               	/* frame size = 0 */
  38               	/* stack size = 0 */
  39               	.L__stack_usage = 0
  40               	/* epilogue start */
  41 0000 0895      		ret
  42               		.cfi_endproc
  43               	.LFE21:
  45               		.section	.text.process_leader,"ax",@progbits
  46               	.global	process_leader
  48               	process_leader:
  49               	.LVL0:
  50               	.LFB19:
  27:quantum/process_keycode/process_leader.c **** 
  28:quantum/process_keycode/process_leader.c **** __attribute__ ((weak))
  29:quantum/process_keycode/process_leader.c **** void leader_end(void) {}
  30:quantum/process_keycode/process_leader.c **** 
  31:quantum/process_keycode/process_leader.c **** // Leader key stuff
  32:quantum/process_keycode/process_leader.c **** bool leading = false;
  33:quantum/process_keycode/process_leader.c **** uint16_t leader_time = 0;
  34:quantum/process_keycode/process_leader.c **** 
  35:quantum/process_keycode/process_leader.c **** uint16_t leader_sequence[5] = {0, 0, 0, 0, 0};
  36:quantum/process_keycode/process_leader.c **** uint8_t leader_sequence_size = 0;
  37:quantum/process_keycode/process_leader.c **** 
  38:quantum/process_keycode/process_leader.c **** bool process_leader(uint16_t keycode, keyrecord_t *record) {
  51               		.loc 1 38 60 is_stmt 1 view -0
  52               		.cfi_startproc
  53               		.loc 1 38 60 is_stmt 0 view .LVU4
  54 0000 0F93      		push r16
  55               	.LCFI0:
  56               		.cfi_def_cfa_offset 3
  57               		.cfi_offset 16, -2
  58 0002 1F93      		push r17
  59               	.LCFI1:
  60               		.cfi_def_cfa_offset 4
  61               		.cfi_offset 17, -3
  62 0004 CF93      		push r28
  63               	.LCFI2:
  64               		.cfi_def_cfa_offset 5
  65               		.cfi_offset 28, -4
  66               	/* prologue: function */
  67               	/* frame size = 0 */
  68               	/* stack size = 3 */
  69               	.L__stack_usage = 3
  70 0006 8C01      		movw r16,r24
  39:quantum/process_keycode/process_leader.c ****   // Leader key set-up
  40:quantum/process_keycode/process_leader.c ****   if (record->event.pressed) {
  71               		.loc 1 40 3 is_stmt 1 view .LVU5
  72               		.loc 1 40 6 is_stmt 0 view .LVU6
  73 0008 FB01      		movw r30,r22
  74 000a 8281      		ldd r24,Z+2
  75               	.LVL1:
  76               		.loc 1 40 6 view .LVU7
  77 000c 8111      		cpse r24,__zero_reg__
  78 000e 00C0      		rjmp .L4
  79               	.LVL2:
  80               	.L7:
  41:quantum/process_keycode/process_leader.c ****     if (!leading && keycode == KC_LEAD) {
  42:quantum/process_keycode/process_leader.c ****       leader_start();
  43:quantum/process_keycode/process_leader.c ****       leading = true;
  44:quantum/process_keycode/process_leader.c ****       leader_time = timer_read();
  45:quantum/process_keycode/process_leader.c ****       leader_sequence_size = 0;
  46:quantum/process_keycode/process_leader.c ****       leader_sequence[0] = 0;
  47:quantum/process_keycode/process_leader.c ****       leader_sequence[1] = 0;
  48:quantum/process_keycode/process_leader.c ****       leader_sequence[2] = 0;
  49:quantum/process_keycode/process_leader.c ****       leader_sequence[3] = 0;
  50:quantum/process_keycode/process_leader.c ****       leader_sequence[4] = 0;
  51:quantum/process_keycode/process_leader.c ****       return false;
  52:quantum/process_keycode/process_leader.c ****     }
  53:quantum/process_keycode/process_leader.c ****     if (leading && timer_elapsed(leader_time) < LEADER_TIMEOUT) {
  54:quantum/process_keycode/process_leader.c ****       leader_sequence[leader_sequence_size] = keycode;
  55:quantum/process_keycode/process_leader.c ****       leader_sequence_size++;
  56:quantum/process_keycode/process_leader.c ****       return false;
  57:quantum/process_keycode/process_leader.c ****     }
  58:quantum/process_keycode/process_leader.c ****   }
  59:quantum/process_keycode/process_leader.c ****   return true;
  81               		.loc 1 59 10 view .LVU8
  82 0010 C1E0      		ldi r28,lo8(1)
  83               	.L3:
  60:quantum/process_keycode/process_leader.c **** }
  84               		.loc 1 60 1 view .LVU9
  85 0012 8C2F      		mov r24,r28
  86               	/* epilogue start */
  87 0014 CF91      		pop r28
  88 0016 1F91      		pop r17
  89 0018 0F91      		pop r16
  90               	.LVL3:
  91               		.loc 1 60 1 view .LVU10
  92 001a 0895      		ret
  93               	.LVL4:
  94               	.L4:
  41:quantum/process_keycode/process_leader.c ****     if (!leading && keycode == KC_LEAD) {
  95               		.loc 1 41 5 is_stmt 1 view .LVU11
  41:quantum/process_keycode/process_leader.c ****     if (!leading && keycode == KC_LEAD) {
  96               		.loc 1 41 9 is_stmt 0 view .LVU12
  97 001c C091 0000 		lds r28,leading
  41:quantum/process_keycode/process_leader.c ****     if (!leading && keycode == KC_LEAD) {
  98               		.loc 1 41 8 view .LVU13
  99 0020 C111      		cpse r28,__zero_reg__
 100 0022 00C0      		rjmp .L6
  41:quantum/process_keycode/process_leader.c ****     if (!leading && keycode == KC_LEAD) {
 101               		.loc 1 41 18 discriminator 1 view .LVU14
 102 0024 0631      		cpi r16,22
 103 0026 1C45      		sbci r17,92
 104 0028 01F4      		brne .L7
  42:quantum/process_keycode/process_leader.c ****       leading = true;
 105               		.loc 1 42 7 is_stmt 1 view .LVU15
 106 002a 0E94 0000 		call leader_start
 107               	.LVL5:
  43:quantum/process_keycode/process_leader.c ****       leader_time = timer_read();
 108               		.loc 1 43 7 view .LVU16
  43:quantum/process_keycode/process_leader.c ****       leader_time = timer_read();
 109               		.loc 1 43 15 is_stmt 0 view .LVU17
 110 002e 81E0      		ldi r24,lo8(1)
 111 0030 8093 0000 		sts leading,r24
  44:quantum/process_keycode/process_leader.c ****       leader_sequence_size = 0;
 112               		.loc 1 44 7 is_stmt 1 view .LVU18
  44:quantum/process_keycode/process_leader.c ****       leader_sequence_size = 0;
 113               		.loc 1 44 21 is_stmt 0 view .LVU19
 114 0034 0E94 0000 		call timer_read
 115               	.LVL6:
  44:quantum/process_keycode/process_leader.c ****       leader_sequence_size = 0;
 116               		.loc 1 44 19 view .LVU20
 117 0038 9093 0000 		sts leader_time+1,r25
 118 003c 8093 0000 		sts leader_time,r24
  45:quantum/process_keycode/process_leader.c ****       leader_sequence[0] = 0;
 119               		.loc 1 45 7 is_stmt 1 view .LVU21
  45:quantum/process_keycode/process_leader.c ****       leader_sequence[0] = 0;
 120               		.loc 1 45 28 is_stmt 0 view .LVU22
 121 0040 1092 0000 		sts leader_sequence_size,__zero_reg__
  46:quantum/process_keycode/process_leader.c ****       leader_sequence[1] = 0;
 122               		.loc 1 46 7 is_stmt 1 view .LVU23
  46:quantum/process_keycode/process_leader.c ****       leader_sequence[1] = 0;
 123               		.loc 1 46 26 is_stmt 0 view .LVU24
 124 0044 1092 0000 		sts leader_sequence+1,__zero_reg__
 125 0048 1092 0000 		sts leader_sequence,__zero_reg__
  47:quantum/process_keycode/process_leader.c ****       leader_sequence[2] = 0;
 126               		.loc 1 47 7 is_stmt 1 view .LVU25
  47:quantum/process_keycode/process_leader.c ****       leader_sequence[2] = 0;
 127               		.loc 1 47 26 is_stmt 0 view .LVU26
 128 004c 1092 0000 		sts leader_sequence+2+1,__zero_reg__
 129 0050 1092 0000 		sts leader_sequence+2,__zero_reg__
  48:quantum/process_keycode/process_leader.c ****       leader_sequence[3] = 0;
 130               		.loc 1 48 7 is_stmt 1 view .LVU27
  48:quantum/process_keycode/process_leader.c ****       leader_sequence[3] = 0;
 131               		.loc 1 48 26 is_stmt 0 view .LVU28
 132 0054 1092 0000 		sts leader_sequence+4+1,__zero_reg__
 133 0058 1092 0000 		sts leader_sequence+4,__zero_reg__
  49:quantum/process_keycode/process_leader.c ****       leader_sequence[4] = 0;
 134               		.loc 1 49 7 is_stmt 1 view .LVU29
  49:quantum/process_keycode/process_leader.c ****       leader_sequence[4] = 0;
 135               		.loc 1 49 26 is_stmt 0 view .LVU30
 136 005c 1092 0000 		sts leader_sequence+6+1,__zero_reg__
 137 0060 1092 0000 		sts leader_sequence+6,__zero_reg__
  50:quantum/process_keycode/process_leader.c ****       return false;
 138               		.loc 1 50 7 is_stmt 1 view .LVU31
  50:quantum/process_keycode/process_leader.c ****       return false;
 139               		.loc 1 50 26 is_stmt 0 view .LVU32
 140 0064 1092 0000 		sts leader_sequence+8+1,__zero_reg__
 141 0068 1092 0000 		sts leader_sequence+8,__zero_reg__
  51:quantum/process_keycode/process_leader.c ****     }
 142               		.loc 1 51 7 is_stmt 1 view .LVU33
  51:quantum/process_keycode/process_leader.c ****     }
 143               		.loc 1 51 14 is_stmt 0 view .LVU34
 144 006c 00C0      		rjmp .L3
 145               	.LVL7:
 146               	.L6:
  53:quantum/process_keycode/process_leader.c ****       leader_sequence[leader_sequence_size] = keycode;
 147               		.loc 1 53 5 is_stmt 1 discriminator 1 view .LVU35
  53:quantum/process_keycode/process_leader.c ****       leader_sequence[leader_sequence_size] = keycode;
 148               		.loc 1 53 20 is_stmt 0 discriminator 1 view .LVU36
 149 006e 8091 0000 		lds r24,leader_time
 150 0072 9091 0000 		lds r25,leader_time+1
 151 0076 0E94 0000 		call timer_elapsed
 152               	.LVL8:
  53:quantum/process_keycode/process_leader.c ****       leader_sequence[leader_sequence_size] = keycode;
 153               		.loc 1 53 17 discriminator 1 view .LVU37
 154 007a 8C32      		cpi r24,44
 155 007c 9140      		sbci r25,1
 156 007e 00F4      		brsh .L7
  54:quantum/process_keycode/process_leader.c ****       leader_sequence_size++;
 157               		.loc 1 54 7 is_stmt 1 view .LVU38
  54:quantum/process_keycode/process_leader.c ****       leader_sequence_size++;
 158               		.loc 1 54 22 is_stmt 0 view .LVU39
 159 0080 8091 0000 		lds r24,leader_sequence_size
 160 0084 E82F      		mov r30,r24
 161 0086 F0E0      		ldi r31,0
  54:quantum/process_keycode/process_leader.c ****       leader_sequence_size++;
 162               		.loc 1 54 45 view .LVU40
 163 0088 EE0F      		lsl r30
 164 008a FF1F      		rol r31
 165 008c E050      		subi r30,lo8(-(leader_sequence))
 166 008e F040      		sbci r31,hi8(-(leader_sequence))
 167 0090 1183      		std Z+1,r17
 168 0092 0083      		st Z,r16
  55:quantum/process_keycode/process_leader.c ****       return false;
 169               		.loc 1 55 7 is_stmt 1 view .LVU41
  55:quantum/process_keycode/process_leader.c ****       return false;
 170               		.loc 1 55 27 is_stmt 0 view .LVU42
 171 0094 8F5F      		subi r24,lo8(-(1))
 172 0096 8093 0000 		sts leader_sequence_size,r24
  56:quantum/process_keycode/process_leader.c ****     }
 173               		.loc 1 56 7 is_stmt 1 view .LVU43
  56:quantum/process_keycode/process_leader.c ****     }
 174               		.loc 1 56 14 is_stmt 0 view .LVU44
 175 009a C0E0      		ldi r28,0
 176 009c 00C0      		rjmp .L3
 177               		.cfi_endproc
 178               	.LFE19:
 180               	.global	leader_sequence_size
 181               		.section	.bss.leader_sequence_size,"aw",@nobits
 184               	leader_sequence_size:
 185 0000 00        		.zero	1
 186               	.global	leader_sequence
 187               		.section	.bss.leader_sequence,"aw",@nobits
 190               	leader_sequence:
 191 0000 0000 0000 		.zero	10
 191      0000 0000 
 191      0000 
 192               	.global	leader_time
 193               		.section	.bss.leader_time,"aw",@nobits
 196               	leader_time:
 197 0000 0000      		.zero	2
 198               	.global	leading
 199               		.section	.bss.leading,"aw",@nobits
 202               	leading:
 203 0000 00        		.zero	1
 204               		.text
 205               	.Letext0:
 206               		.file 2 "/usr/local/Cellar/avr-gcc@8/8.3.0_1/avr/include/stdint.h"
 207               		.file 3 "/usr/local/Cellar/avr-gcc@8/8.3.0_1/lib/avr-gcc/8/gcc/avr/8.3.0/include/stddef.h"
 208               		.file 4 "./tmk_core/common/keyboard.h"
 209               		.file 5 "./tmk_core/common/action.h"
 210               		.file 6 "./tmk_core/common/report.h"
 211               		.file 7 "./tmk_core/common/host.h"
 212               		.file 8 "./tmk_core/common/debug.h"
 213               		.file 9 "./quantum/keycode_config.h"
 214               		.file 10 "./quantum/keymap.h"
 215               		.file 11 "./quantum/rgblight_types.h"
 216               		.file 12 "./quantum/rgblight.h"
 217               		.file 13 "./tmk_core/common/action_layer.h"
 218               		.file 14 "./tmk_core/common/timer.h"
 219               		.file 15 "./tmk_core/common/action_util.h"
 220               		.file 16 "/usr/local/Cellar/avr-gcc@8/8.3.0_1/avr/include/stdlib.h"
 221               		.file 17 "./quantum/process_keycode/process_tap_dance.h"
 222               		.file 18 "./quantum/quantum.h"
 223               		.file 19 "./quantum/quantum_keycodes.h"